
========================================================================

** ELF Header Information

    File Name: .\obj\KS_ECDSA.axf

    Machine class: ELFCLASS32 (32-bit)
    Data encoding: ELFDATA2LSB (Little endian)
    Header version: EV_CURRENT (Current version)
    Operating System ABI: none
    ABI Version: 0
    File Type: ET_EXEC (Executable) (2)
    Machine: EM_ARM (ARM)

    Image Entry point: 0x00000225
    Flags: EF_ARM_HASENTRY + EF_ARM_ABI_FLOAT_SOFT (0x05000202)

    ARM ELF revision: 5 (ABI version 2)

    Conforms to Soft float procedure-call standard

    Built with
    Component: Arm Compiler for Embedded 6.19 Tool: armasm [5e73cb00]
    Component: Arm Compiler for Embedded 6.19 Tool: armlink [5e73cb00]

    Header size: 52 bytes (0x34)
    Program header entry size: 32 bytes (0x20)
    Section header entry size: 40 bytes (0x28)

    Program header entries: 1
    Section header entries: 15

    Program header offset: 158236 (0x00026a1c)
    Section header offset: 158268 (0x00026a3c)

    Section header string table index: 14

========================================================================

** Program header #0 (PT_LOAD) [PF_X + PF_W + PF_R + PF_ARM_ENTRY]
    Size : 51768 bytes (44396 bytes in file)
    Virtual address: 0x00000000 (Alignment 8)


========================================================================

** Section #1 'ER_RO' (SHT_PROGBITS) [SHF_ALLOC + SHF_EXECINSTR]
    Size   : 44364 bytes (alignment 4)
    Address: 0x00000000

    $d.realdata
    RESET
    __Vectors
        0x00000000:    20001820     ..     DCD    536877088
        0x00000004:    00000225    %...    DCD    549
        0x00000008:    0000022d    -...    DCD    557
        0x0000000c:    0000022f    /...    DCD    559
        0x00000010:    00000000    ....    DCD    0
        0x00000014:    00000000    ....    DCD    0
        0x00000018:    00000000    ....    DCD    0
        0x0000001c:    00000000    ....    DCD    0
        0x00000020:    00000000    ....    DCD    0
        0x00000024:    00000000    ....    DCD    0
        0x00000028:    00000000    ....    DCD    0
        0x0000002c:    00000241    A...    DCD    577
        0x00000030:    00000000    ....    DCD    0
        0x00000034:    00000000    ....    DCD    0
        0x00000038:    00000243    C...    DCD    579
        0x0000003c:    00000245    E...    DCD    581
        0x00000040:    00000247    G...    DCD    583
        0x00000044:    00000247    G...    DCD    583
        0x00000048:    00000247    G...    DCD    583
        0x0000004c:    00000247    G...    DCD    583
        0x00000050:    00000247    G...    DCD    583
        0x00000054:    00000247    G...    DCD    583
        0x00000058:    00000247    G...    DCD    583
        0x0000005c:    00000247    G...    DCD    583
        0x00000060:    00000247    G...    DCD    583
        0x00000064:    00000247    G...    DCD    583
        0x00000068:    00000247    G...    DCD    583
        0x0000006c:    00000247    G...    DCD    583
        0x00000070:    00000247    G...    DCD    583
        0x00000074:    00000247    G...    DCD    583
        0x00000078:    00000247    G...    DCD    583
        0x0000007c:    00000247    G...    DCD    583
        0x00000080:    00000247    G...    DCD    583
        0x00000084:    00000247    G...    DCD    583
        0x00000088:    00000247    G...    DCD    583
        0x0000008c:    00000247    G...    DCD    583
        0x00000090:    00000247    G...    DCD    583
        0x00000094:    00000247    G...    DCD    583
        0x00000098:    00000247    G...    DCD    583
        0x0000009c:    00000247    G...    DCD    583
        0x000000a0:    00000247    G...    DCD    583
        0x000000a4:    00000247    G...    DCD    583
        0x000000a8:    00000247    G...    DCD    583
        0x000000ac:    00000247    G...    DCD    583
        0x000000b0:    00000247    G...    DCD    583
        0x000000b4:    00000247    G...    DCD    583
        0x000000b8:    00000247    G...    DCD    583
        0x000000bc:    00000247    G...    DCD    583
        0x000000c0:    00000247    G...    DCD    583
        0x000000c4:    00000247    G...    DCD    583
        0x000000c8:    00000247    G...    DCD    583
        0x000000cc:    00000247    G...    DCD    583
        0x000000d0:    00000247    G...    DCD    583
        0x000000d4:    00000247    G...    DCD    583
        0x000000d8:    00000247    G...    DCD    583
        0x000000dc:    00000247    G...    DCD    583
        0x000000e0:    00000247    G...    DCD    583
        0x000000e4:    00000247    G...    DCD    583
        0x000000e8:    00000247    G...    DCD    583
        0x000000ec:    00000247    G...    DCD    583
        0x000000f0:    00000247    G...    DCD    583
        0x000000f4:    00000247    G...    DCD    583
        0x000000f8:    00000247    G...    DCD    583
        0x000000fc:    00000247    G...    DCD    583
        0x00000100:    00000247    G...    DCD    583
        0x00000104:    00000247    G...    DCD    583
        0x00000108:    00000247    G...    DCD    583
        0x0000010c:    00000247    G...    DCD    583
        0x00000110:    00000247    G...    DCD    583
        0x00000114:    00000247    G...    DCD    583
        0x00000118:    00000247    G...    DCD    583
        0x0000011c:    00000247    G...    DCD    583
        0x00000120:    00000247    G...    DCD    583
        0x00000124:    00000247    G...    DCD    583
        0x00000128:    00000247    G...    DCD    583
        0x0000012c:    00000247    G...    DCD    583
        0x00000130:    00000247    G...    DCD    583
        0x00000134:    00000247    G...    DCD    583
        0x00000138:    00000247    G...    DCD    583
        0x0000013c:    00000247    G...    DCD    583
        0x00000140:    00000247    G...    DCD    583
        0x00000144:    00000247    G...    DCD    583
        0x00000148:    00000247    G...    DCD    583
        0x0000014c:    00000247    G...    DCD    583
        0x00000150:    00000247    G...    DCD    583
        0x00000154:    00000247    G...    DCD    583
        0x00000158:    00000247    G...    DCD    583
        0x0000015c:    00001e9d    ....    DCD    7837
        0x00000160:    00000247    G...    DCD    583
        0x00000164:    00000247    G...    DCD    583
        0x00000168:    00000247    G...    DCD    583
        0x0000016c:    00000247    G...    DCD    583
        0x00000170:    00000247    G...    DCD    583
        0x00000174:    00000247    G...    DCD    583
        0x00000178:    00000247    G...    DCD    583
        0x0000017c:    00000247    G...    DCD    583
        0x00000180:    00000247    G...    DCD    583
        0x00000184:    00000247    G...    DCD    583
        0x00000188:    00000247    G...    DCD    583
        0x0000018c:    00000247    G...    DCD    583
        0x00000190:    00000247    G...    DCD    583
        0x00000194:    00000247    G...    DCD    583
        0x00000198:    00000247    G...    DCD    583
        0x0000019c:    00000247    G...    DCD    583
        0x000001a0:    00000247    G...    DCD    583
        0x000001a4:    00000247    G...    DCD    583
        0x000001a8:    00000247    G...    DCD    583
        0x000001ac:    00000247    G...    DCD    583
        0x000001b0:    00000247    G...    DCD    583
        0x000001b4:    00000247    G...    DCD    583
        0x000001b8:    00000247    G...    DCD    583
        0x000001bc:    00000247    G...    DCD    583
        0x000001c0:    00000247    G...    DCD    583
        0x000001c4:    00000247    G...    DCD    583
        0x000001c8:    00000247    G...    DCD    583
        0x000001cc:    00003195    .1..    DCD    12693
        0x000001d0:    00000247    G...    DCD    583
        0x000001d4:    00000247    G...    DCD    583
        0x000001d8:    00000247    G...    DCD    583
        0x000001dc:    00000247    G...    DCD    583
        0x000001e0:    00000247    G...    DCD    583
        0x000001e4:    00000247    G...    DCD    583
        0x000001e8:    00000247    G...    DCD    583
        0x000001ec:    00000247    G...    DCD    583
        0x000001f0:    00000247    G...    DCD    583
        0x000001f4:    00000247    G...    DCD    583
        0x000001f8:    00000247    G...    DCD    583
        0x000001fc:    00000247    G...    DCD    583
        0x00000200:    00000247    G...    DCD    583
        0x00000204:    00000247    G...    DCD    583
        0x00000208:    00000247    G...    DCD    583
        0x0000020c:    00000247    G...    DCD    583
    $t
    .ARM.Collect$$$$00000000
    .ARM.Collect$$$$00000001
    __Vectors_End
    __main
    _main_stk
        0x00000210:    4803        .H      LDR      r0,__lit__00000000 ; [0x220] = 0x20001820
        0x00000212:    4685        .F      MOV      sp,r0
    .ARM.Collect$$$$00000004
    _main_scatterload
        0x00000214:    f000fe64    ..d.    BL       __scatterload ; 0xee0
    .ARM.Collect$$$$00000008
    .ARM.Collect$$$$0000000A
    .ARM.Collect$$$$0000000B
    __main_after_scatterload
    _main_clock
    _main_cpp_init
    _main_init
        0x00000218:    4800        .H      LDR      r0,[pc,#0] ; [0x21c] = 0x3f31
        0x0000021a:    4700        .G      BX       r0
    $d
        0x0000021c:    00003f31    1?..    DCD    16177
    .ARM.Collect$$$$00002712
    __lit__00000000
    .ARM.Collect$$$$0000000D
    .ARM.Collect$$$$0000000F
    __rt_final_cpp
    __rt_final_exit
        0x00000220:    20001820     ..     DCD    536877088
    $t
    .text
    Reset_Handler
        0x00000224:    4812        .H      LDR      r0,[pc,#72] ; [0x270] = 0x3319
        0x00000226:    4780        .G      BLX      r0
        0x00000228:    4812        .H      LDR      r0,[pc,#72] ; [0x274] = 0x211
        0x0000022a:    4700        .G      BX       r0
    NMI_Handler
        0x0000022c:    e7fe        ..      B        NMI_Handler ; 0x22c
    HardFault_Handler
        0x0000022e:    4670        pF      MOV      r0,lr
        0x00000230:    f3ef8108    ....    MRS      r1,MSP
        0x00000234:    f3ef8209    ....    MRS      r2,PSP
        0x00000238:    4b0f        .K      LDR      r3,[pc,#60] ; [0x278] = 0x2ba5
        0x0000023a:    4798        .G      BLX      r3
        0x0000023c:    4700        .G      BX       r0
    ProcessHardFaultx
        0x0000023e:    e7fe        ..      B        ProcessHardFaultx ; 0x23e
    SVC_Handler
        0x00000240:    e7fe        ..      B        SVC_Handler ; 0x240
    PendSV_Handler
        0x00000242:    e7fe        ..      B        PendSV_Handler ; 0x242
    SysTick_Handler
        0x00000244:    e7fe        ..      B        SysTick_Handler ; 0x244
    ACMP01_IRQHandler
    BOD_IRQHandler
    BPWM0_IRQHandler
    BPWM1_IRQHandler
    BRAKE0_IRQHandler
    BRAKE1_IRQHandler
    CAN0_IRQHandler
    CAN1_IRQHandler
    CLKFAIL_IRQHandler
    DAC_IRQHandler
    DEFAULT_IRQHandler
    EADC0_IRQHandler
    EADC1_IRQHandler
    EADC2_IRQHandler
    EADC3_IRQHandler
    ECAP0_IRQHandler
    ECAP1_IRQHandler
    EINT0_IRQHandler
    EINT1_IRQHandler
    EINT2_IRQHandler
    EINT3_IRQHandler
    EINT4_IRQHandler
    EINT5_IRQHandler
    EINT6_IRQHandler
    EINT7_IRQHandler
    EPWM0_P0_IRQHandler
    EPWM0_P1_IRQHandler
    EPWM0_P2_IRQHandler
    EPWM1_P0_IRQHandler
    EPWM1_P1_IRQHandler
    EPWM1_P2_IRQHandler
    EWDT_IRQHandler
    EWWDT_IRQHandler
    GPA_IRQHandler
    GPB_IRQHandler
    GPC_IRQHandler
    GPD_IRQHandler
    GPE_IRQHandler
    GPF_IRQHandler
    GPG_IRQHandler
    GPH_IRQHandler
    I2C0_IRQHandler
    I2C1_IRQHandler
    I2C2_IRQHandler
    I2S0_IRQHandler
    IRC_IRQHandler
    KS_IRQHandler
    LCD_IRQHandler
    NS_ISP_IRQHandler
    OPA0_IRQHandler
    PDMA0_IRQHandler
    PDMA1_IRQHandler
    PWRWU_IRQHandler
    QEI0_IRQHandler
    QEI1_IRQHandler
    QSPI0_IRQHandler
    RTC_IRQHandler
    RTC_TAMPER_IRQHandler
    SC0_IRQHandler
    SC1_IRQHandler
    SC2_IRQHandler
    SC3_IRQHandler
    SDH0_IRQHandler
    SDH1_IRQHandler
    SPI0_IRQHandler
    SPI1_IRQHandler
    SPI2_IRQHandler
    SPI3_IRQHandler
    SRAM_IRQHandler
    TAMPER_IRQHandler
    TMR0_IRQHandler
    TMR1_IRQHandler
    TMR2_IRQHandler
    TMR3_IRQHandler
    TMR4_IRQHandler
    TMR5_IRQHandler
    TRNG_IRQHandler
    UART0_IRQHandler
    UART1_IRQHandler
    UART2_IRQHandler
    UART3_IRQHandler
    UART4_IRQHandler
    UART5_IRQHandler
    USBD_IRQHandler
    USBH_IRQHandler
    USBOTG_IRQHandler
    USCI0_IRQHandler
    USCI1_IRQHandler
    WDT_IRQHandler
    WWDT_IRQHandler
        0x00000246:    e7fe        ..      B        ACMP01_IRQHandler ; 0x246
    SH_DoCommand
        0x00000248:    beab        ..      BKPT     #0xab
        0x0000024a:    4b0c        .K      LDR      r3,[pc,#48] ; [0x27c] = 0x3199
        0x0000024c:    4674        tF      MOV      r4,lr
        0x0000024e:    4798        .G      BLX      r3
        0x00000250:    4720         G      BX       r4
    __PC
        0x00000252:    4670        pF      MOV      r0,lr
        0x00000254:    47f0        .G      BLX      lr
    $d
        0x00000256:    0000        ..      DCW    0
    $t
    SPD_Return
        0x00000258:    4809        .H      LDR      r0,[pc,#36] ; [0x280] = 0x400002c0
        0x0000025a:    490a        .I      LDR      r1,[pc,#40] ; [0x284] = 0x20010000
        0x0000025c:    6001        .`      STR      r1,[r0,#0]
        0x0000025e:    4668        hF      MOV      r0,sp
        0x00000260:    6008        .`      STR      r0,[r1,#0]
        0x00000262:    4809        .H      LDR      r0,[pc,#36] ; [0x288] = 0x26b
        0x00000264:    6048        H`      STR      r0,[r1,#4]
        0x00000266:    bf30        0.      WFI      
        0x00000268:    e7fe        ..      B        0x268 ; SPD_Return + 16
    SPD_Next
        0x0000026a:    bf00        ..      NOP      
        0x0000026c:    bf00        ..      NOP      
        0x0000026e:    bf00        ..      NOP      
    $d
        0x00000270:    00003319    .3..    DCD    13081
        0x00000274:    00000211    ....    DCD    529
        0x00000278:    00002ba5    .+..    DCD    11173
        0x0000027c:    00003199    .1..    DCD    12697
        0x00000280:    400002c0    ...@    DCD    1073742528
        0x00000284:    20010000    ...     DCD    536936448
        0x00000288:    0000026b    k...    DCD    619
    $t
    .text
    __aeabi_llsl
    _ll_shift_l
        0x0000028c:    b510        ..      PUSH     {r4,lr}
        0x0000028e:    2a20         *      CMP      r2,#0x20
        0x00000290:    db04        ..      BLT      0x29c ; __aeabi_llsl + 16
        0x00000292:    4601        .F      MOV      r1,r0
        0x00000294:    3a20         :      SUBS     r2,r2,#0x20
        0x00000296:    4091        .@      LSLS     r1,r1,r2
        0x00000298:    2000        .       MOVS     r0,#0
        0x0000029a:    bd10        ..      POP      {r4,pc}
        0x0000029c:    4091        .@      LSLS     r1,r1,r2
        0x0000029e:    2320         #      MOVS     r3,#0x20
        0x000002a0:    1a9c        ..      SUBS     r4,r3,r2
        0x000002a2:    4603        .F      MOV      r3,r0
        0x000002a4:    40e3        .@      LSRS     r3,r3,r4
        0x000002a6:    4319        .C      ORRS     r1,r1,r3
        0x000002a8:    4090        .@      LSLS     r0,r0,r2
        0x000002aa:    bd10        ..      POP      {r4,pc}
    .text
    __aeabi_llsr
    _ll_ushift_r
        0x000002ac:    b510        ..      PUSH     {r4,lr}
        0x000002ae:    2a20         *      CMP      r2,#0x20
        0x000002b0:    db04        ..      BLT      0x2bc ; __aeabi_llsr + 16
        0x000002b2:    4608        .F      MOV      r0,r1
        0x000002b4:    3a20         :      SUBS     r2,r2,#0x20
        0x000002b6:    40d0        .@      LSRS     r0,r0,r2
        0x000002b8:    2100        .!      MOVS     r1,#0
        0x000002ba:    bd10        ..      POP      {r4,pc}
        0x000002bc:    460b        .F      MOV      r3,r1
        0x000002be:    40d3        .@      LSRS     r3,r3,r2
        0x000002c0:    40d0        .@      LSRS     r0,r0,r2
        0x000002c2:    2420         $      MOVS     r4,#0x20
        0x000002c4:    1aa2        ..      SUBS     r2,r4,r2
        0x000002c6:    4091        .@      LSLS     r1,r1,r2
        0x000002c8:    4308        .C      ORRS     r0,r0,r1
        0x000002ca:    4619        .F      MOV      r1,r3
        0x000002cc:    bd10        ..      POP      {r4,pc}
    .text
    __aeabi_memcpy
    __aeabi_memcpy4
    __aeabi_memcpy8
        0x000002ce:    4603        .F      MOV      r3,r0
        0x000002d0:    430b        .C      ORRS     r3,r3,r1
        0x000002d2:    079b        ..      LSLS     r3,r3,#30
        0x000002d4:    d003        ..      BEQ      0x2de ; __aeabi_memcpy + 16
        0x000002d6:    e009        ..      B        0x2ec ; __aeabi_memcpy + 30
        0x000002d8:    c908        ..      LDM      r1!,{r3}
        0x000002da:    1f12        ..      SUBS     r2,r2,#4
        0x000002dc:    c008        ..      STM      r0!,{r3}
        0x000002de:    2a04        .*      CMP      r2,#4
        0x000002e0:    d2fa        ..      BCS      0x2d8 ; __aeabi_memcpy + 10
        0x000002e2:    e003        ..      B        0x2ec ; __aeabi_memcpy + 30
        0x000002e4:    780b        .x      LDRB     r3,[r1,#0]
        0x000002e6:    7003        .p      STRB     r3,[r0,#0]
        0x000002e8:    1c40        @.      ADDS     r0,r0,#1
        0x000002ea:    1c49        I.      ADDS     r1,r1,#1
        0x000002ec:    1e52        R.      SUBS     r2,r2,#1
        0x000002ee:    d2f9        ..      BCS      0x2e4 ; __aeabi_memcpy + 22
        0x000002f0:    4770        pG      BX       lr
    .text
    __aeabi_memset
    __aeabi_memset4
    __aeabi_memset8
        0x000002f2:    b2d2        ..      UXTB     r2,r2
        0x000002f4:    e001        ..      B        0x2fa ; __aeabi_memset + 8
        0x000002f6:    7002        .p      STRB     r2,[r0,#0]
        0x000002f8:    1c40        @.      ADDS     r0,r0,#1
        0x000002fa:    1e49        I.      SUBS     r1,r1,#1
        0x000002fc:    d2fb        ..      BCS      0x2f6 ; __aeabi_memset + 4
        0x000002fe:    4770        pG      BX       lr
    __aeabi_memclr
    __aeabi_memclr4
    __aeabi_memclr8
        0x00000300:    2200        ."      MOVS     r2,#0
        0x00000302:    e7f6        ..      B        __aeabi_memset ; 0x2f2
    _memset$wrapper
        0x00000304:    b510        ..      PUSH     {r4,lr}
        0x00000306:    4613        .F      MOV      r3,r2
        0x00000308:    460a        .F      MOV      r2,r1
        0x0000030a:    4604        .F      MOV      r4,r0
        0x0000030c:    4619        .F      MOV      r1,r3
        0x0000030e:    f7fffff0    ....    BL       __aeabi_memset ; 0x2f2
        0x00000312:    4620         F      MOV      r0,r4
        0x00000314:    bd10        ..      POP      {r4,pc}
    .text
    strlen
        0x00000316:    1c42        B.      ADDS     r2,r0,#1
        0x00000318:    7801        .x      LDRB     r1,[r0,#0]
        0x0000031a:    1c40        @.      ADDS     r0,r0,#1
        0x0000031c:    2900        .)      CMP      r1,#0
        0x0000031e:    d1fb        ..      BNE      0x318 ; strlen + 2
        0x00000320:    1a80        ..      SUBS     r0,r0,r2
        0x00000322:    4770        pG      BX       lr
    .text
    strcasecmp
        0x00000324:    b5f8        ..      PUSH     {r3-r7,lr}
        0x00000326:    460e        .F      MOV      r6,r1
        0x00000328:    4605        .F      MOV      r5,r0
        0x0000032a:    2400        .$      MOVS     r4,#0
        0x0000032c:    e000        ..      B        0x330 ; strcasecmp + 12
        0x0000032e:    1c64        d.      ADDS     r4,r4,#1
        0x00000330:    5d28        (]      LDRB     r0,[r5,r4]
        0x00000332:    f000f859    ..Y.    BL       tolower ; 0x3e8
        0x00000336:    4607        .F      MOV      r7,r0
        0x00000338:    5d30        0]      LDRB     r0,[r6,r4]
        0x0000033a:    f000f855    ..U.    BL       tolower ; 0x3e8
        0x0000033e:    1a38        8.      SUBS     r0,r7,r0
        0x00000340:    d102        ..      BNE      0x348 ; strcasecmp + 36
        0x00000342:    5d29        )]      LDRB     r1,[r5,r4]
        0x00000344:    2900        .)      CMP      r1,#0
        0x00000346:    d1f2        ..      BNE      0x32e ; strcasecmp + 10
        0x00000348:    bdf8        ..      POP      {r3-r7,pc}
        0x0000034a:    0000        ..      MOVS     r0,r0
    .text
    sscanf
        0x0000034c:    b40f        ..      PUSH     {r0-r3}
        0x0000034e:    b500        ..      PUSH     {lr}
        0x00000350:    b08d        ..      SUB      sp,sp,#0x34
        0x00000352:    9009        ..      STR      r0,[sp,#0x24]
        0x00000354:    900b        ..      STR      r0,[sp,#0x2c]
        0x00000356:    a910        ..      ADD      r1,sp,#0x40
        0x00000358:    2000        .       MOVS     r0,#0
        0x0000035a:    9100        ..      STR      r1,[sp,#0]
        0x0000035c:    43c0        .C      MVNS     r0,r0
        0x0000035e:    900a        ..      STR      r0,[sp,#0x28]
        0x00000360:    2000        .       MOVS     r0,#0
        0x00000362:    900c        ..      STR      r0,[sp,#0x30]
        0x00000364:    4806        .H      LDR      r0,[pc,#24] ; [0x380] = 0xb11
        0x00000366:    9006        ..      STR      r0,[sp,#0x18]
        0x00000368:    4806        .H      LDR      r0,[pc,#24] ; [0x384] = 0xb31
        0x0000036a:    9007        ..      STR      r0,[sp,#0x1c]
        0x0000036c:    466a        jF      MOV      r2,sp
        0x0000036e:    a809        ..      ADD      r0,sp,#0x24
        0x00000370:    990f        ..      LDR      r1,[sp,#0x3c]
        0x00000372:    f000fbbd    ....    BL       __vfscanf_char ; 0xaf0
        0x00000376:    b00d        ..      ADD      sp,sp,#0x34
        0x00000378:    bc08        ..      POP      {r3}
        0x0000037a:    b004        ..      ADD      sp,sp,#0x10
        0x0000037c:    4718        .G      BX       r3
    $d
        0x0000037e:    0000        ..      DCW    0
        0x00000380:    00000b11    ....    DCD    2833
        0x00000384:    00000b31    1...    DCD    2865
    $t
    .text
    __aeabi_uldivmod
        0x00000388:    b5f0        ..      PUSH     {r4-r7,lr}
        0x0000038a:    b41f        ..      PUSH     {r0-r4}
        0x0000038c:    4606        .F      MOV      r6,r0
        0x0000038e:    2000        .       MOVS     r0,#0
        0x00000390:    b082        ..      SUB      sp,sp,#8
        0x00000392:    4605        .F      MOV      r5,r0
        0x00000394:    2440        @$      MOVS     r4,#0x40
        0x00000396:    9101        ..      STR      r1,[sp,#4]
        0x00000398:    9000        ..      STR      r0,[sp,#0]
        0x0000039a:    e01b        ..      B        0x3d4 ; __aeabi_uldivmod + 76
        0x0000039c:    9901        ..      LDR      r1,[sp,#4]
        0x0000039e:    4622        "F      MOV      r2,r4
        0x000003a0:    460f        .F      MOV      r7,r1
        0x000003a2:    4630        0F      MOV      r0,r6
        0x000003a4:    f7ffff82    ....    BL       __aeabi_llsr ; 0x2ac
        0x000003a8:    9a04        ..      LDR      r2,[sp,#0x10]
        0x000003aa:    9b05        ..      LDR      r3,[sp,#0x14]
        0x000003ac:    1a80        ..      SUBS     r0,r0,r2
        0x000003ae:    4199        .A      SBCS     r1,r1,r3
        0x000003b0:    d310        ..      BCC      0x3d4 ; __aeabi_uldivmod + 76
        0x000003b2:    4610        .F      MOV      r0,r2
        0x000003b4:    4619        .F      MOV      r1,r3
        0x000003b6:    4622        "F      MOV      r2,r4
        0x000003b8:    f7ffff68    ..h.    BL       __aeabi_llsl ; 0x28c
        0x000003bc:    1a36        6.      SUBS     r6,r6,r0
        0x000003be:    418f        .A      SBCS     r7,r7,r1
        0x000003c0:    9701        ..      STR      r7,[sp,#4]
        0x000003c2:    4622        "F      MOV      r2,r4
        0x000003c4:    2001        .       MOVS     r0,#1
        0x000003c6:    2100        .!      MOVS     r1,#0
        0x000003c8:    9f00        ..      LDR      r7,[sp,#0]
        0x000003ca:    f7ffff5f    .._.    BL       __aeabi_llsl ; 0x28c
        0x000003ce:    1838        8.      ADDS     r0,r7,r0
        0x000003d0:    414d        MA      ADCS     r5,r5,r1
        0x000003d2:    9000        ..      STR      r0,[sp,#0]
        0x000003d4:    4620         F      MOV      r0,r4
        0x000003d6:    1e64        d.      SUBS     r4,r4,#1
        0x000003d8:    2800        .(      CMP      r0,#0
        0x000003da:    dcdf        ..      BGT      0x39c ; __aeabi_uldivmod + 20
        0x000003dc:    9b01        ..      LDR      r3,[sp,#4]
        0x000003de:    9800        ..      LDR      r0,[sp,#0]
        0x000003e0:    4629        )F      MOV      r1,r5
        0x000003e2:    4632        2F      MOV      r2,r6
        0x000003e4:    b007        ..      ADD      sp,sp,#0x1c
        0x000003e6:    bdf0        ..      POP      {r4-r7,pc}
    .text
    tolower
        0x000003e8:    4601        .F      MOV      r1,r0
        0x000003ea:    3941        A9      SUBS     r1,r1,#0x41
        0x000003ec:    2919        .)      CMP      r1,#0x19
        0x000003ee:    d800        ..      BHI      0x3f2 ; tolower + 10
        0x000003f0:    3020         0      ADDS     r0,r0,#0x20
        0x000003f2:    4770        pG      BX       lr
    .text
    _scanf_longlong
        0x000003f4:    b5ff        ..      PUSH     {r0-r7,lr}
        0x000003f6:    2500        .%      MOVS     r5,#0
        0x000003f8:    43ed        .C      MVNS     r5,r5
        0x000003fa:    b085        ..      SUB      sp,sp,#0x14
        0x000003fc:    2000        .       MOVS     r0,#0
        0x000003fe:    9000        ..      STR      r0,[sp,#0]
        0x00000400:    9001        ..      STR      r0,[sp,#4]
        0x00000402:    689f        .h      LDR      r7,[r3,#8]
        0x00000404:    685e        ^h      LDR      r6,[r3,#4]
        0x00000406:    461c        .F      MOV      r4,r3
        0x00000408:    69a1        .i      LDR      r1,[r4,#0x18]
        0x0000040a:    1c6d        m.      ADDS     r5,r5,#1
        0x0000040c:    9806        ..      LDR      r0,[sp,#0x18]
        0x0000040e:    4788        .G      BLX      r1
        0x00000410:    9002        ..      STR      r0,[sp,#8]
        0x00000412:    6a21        !j      LDR      r1,[r4,#0x20]
        0x00000414:    4788        .G      BLX      r1
        0x00000416:    2800        .(      CMP      r0,#0
        0x00000418:    d1f6        ..      BNE      0x408 ; _scanf_longlong + 20
        0x0000041a:    9802        ..      LDR      r0,[sp,#8]
        0x0000041c:    1c40        @.      ADDS     r0,r0,#1
        0x0000041e:    d00c        ..      BEQ      0x43a ; _scanf_longlong + 70
        0x00000420:    2003        .       MOVS     r0,#3
        0x00000422:    0240        @.      LSLS     r0,r0,#9
        0x00000424:    4386        .C      BICS     r6,r6,r0
        0x00000426:    2f00        ./      CMP      r7,#0
        0x00000428:    dd19        ..      BLE      0x45e ; _scanf_longlong + 106
        0x0000042a:    0670        p.      LSLS     r0,r6,#25
        0x0000042c:    d514        ..      BPL      0x458 ; _scanf_longlong + 100
        0x0000042e:    9802        ..      LDR      r0,[sp,#8]
        0x00000430:    282b        +(      CMP      r0,#0x2b
        0x00000432:    d009        ..      BEQ      0x448 ; _scanf_longlong + 84
        0x00000434:    282d        -(      CMP      r0,#0x2d
        0x00000436:    d10f        ..      BNE      0x458 ; _scanf_longlong + 100
        0x00000438:    e003        ..      B        0x442 ; _scanf_longlong + 78
        0x0000043a:    2000        .       MOVS     r0,#0
        0x0000043c:    43c0        .C      MVNS     r0,r0
        0x0000043e:    b009        ..      ADD      sp,sp,#0x24
        0x00000440:    bdf0        ..      POP      {r4-r7,pc}
        0x00000442:    2001        .       MOVS     r0,#1
        0x00000444:    0280        ..      LSLS     r0,r0,#10
        0x00000446:    4306        .C      ORRS     r6,r6,r0
        0x00000448:    69a1        .i      LDR      r1,[r4,#0x18]
        0x0000044a:    1c6d        m.      ADDS     r5,r5,#1
        0x0000044c:    9806        ..      LDR      r0,[sp,#0x18]
        0x0000044e:    4788        .G      BLX      r1
        0x00000450:    1e7f        ..      SUBS     r7,r7,#1
        0x00000452:    9002        ..      STR      r0,[sp,#8]
        0x00000454:    2f00        ./      CMP      r7,#0
        0x00000456:    dd02        ..      BLE      0x45e ; _scanf_longlong + 106
        0x00000458:    9802        ..      LDR      r0,[sp,#8]
        0x0000045a:    2830        0(      CMP      r0,#0x30
        0x0000045c:    d003        ..      BEQ      0x466 ; _scanf_longlong + 114
        0x0000045e:    9807        ..      LDR      r0,[sp,#0x1c]
        0x00000460:    2800        .(      CMP      r0,#0
        0x00000462:    d028        (.      BEQ      0x4b6 ; _scanf_longlong + 194
        0x00000464:    e024        $.      B        0x4b0 ; _scanf_longlong + 188
        0x00000466:    2001        .       MOVS     r0,#1
        0x00000468:    0240        @.      LSLS     r0,r0,#9
        0x0000046a:    4306        .C      ORRS     r6,r6,r0
        0x0000046c:    69a1        .i      LDR      r1,[r4,#0x18]
        0x0000046e:    1c6d        m.      ADDS     r5,r5,#1
        0x00000470:    1e7f        ..      SUBS     r7,r7,#1
        0x00000472:    9806        ..      LDR      r0,[sp,#0x18]
        0x00000474:    4788        .G      BLX      r1
        0x00000476:    9002        ..      STR      r0,[sp,#8]
        0x00000478:    2f00        ./      CMP      r7,#0
        0x0000047a:    dd03        ..      BLE      0x484 ; _scanf_longlong + 144
        0x0000047c:    2878        x(      CMP      r0,#0x78
        0x0000047e:    d005        ..      BEQ      0x48c ; _scanf_longlong + 152
        0x00000480:    2858        X(      CMP      r0,#0x58
        0x00000482:    d003        ..      BEQ      0x48c ; _scanf_longlong + 152
        0x00000484:    9807        ..      LDR      r0,[sp,#0x1c]
        0x00000486:    2800        .(      CMP      r0,#0
        0x00000488:    d010        ..      BEQ      0x4ac ; _scanf_longlong + 184
        0x0000048a:    e011        ..      B        0x4b0 ; _scanf_longlong + 188
        0x0000048c:    9807        ..      LDR      r0,[sp,#0x1c]
        0x0000048e:    2800        .(      CMP      r0,#0
        0x00000490:    d001        ..      BEQ      0x496 ; _scanf_longlong + 162
        0x00000492:    2810        .(      CMP      r0,#0x10
        0x00000494:    d10c        ..      BNE      0x4b0 ; _scanf_longlong + 188
        0x00000496:    2001        .       MOVS     r0,#1
        0x00000498:    0240        @.      LSLS     r0,r0,#9
        0x0000049a:    4386        .C      BICS     r6,r6,r0
        0x0000049c:    69a1        .i      LDR      r1,[r4,#0x18]
        0x0000049e:    1c6d        m.      ADDS     r5,r5,#1
        0x000004a0:    1e7f        ..      SUBS     r7,r7,#1
        0x000004a2:    9806        ..      LDR      r0,[sp,#0x18]
        0x000004a4:    4788        .G      BLX      r1
        0x000004a6:    9002        ..      STR      r0,[sp,#8]
        0x000004a8:    2010        .       MOVS     r0,#0x10
        0x000004aa:    e000        ..      B        0x4ae ; _scanf_longlong + 186
        0x000004ac:    2008        .       MOVS     r0,#8
        0x000004ae:    9007        ..      STR      r0,[sp,#0x1c]
        0x000004b0:    17c0        ..      ASRS     r0,r0,#31
        0x000004b2:    9003        ..      STR      r0,[sp,#0xc]
        0x000004b4:    e016        ..      B        0x4e4 ; _scanf_longlong + 240
        0x000004b6:    200a        .       MOVS     r0,#0xa
        0x000004b8:    e7f9        ..      B        0x4ae ; _scanf_longlong + 186
        0x000004ba:    2001        .       MOVS     r0,#1
        0x000004bc:    0240        @.      LSLS     r0,r0,#9
        0x000004be:    4306        .C      ORRS     r6,r6,r0
        0x000004c0:    1e7f        ..      SUBS     r7,r7,#1
        0x000004c2:    9b03        ..      LDR      r3,[sp,#0xc]
        0x000004c4:    9a07        ..      LDR      r2,[sp,#0x1c]
        0x000004c6:    9901        ..      LDR      r1,[sp,#4]
        0x000004c8:    9800        ..      LDR      r0,[sp,#0]
        0x000004ca:    f000fd3a    ..:.    BL       __aeabi_lmul ; 0xf42
        0x000004ce:    9a02        ..      LDR      r2,[sp,#8]
        0x000004d0:    17d3        ..      ASRS     r3,r2,#31
        0x000004d2:    1880        ..      ADDS     r0,r0,r2
        0x000004d4:    4159        YA      ADCS     r1,r1,r3
        0x000004d6:    9101        ..      STR      r1,[sp,#4]
        0x000004d8:    9000        ..      STR      r0,[sp,#0]
        0x000004da:    69a1        .i      LDR      r1,[r4,#0x18]
        0x000004dc:    1c6d        m.      ADDS     r5,r5,#1
        0x000004de:    9806        ..      LDR      r0,[sp,#0x18]
        0x000004e0:    4788        .G      BLX      r1
        0x000004e2:    9002        ..      STR      r0,[sp,#8]
        0x000004e4:    2f00        ./      CMP      r7,#0
        0x000004e6:    dd06        ..      BLE      0x4f6 ; _scanf_longlong + 258
        0x000004e8:    9907        ..      LDR      r1,[sp,#0x1c]
        0x000004ea:    9802        ..      LDR      r0,[sp,#8]
        0x000004ec:    f000fd5b    ..[.    BL       _chval ; 0xfa6
        0x000004f0:    9002        ..      STR      r0,[sp,#8]
        0x000004f2:    2800        .(      CMP      r0,#0
        0x000004f4:    dae1        ..      BGE      0x4ba ; _scanf_longlong + 198
        0x000004f6:    69e1        .i      LDR      r1,[r4,#0x1c]
        0x000004f8:    9806        ..      LDR      r0,[sp,#0x18]
        0x000004fa:    4788        .G      BLX      r1
        0x000004fc:    05b0        ..      LSLS     r0,r6,#22
        0x000004fe:    d402        ..      BMI      0x506 ; _scanf_longlong + 274
        0x00000500:    2001        .       MOVS     r0,#1
        0x00000502:    43c0        .C      MVNS     r0,r0
        0x00000504:    e79b        ..      B        0x43e ; _scanf_longlong + 74
        0x00000506:    07f0        ..      LSLS     r0,r6,#31
        0x00000508:    d110        ..      BNE      0x52c ; _scanf_longlong + 312
        0x0000050a:    0670        p.      LSLS     r0,r6,#25
        0x0000050c:    d510        ..      BPL      0x530 ; _scanf_longlong + 316
        0x0000050e:    0570        p.      LSLS     r0,r6,#21
        0x00000510:    d505        ..      BPL      0x51e ; _scanf_longlong + 298
        0x00000512:    9800        ..      LDR      r0,[sp,#0]
        0x00000514:    9b01        ..      LDR      r3,[sp,#4]
        0x00000516:    2200        ."      MOVS     r2,#0
        0x00000518:    4241        AB      RSBS     r1,r0,#0
        0x0000051a:    419a        .A      SBCS     r2,r2,r3
        0x0000051c:    e001        ..      B        0x522 ; _scanf_longlong + 302
        0x0000051e:    9a01        ..      LDR      r2,[sp,#4]
        0x00000520:    9900        ..      LDR      r1,[sp,#0]
        0x00000522:    6820         h      LDR      r0,[r4,#0]
        0x00000524:    1d03        ..      ADDS     r3,r0,#4
        0x00000526:    6023        #`      STR      r3,[r4,#0]
        0x00000528:    6800        .h      LDR      r0,[r0,#0]
        0x0000052a:    c006        ..      STM      r0!,{r1,r2}
        0x0000052c:    4628        (F      MOV      r0,r5
        0x0000052e:    e786        ..      B        0x43e ; _scanf_longlong + 74
        0x00000530:    6820         h      LDR      r0,[r4,#0]
        0x00000532:    1d01        ..      ADDS     r1,r0,#4
        0x00000534:    6021        !`      STR      r1,[r4,#0]
        0x00000536:    6800        .h      LDR      r0,[r0,#0]
        0x00000538:    9a01        ..      LDR      r2,[sp,#4]
        0x0000053a:    9900        ..      LDR      r1,[sp,#0]
        0x0000053c:    e7f5        ..      B        0x52a ; _scanf_longlong + 310
    .text
    _scanf_int
        0x0000053e:    b5ff        ..      PUSH     {r0-r7,lr}
        0x00000540:    2700        .'      MOVS     r7,#0
        0x00000542:    43ff        .C      MVNS     r7,r7
        0x00000544:    b083        ..      SUB      sp,sp,#0xc
        0x00000546:    2000        .       MOVS     r0,#0
        0x00000548:    685c        \h      LDR      r4,[r3,#4]
        0x0000054a:    9001        ..      STR      r0,[sp,#4]
        0x0000054c:    689e        .h      LDR      r6,[r3,#8]
        0x0000054e:    461d        .F      MOV      r5,r3
        0x00000550:    69a9        .i      LDR      r1,[r5,#0x18]
        0x00000552:    1c7f        ..      ADDS     r7,r7,#1
        0x00000554:    9804        ..      LDR      r0,[sp,#0x10]
        0x00000556:    4788        .G      BLX      r1
        0x00000558:    9000        ..      STR      r0,[sp,#0]
        0x0000055a:    6a29        )j      LDR      r1,[r5,#0x20]
        0x0000055c:    4788        .G      BLX      r1
        0x0000055e:    2800        .(      CMP      r0,#0
        0x00000560:    d1f6        ..      BNE      0x550 ; _scanf_int + 18
        0x00000562:    9800        ..      LDR      r0,[sp,#0]
        0x00000564:    1c40        @.      ADDS     r0,r0,#1
        0x00000566:    d00c        ..      BEQ      0x582 ; _scanf_int + 68
        0x00000568:    2003        .       MOVS     r0,#3
        0x0000056a:    0240        @.      LSLS     r0,r0,#9
        0x0000056c:    4384        .C      BICS     r4,r4,r0
        0x0000056e:    2e00        ..      CMP      r6,#0
        0x00000570:    dd19        ..      BLE      0x5a6 ; _scanf_int + 104
        0x00000572:    0660        `.      LSLS     r0,r4,#25
        0x00000574:    d514        ..      BPL      0x5a0 ; _scanf_int + 98
        0x00000576:    9800        ..      LDR      r0,[sp,#0]
        0x00000578:    282b        +(      CMP      r0,#0x2b
        0x0000057a:    d009        ..      BEQ      0x590 ; _scanf_int + 82
        0x0000057c:    282d        -(      CMP      r0,#0x2d
        0x0000057e:    d10f        ..      BNE      0x5a0 ; _scanf_int + 98
        0x00000580:    e003        ..      B        0x58a ; _scanf_int + 76
        0x00000582:    2000        .       MOVS     r0,#0
        0x00000584:    43c0        .C      MVNS     r0,r0
        0x00000586:    b007        ..      ADD      sp,sp,#0x1c
        0x00000588:    bdf0        ..      POP      {r4-r7,pc}
        0x0000058a:    2001        .       MOVS     r0,#1
        0x0000058c:    0280        ..      LSLS     r0,r0,#10
        0x0000058e:    4304        .C      ORRS     r4,r4,r0
        0x00000590:    69a9        .i      LDR      r1,[r5,#0x18]
        0x00000592:    1c7f        ..      ADDS     r7,r7,#1
        0x00000594:    9804        ..      LDR      r0,[sp,#0x10]
        0x00000596:    4788        .G      BLX      r1
        0x00000598:    1e76        v.      SUBS     r6,r6,#1
        0x0000059a:    9000        ..      STR      r0,[sp,#0]
        0x0000059c:    2e00        ..      CMP      r6,#0
        0x0000059e:    dd02        ..      BLE      0x5a6 ; _scanf_int + 104
        0x000005a0:    9800        ..      LDR      r0,[sp,#0]
        0x000005a2:    2830        0(      CMP      r0,#0x30
        0x000005a4:    d003        ..      BEQ      0x5ae ; _scanf_int + 112
        0x000005a6:    9805        ..      LDR      r0,[sp,#0x14]
        0x000005a8:    2800        .(      CMP      r0,#0
        0x000005aa:    d025        %.      BEQ      0x5f8 ; _scanf_int + 186
        0x000005ac:    e035        5.      B        0x61a ; _scanf_int + 220
        0x000005ae:    2001        .       MOVS     r0,#1
        0x000005b0:    0240        @.      LSLS     r0,r0,#9
        0x000005b2:    4304        .C      ORRS     r4,r4,r0
        0x000005b4:    69a9        .i      LDR      r1,[r5,#0x18]
        0x000005b6:    1e76        v.      SUBS     r6,r6,#1
        0x000005b8:    1c7f        ..      ADDS     r7,r7,#1
        0x000005ba:    9804        ..      LDR      r0,[sp,#0x10]
        0x000005bc:    4788        .G      BLX      r1
        0x000005be:    9000        ..      STR      r0,[sp,#0]
        0x000005c0:    2e00        ..      CMP      r6,#0
        0x000005c2:    dd03        ..      BLE      0x5cc ; _scanf_int + 142
        0x000005c4:    2878        x(      CMP      r0,#0x78
        0x000005c6:    d005        ..      BEQ      0x5d4 ; _scanf_int + 150
        0x000005c8:    2858        X(      CMP      r0,#0x58
        0x000005ca:    d003        ..      BEQ      0x5d4 ; _scanf_int + 150
        0x000005cc:    9805        ..      LDR      r0,[sp,#0x14]
        0x000005ce:    2800        .(      CMP      r0,#0
        0x000005d0:    d010        ..      BEQ      0x5f4 ; _scanf_int + 182
        0x000005d2:    e022        ".      B        0x61a ; _scanf_int + 220
        0x000005d4:    9805        ..      LDR      r0,[sp,#0x14]
        0x000005d6:    2800        .(      CMP      r0,#0
        0x000005d8:    d001        ..      BEQ      0x5de ; _scanf_int + 160
        0x000005da:    2810        .(      CMP      r0,#0x10
        0x000005dc:    d11d        ..      BNE      0x61a ; _scanf_int + 220
        0x000005de:    2001        .       MOVS     r0,#1
        0x000005e0:    0240        @.      LSLS     r0,r0,#9
        0x000005e2:    4384        .C      BICS     r4,r4,r0
        0x000005e4:    69a9        .i      LDR      r1,[r5,#0x18]
        0x000005e6:    1e76        v.      SUBS     r6,r6,#1
        0x000005e8:    1c7f        ..      ADDS     r7,r7,#1
        0x000005ea:    9804        ..      LDR      r0,[sp,#0x10]
        0x000005ec:    4788        .G      BLX      r1
        0x000005ee:    9000        ..      STR      r0,[sp,#0]
        0x000005f0:    2010        .       MOVS     r0,#0x10
        0x000005f2:    e002        ..      B        0x5fa ; _scanf_int + 188
        0x000005f4:    2008        .       MOVS     r0,#8
        0x000005f6:    e000        ..      B        0x5fa ; _scanf_int + 188
        0x000005f8:    200a        .       MOVS     r0,#0xa
        0x000005fa:    9005        ..      STR      r0,[sp,#0x14]
        0x000005fc:    e00d        ..      B        0x61a ; _scanf_int + 220
        0x000005fe:    2101        .!      MOVS     r1,#1
        0x00000600:    0249        I.      LSLS     r1,r1,#9
        0x00000602:    430c        .C      ORRS     r4,r4,r1
        0x00000604:    9a05        ..      LDR      r2,[sp,#0x14]
        0x00000606:    9901        ..      LDR      r1,[sp,#4]
        0x00000608:    1e76        v.      SUBS     r6,r6,#1
        0x0000060a:    4351        QC      MULS     r1,r2,r1
        0x0000060c:    1808        ..      ADDS     r0,r1,r0
        0x0000060e:    9001        ..      STR      r0,[sp,#4]
        0x00000610:    69a9        .i      LDR      r1,[r5,#0x18]
        0x00000612:    1c7f        ..      ADDS     r7,r7,#1
        0x00000614:    9804        ..      LDR      r0,[sp,#0x10]
        0x00000616:    4788        .G      BLX      r1
        0x00000618:    9000        ..      STR      r0,[sp,#0]
        0x0000061a:    2e00        ..      CMP      r6,#0
        0x0000061c:    dd05        ..      BLE      0x62a ; _scanf_int + 236
        0x0000061e:    9905        ..      LDR      r1,[sp,#0x14]
        0x00000620:    9800        ..      LDR      r0,[sp,#0]
        0x00000622:    f000fcc0    ....    BL       _chval ; 0xfa6
        0x00000626:    2800        .(      CMP      r0,#0
        0x00000628:    dae9        ..      BGE      0x5fe ; _scanf_int + 192
        0x0000062a:    69e9        .i      LDR      r1,[r5,#0x1c]
        0x0000062c:    9804        ..      LDR      r0,[sp,#0x10]
        0x0000062e:    4788        .G      BLX      r1
        0x00000630:    05a0        ..      LSLS     r0,r4,#22
        0x00000632:    d402        ..      BMI      0x63a ; _scanf_int + 252
        0x00000634:    2001        .       MOVS     r0,#1
        0x00000636:    43c0        .C      MVNS     r0,r0
        0x00000638:    e7a5        ..      B        0x586 ; _scanf_int + 72
        0x0000063a:    07e0        ..      LSLS     r0,r4,#31
        0x0000063c:    d122        ".      BNE      0x684 ; _scanf_int + 326
        0x0000063e:    0660        `.      LSLS     r0,r4,#25
        0x00000640:    d511        ..      BPL      0x666 ; _scanf_int + 296
        0x00000642:    0560        `.      LSLS     r0,r4,#21
        0x00000644:    9801        ..      LDR      r0,[sp,#4]
        0x00000646:    d500        ..      BPL      0x64a ; _scanf_int + 268
        0x00000648:    4240        @B      RSBS     r0,r0,#0
        0x0000064a:    6829        )h      LDR      r1,[r5,#0]
        0x0000064c:    1d0a        ..      ADDS     r2,r1,#4
        0x0000064e:    602a        *`      STR      r2,[r5,#0]
        0x00000650:    6809        .h      LDR      r1,[r1,#0]
        0x00000652:    0522        ".      LSLS     r2,r4,#20
        0x00000654:    d501        ..      BPL      0x65a ; _scanf_int + 284
        0x00000656:    7008        .p      STRB     r0,[r1,#0]
        0x00000658:    e014        ..      B        0x684 ; _scanf_int + 326
        0x0000065a:    0722        ".      LSLS     r2,r4,#28
        0x0000065c:    d501        ..      BPL      0x662 ; _scanf_int + 292
        0x0000065e:    8008        ..      STRH     r0,[r1,#0]
        0x00000660:    e010        ..      B        0x684 ; _scanf_int + 326
        0x00000662:    6008        .`      STR      r0,[r1,#0]
        0x00000664:    e00e        ..      B        0x684 ; _scanf_int + 326
        0x00000666:    6828        (h      LDR      r0,[r5,#0]
        0x00000668:    1d01        ..      ADDS     r1,r0,#4
        0x0000066a:    6029        )`      STR      r1,[r5,#0]
        0x0000066c:    6800        .h      LDR      r0,[r0,#0]
        0x0000066e:    0521        !.      LSLS     r1,r4,#20
        0x00000670:    d502        ..      BPL      0x678 ; _scanf_int + 314
        0x00000672:    9901        ..      LDR      r1,[sp,#4]
        0x00000674:    7001        .p      STRB     r1,[r0,#0]
        0x00000676:    e005        ..      B        0x684 ; _scanf_int + 326
        0x00000678:    0721        !.      LSLS     r1,r4,#28
        0x0000067a:    9901        ..      LDR      r1,[sp,#4]
        0x0000067c:    d501        ..      BPL      0x682 ; _scanf_int + 324
        0x0000067e:    8001        ..      STRH     r1,[r0,#0]
        0x00000680:    e000        ..      B        0x684 ; _scanf_int + 326
        0x00000682:    6001        .`      STR      r1,[r0,#0]
        0x00000684:    4638        8F      MOV      r0,r7
        0x00000686:    e77e        ~.      B        0x586 ; _scanf_int + 72
    .text
    _scanf_string
        0x00000688:    b5ff        ..      PUSH     {r0-r7,lr}
        0x0000068a:    2000        .       MOVS     r0,#0
        0x0000068c:    b083        ..      SUB      sp,sp,#0xc
        0x0000068e:    9000        ..      STR      r0,[sp,#0]
        0x00000690:    6850        Ph      LDR      r0,[r2,#4]
        0x00000692:    9001        ..      STR      r0,[sp,#4]
        0x00000694:    6991        .i      LDR      r1,[r2,#0x18]
        0x00000696:    4614        .F      MOV      r4,r2
        0x00000698:    2600        .&      MOVS     r6,#0
        0x0000069a:    6897        .h      LDR      r7,[r2,#8]
        0x0000069c:    9804        ..      LDR      r0,[sp,#0x10]
        0x0000069e:    4788        .G      BLX      r1
        0x000006a0:    4605        .F      MOV      r5,r0
        0x000006a2:    990c        ..      LDR      r1,[sp,#0x30]
        0x000006a4:    9806        ..      LDR      r0,[sp,#0x18]
        0x000006a6:    4308        .C      ORRS     r0,r0,r1
        0x000006a8:    d005        ..      BEQ      0x6b6 ; _scanf_string + 46
        0x000006aa:    e009        ..      B        0x6c0 ; _scanf_string + 56
        0x000006ac:    69a1        .i      LDR      r1,[r4,#0x18]
        0x000006ae:    1c76        v.      ADDS     r6,r6,#1
        0x000006b0:    9804        ..      LDR      r0,[sp,#0x10]
        0x000006b2:    4788        .G      BLX      r1
        0x000006b4:    4605        .F      MOV      r5,r0
        0x000006b6:    6a21        !j      LDR      r1,[r4,#0x20]
        0x000006b8:    4628        (F      MOV      r0,r5
        0x000006ba:    4788        .G      BLX      r1
        0x000006bc:    2800        .(      CMP      r0,#0
        0x000006be:    d1f5        ..      BNE      0x6ac ; _scanf_string + 36
        0x000006c0:    1c68        h.      ADDS     r0,r5,#1
        0x000006c2:    d003        ..      BEQ      0x6cc ; _scanf_string + 68
        0x000006c4:    9801        ..      LDR      r0,[sp,#4]
        0x000006c6:    07c0        ..      LSLS     r0,r0,#31
        0x000006c8:    d004        ..      BEQ      0x6d4 ; _scanf_string + 76
        0x000006ca:    e017        ..      B        0x6fc ; _scanf_string + 116
        0x000006cc:    2000        .       MOVS     r0,#0
        0x000006ce:    43c0        .C      MVNS     r0,r0
        0x000006d0:    b007        ..      ADD      sp,sp,#0x1c
        0x000006d2:    bdf0        ..      POP      {r4-r7,pc}
        0x000006d4:    6820         h      LDR      r0,[r4,#0]
        0x000006d6:    1d01        ..      ADDS     r1,r0,#4
        0x000006d8:    6021        !`      STR      r1,[r4,#0]
        0x000006da:    6800        .h      LDR      r0,[r0,#0]
        0x000006dc:    9000        ..      STR      r0,[sp,#0]
        0x000006de:    e00d        ..      B        0x6fc ; _scanf_string + 116
        0x000006e0:    9801        ..      LDR      r0,[sp,#4]
        0x000006e2:    07c0        ..      LSLS     r0,r0,#31
        0x000006e4:    d104        ..      BNE      0x6f0 ; _scanf_string + 104
        0x000006e6:    9800        ..      LDR      r0,[sp,#0]
        0x000006e8:    7005        .p      STRB     r5,[r0,#0]
        0x000006ea:    9800        ..      LDR      r0,[sp,#0]
        0x000006ec:    1c40        @.      ADDS     r0,r0,#1
        0x000006ee:    9000        ..      STR      r0,[sp,#0]
        0x000006f0:    69a1        .i      LDR      r1,[r4,#0x18]
        0x000006f2:    1c76        v.      ADDS     r6,r6,#1
        0x000006f4:    1e7f        ..      SUBS     r7,r7,#1
        0x000006f6:    9804        ..      LDR      r0,[sp,#0x10]
        0x000006f8:    4788        .G      BLX      r1
        0x000006fa:    4605        .F      MOV      r5,r0
        0x000006fc:    2f00        ./      CMP      r7,#0
        0x000006fe:    dd1c        ..      BLE      0x73a ; _scanf_string + 178
        0x00000700:    1c68        h.      ADDS     r0,r5,#1
        0x00000702:    d01a        ..      BEQ      0x73a ; _scanf_string + 178
        0x00000704:    9806        ..      LDR      r0,[sp,#0x18]
        0x00000706:    2800        .(      CMP      r0,#0
        0x00000708:    d00f        ..      BEQ      0x72a ; _scanf_string + 162
        0x0000070a:    17e8        ..      ASRS     r0,r5,#31
        0x0000070c:    0ec0        ..      LSRS     r0,r0,#27
        0x0000070e:    1940        @.      ADDS     r0,r0,r5
        0x00000710:    1141        A.      ASRS     r1,r0,#5
        0x00000712:    008a        ..      LSLS     r2,r1,#2
        0x00000714:    9906        ..      LDR      r1,[sp,#0x18]
        0x00000716:    0940        @.      LSRS     r0,r0,#5
        0x00000718:    1851        Q.      ADDS     r1,r2,r1
        0x0000071a:    0140        @.      LSLS     r0,r0,#5
        0x0000071c:    1a2a        *.      SUBS     r2,r5,r0
        0x0000071e:    6809        .h      LDR      r1,[r1,#0]
        0x00000720:    2001        .       MOVS     r0,#1
        0x00000722:    4090        .@      LSLS     r0,r0,r2
        0x00000724:    4201        .B      TST      r1,r0
        0x00000726:    d1db        ..      BNE      0x6e0 ; _scanf_string + 88
        0x00000728:    e007        ..      B        0x73a ; _scanf_string + 178
        0x0000072a:    980c        ..      LDR      r0,[sp,#0x30]
        0x0000072c:    2800        .(      CMP      r0,#0
        0x0000072e:    d1d7        ..      BNE      0x6e0 ; _scanf_string + 88
        0x00000730:    6a21        !j      LDR      r1,[r4,#0x20]
        0x00000732:    4628        (F      MOV      r0,r5
        0x00000734:    4788        .G      BLX      r1
        0x00000736:    2800        .(      CMP      r0,#0
        0x00000738:    d0d2        ..      BEQ      0x6e0 ; _scanf_string + 88
        0x0000073a:    69e1        .i      LDR      r1,[r4,#0x1c]
        0x0000073c:    9804        ..      LDR      r0,[sp,#0x10]
        0x0000073e:    4788        .G      BLX      r1
        0x00000740:    980c        ..      LDR      r0,[sp,#0x30]
        0x00000742:    2800        .(      CMP      r0,#0
        0x00000744:    d107        ..      BNE      0x756 ; _scanf_string + 206
        0x00000746:    2e00        ..      CMP      r6,#0
        0x00000748:    dd05        ..      BLE      0x756 ; _scanf_string + 206
        0x0000074a:    9801        ..      LDR      r0,[sp,#4]
        0x0000074c:    07c0        ..      LSLS     r0,r0,#31
        0x0000074e:    d102        ..      BNE      0x756 ; _scanf_string + 206
        0x00000750:    9800        ..      LDR      r0,[sp,#0]
        0x00000752:    2100        .!      MOVS     r1,#0
        0x00000754:    7001        .p      STRB     r1,[r0,#0]
        0x00000756:    68a0        .h      LDR      r0,[r4,#8]
        0x00000758:    42b8        .B      CMP      r0,r7
        0x0000075a:    dd04        ..      BLE      0x766 ; _scanf_string + 222
        0x0000075c:    980c        ..      LDR      r0,[sp,#0x30]
        0x0000075e:    2800        .(      CMP      r0,#0
        0x00000760:    d004        ..      BEQ      0x76c ; _scanf_string + 228
        0x00000762:    2f00        ./      CMP      r7,#0
        0x00000764:    d002        ..      BEQ      0x76c ; _scanf_string + 228
        0x00000766:    2001        .       MOVS     r0,#1
        0x00000768:    43c0        .C      MVNS     r0,r0
        0x0000076a:    e7b1        ..      B        0x6d0 ; _scanf_string + 72
        0x0000076c:    4630        0F      MOV      r0,r6
        0x0000076e:    e7af        ..      B        0x6d0 ; _scanf_string + 72
    .text
    _fp_value
        0x00000770:    b5ff        ..      PUSH     {r0-r7,lr}
        0x00000772:    7808        .x      LDRB     r0,[r1,#0]
        0x00000774:    b089        ..      SUB      sp,sp,#0x24
        0x00000776:    4615        .F      MOV      r5,r2
        0x00000778:    28ff        .(      CMP      r0,#0xff
        0x0000077a:    d005        ..      BEQ      0x788 ; _fp_value + 24
        0x0000077c:    1c49        I.      ADDS     r1,r1,#1
        0x0000077e:    282d        -(      CMP      r0,#0x2d
        0x00000780:    d004        ..      BEQ      0x78c ; _fp_value + 28
        0x00000782:    2200        ."      MOVS     r2,#0
        0x00000784:    2400        .$      MOVS     r4,#0
        0x00000786:    e007        ..      B        0x798 ; _fp_value + 40
        0x00000788:    2400        .$      MOVS     r4,#0
        0x0000078a:    e00b        ..      B        0x7a4 ; _fp_value + 52
        0x0000078c:    2201        ."      MOVS     r2,#1
        0x0000078e:    e7f9        ..      B        0x784 ; _fp_value + 20
        0x00000790:    230a        .#      MOVS     r3,#0xa
        0x00000792:    435c        \C      MULS     r4,r3,r4
        0x00000794:    1904        ..      ADDS     r4,r0,r4
        0x00000796:    1c49        I.      ADDS     r1,r1,#1
        0x00000798:    7808        .x      LDRB     r0,[r1,#0]
        0x0000079a:    28ff        .(      CMP      r0,#0xff
        0x0000079c:    d1f8        ..      BNE      0x790 ; _fp_value + 32
        0x0000079e:    2a00        .*      CMP      r2,#0
        0x000007a0:    d000        ..      BEQ      0x7a4 ; _fp_value + 52
        0x000007a2:    4264        dB      RSBS     r4,r4,#0
        0x000007a4:    2000        .       MOVS     r0,#0
        0x000007a6:    9004        ..      STR      r0,[sp,#0x10]
        0x000007a8:    782a        *x      LDRB     r2,[r5,#0]
        0x000007aa:    4601        .F      MOV      r1,r0
        0x000007ac:    2a2d        -*      CMP      r2,#0x2d
        0x000007ae:    d001        ..      BEQ      0x7b4 ; _fp_value + 68
        0x000007b0:    2a2b        +*      CMP      r2,#0x2b
        0x000007b2:    d10f        ..      BNE      0x7d4 ; _fp_value + 100
        0x000007b4:    1c6d        m.      ADDS     r5,r5,#1
        0x000007b6:    2a2d        -*      CMP      r2,#0x2d
        0x000007b8:    d002        ..      BEQ      0x7c0 ; _fp_value + 80
        0x000007ba:    2200        ."      MOVS     r2,#0
        0x000007bc:    9204        ..      STR      r2,[sp,#0x10]
        0x000007be:    e009        ..      B        0x7d4 ; _fp_value + 100
        0x000007c0:    2201        ."      MOVS     r2,#1
        0x000007c2:    e7fb        ..      B        0x7bc ; _fp_value + 76
        0x000007c4:    2600        .&      MOVS     r6,#0
        0x000007c6:    220a        ."      MOVS     r2,#0xa
        0x000007c8:    4633        3F      MOV      r3,r6
        0x000007ca:    1c6d        m.      ADDS     r5,r5,#1
        0x000007cc:    f000fbb9    ....    BL       __aeabi_lmul ; 0xf42
        0x000007d0:    1838        8.      ADDS     r0,r7,r0
        0x000007d2:    4171        qA      ADCS     r1,r1,r6
        0x000007d4:    782f        /x      LDRB     r7,[r5,#0]
        0x000007d6:    2fff        ./      CMP      r7,#0xff
        0x000007d8:    d1f4        ..      BNE      0x7c4 ; _fp_value + 84
        0x000007da:    9a0c        ..      LDR      r2,[sp,#0x30]
        0x000007dc:    18a2        ..      ADDS     r2,r4,r2
        0x000007de:    9206        ..      STR      r2,[sp,#0x18]
        0x000007e0:    4602        .F      MOV      r2,r0
        0x000007e2:    430a        .C      ORRS     r2,r2,r1
        0x000007e4:    d004        ..      BEQ      0x7f0 ; _fp_value + 128
        0x000007e6:    23ff        .#      MOVS     r3,#0xff
        0x000007e8:    9a06        ..      LDR      r2,[sp,#0x18]
        0x000007ea:    3391        .3      ADDS     r3,r3,#0x91
        0x000007ec:    42da        .B      CMN      r2,r3
        0x000007ee:    da05        ..      BGE      0x7fc ; _fp_value + 140
        0x000007f0:    2100        .!      MOVS     r1,#0
        0x000007f2:    9809        ..      LDR      r0,[sp,#0x24]
        0x000007f4:    460a        .F      MOV      r2,r1
        0x000007f6:    c006        ..      STM      r0!,{r1,r2}
        0x000007f8:    b00d        ..      ADD      sp,sp,#0x34
        0x000007fa:    bdf0        ..      POP      {r4-r7,pc}
        0x000007fc:    2400        .$      MOVS     r4,#0
        0x000007fe:    4ab7        .J      LDR      r2,[pc,#732] ; [0xadc] = 0x3ff00000
        0x00000800:    4db5        .M      LDR      r5,[pc,#724] ; [0xad8] = 0x40140000
        0x00000802:    4626        &F      MOV      r6,r4
        0x00000804:    9207        ..      STR      r2,[sp,#0x1c]
        0x00000806:    f000fdd9    ....    BL       __aeabi_ul2d ; 0x13bc
        0x0000080a:    9002        ..      STR      r0,[sp,#8]
        0x0000080c:    9806        ..      LDR      r0,[sp,#0x18]
        0x0000080e:    9103        ..      STR      r1,[sp,#0xc]
        0x00000810:    2800        .(      CMP      r0,#0
        0x00000812:    da01        ..      BGE      0x818 ; _fp_value + 168
        0x00000814:    4247        GB      RSBS     r7,r0,#0
        0x00000816:    e000        ..      B        0x81a ; _fp_value + 170
        0x00000818:    4607        .F      MOV      r7,r0
        0x0000081a:    0539        9.      LSLS     r1,r7,#20
        0x0000081c:    2000        .       MOVS     r0,#0
        0x0000081e:    4aaf        .J      LDR      r2,[pc,#700] ; [0xadc] = 0x3ff00000
        0x00000820:    1c00        ..      ADDS     r0,r0,#0
        0x00000822:    4151        QA      ADCS     r1,r1,r2
        0x00000824:    9101        ..      STR      r1,[sp,#4]
        0x00000826:    9000        ..      STR      r0,[sp,#0]
        0x00000828:    e012        ..      B        0x850 ; _fp_value + 224
        0x0000082a:    07f8        ..      LSLS     r0,r7,#31
        0x0000082c:    d007        ..      BEQ      0x83e ; _fp_value + 206
        0x0000082e:    4622        "F      MOV      r2,r4
        0x00000830:    462b        +F      MOV      r3,r5
        0x00000832:    4630        0F      MOV      r0,r6
        0x00000834:    9907        ..      LDR      r1,[sp,#0x1c]
        0x00000836:    f000fa3f    ..?.    BL       __aeabi_dmul ; 0xcb8
        0x0000083a:    4606        .F      MOV      r6,r0
        0x0000083c:    9107        ..      STR      r1,[sp,#0x1c]
        0x0000083e:    4622        "F      MOV      r2,r4
        0x00000840:    462b        +F      MOV      r3,r5
        0x00000842:    4610        .F      MOV      r0,r2
        0x00000844:    4619        .F      MOV      r1,r3
        0x00000846:    f000fa37    ..7.    BL       __aeabi_dmul ; 0xcb8
        0x0000084a:    4604        .F      MOV      r4,r0
        0x0000084c:    460d        .F      MOV      r5,r1
        0x0000084e:    107f        ..      ASRS     r7,r7,#1
        0x00000850:    2f00        ./      CMP      r7,#0
        0x00000852:    d1ea        ..      BNE      0x82a ; _fp_value + 186
        0x00000854:    9806        ..      LDR      r0,[sp,#0x18]
        0x00000856:    9b01        ..      LDR      r3,[sp,#4]
        0x00000858:    2800        .(      CMP      r0,#0
        0x0000085a:    9a00        ..      LDR      r2,[sp,#0]
        0x0000085c:    9903        ..      LDR      r1,[sp,#0xc]
        0x0000085e:    9802        ..      LDR      r0,[sp,#8]
        0x00000860:    da06        ..      BGE      0x870 ; _fp_value + 256
        0x00000862:    f000fa91    ....    BL       __aeabi_ddiv ; 0xd88
        0x00000866:    4632        2F      MOV      r2,r6
        0x00000868:    9b07        ..      LDR      r3,[sp,#0x1c]
        0x0000086a:    f000fa8d    ....    BL       __aeabi_ddiv ; 0xd88
        0x0000086e:    e005        ..      B        0x87c ; _fp_value + 268
        0x00000870:    f000fa22    ..".    BL       __aeabi_dmul ; 0xcb8
        0x00000874:    4632        2F      MOV      r2,r6
        0x00000876:    9b07        ..      LDR      r3,[sp,#0x1c]
        0x00000878:    f000fa1e    ....    BL       __aeabi_dmul ; 0xcb8
        0x0000087c:    9a04        ..      LDR      r2,[sp,#0x10]
        0x0000087e:    2a00        .*      CMP      r2,#0
        0x00000880:    d002        ..      BEQ      0x888 ; _fp_value + 280
        0x00000882:    2201        ."      MOVS     r2,#1
        0x00000884:    07d2        ..      LSLS     r2,r2,#31
        0x00000886:    4051        Q@      EORS     r1,r1,r2
        0x00000888:    9a09        ..      LDR      r2,[sp,#0x24]
        0x0000088a:    c203        ..      STM      r2!,{r0,r1}
        0x0000088c:    e7b4        ..      B        0x7f8 ; _fp_value + 136
    _scanf_real
    _scanf_really_real
        0x0000088e:    b5ff        ..      PUSH     {r0-r7,lr}
        0x00000890:    b091        ..      SUB      sp,sp,#0x44
        0x00000892:    2000        .       MOVS     r0,#0
        0x00000894:    9009        ..      STR      r0,[sp,#0x24]
        0x00000896:    2500        .%      MOVS     r5,#0
        0x00000898:    43ed        .C      MVNS     r5,r5
        0x0000089a:    202e        .       MOVS     r0,#0x2e
        0x0000089c:    689e        .h      LDR      r6,[r3,#8]
        0x0000089e:    685c        \h      LDR      r4,[r3,#4]
        0x000008a0:    461f        .F      MOV      r7,r3
        0x000008a2:    9001        ..      STR      r0,[sp,#4]
        0x000008a4:    69b9        .i      LDR      r1,[r7,#0x18]
        0x000008a6:    1c6d        m.      ADDS     r5,r5,#1
        0x000008a8:    9812        ..      LDR      r0,[sp,#0x48]
        0x000008aa:    4788        .G      BLX      r1
        0x000008ac:    9000        ..      STR      r0,[sp,#0]
        0x000008ae:    6a39        9j      LDR      r1,[r7,#0x20]
        0x000008b0:    4788        .G      BLX      r1
        0x000008b2:    2800        .(      CMP      r0,#0
        0x000008b4:    d1f6        ..      BNE      0x8a4 ; _scanf_real + 22
        0x000008b6:    9800        ..      LDR      r0,[sp,#0]
        0x000008b8:    1c40        @.      ADDS     r0,r0,#1
        0x000008ba:    d00a        ..      BEQ      0x8d2 ; _scanf_real + 68
        0x000008bc:    200d        .       MOVS     r0,#0xd
        0x000008be:    01c0        ..      LSLS     r0,r0,#7
        0x000008c0:    4384        .C      BICS     r4,r4,r0
        0x000008c2:    2e00        ..      CMP      r6,#0
        0x000008c4:    dd12        ..      BLE      0x8ec ; _scanf_real + 94
        0x000008c6:    9800        ..      LDR      r0,[sp,#0]
        0x000008c8:    282b        +(      CMP      r0,#0x2b
        0x000008ca:    d009        ..      BEQ      0x8e0 ; _scanf_real + 82
        0x000008cc:    282d        -(      CMP      r0,#0x2d
        0x000008ce:    d10d        ..      BNE      0x8ec ; _scanf_real + 94
        0x000008d0:    e003        ..      B        0x8da ; _scanf_real + 76
        0x000008d2:    2000        .       MOVS     r0,#0
        0x000008d4:    43c0        .C      MVNS     r0,r0
        0x000008d6:    b015        ..      ADD      sp,sp,#0x54
        0x000008d8:    bdf0        ..      POP      {r4-r7,pc}
        0x000008da:    2001        .       MOVS     r0,#1
        0x000008dc:    0280        ..      LSLS     r0,r0,#10
        0x000008de:    4304        .C      ORRS     r4,r4,r0
        0x000008e0:    69b9        .i      LDR      r1,[r7,#0x18]
        0x000008e2:    1c6d        m.      ADDS     r5,r5,#1
        0x000008e4:    9812        ..      LDR      r0,[sp,#0x48]
        0x000008e6:    4788        .G      BLX      r1
        0x000008e8:    1e76        v.      SUBS     r6,r6,#1
        0x000008ea:    9000        ..      STR      r0,[sp,#0]
        0x000008ec:    a903        ..      ADD      r1,sp,#0xc
        0x000008ee:    0560        `.      LSLS     r0,r4,#21
        0x000008f0:    d501        ..      BPL      0x8f6 ; _scanf_real + 104
        0x000008f2:    202d        -       MOVS     r0,#0x2d
        0x000008f4:    e000        ..      B        0x8f8 ; _scanf_real + 106
        0x000008f6:    202b        +       MOVS     r0,#0x2b
        0x000008f8:    466a        jF      MOV      r2,sp
        0x000008fa:    7310        .s      STRB     r0,[r2,#0xc]
        0x000008fc:    1c49        I.      ADDS     r1,r1,#1
        0x000008fe:    a80c        ..      ADD      r0,sp,#0x30
        0x00000900:    910f        ..      STR      r1,[sp,#0x3c]
        0x00000902:    9002        ..      STR      r0,[sp,#8]
        0x00000904:    e00a        ..      B        0x91c ; _scanf_real + 142
        0x00000906:    69b9        .i      LDR      r1,[r7,#0x18]
        0x00000908:    1c6d        m.      ADDS     r5,r5,#1
        0x0000090a:    9812        ..      LDR      r0,[sp,#0x48]
        0x0000090c:    4788        .G      BLX      r1
        0x0000090e:    9000        ..      STR      r0,[sp,#0]
        0x00000910:    2001        .       MOVS     r0,#1
        0x00000912:    0240        @.      LSLS     r0,r0,#9
        0x00000914:    4304        .C      ORRS     r4,r4,r0
        0x00000916:    9813        ..      LDR      r0,[sp,#0x4c]
        0x00000918:    1e76        v.      SUBS     r6,r6,#1
        0x0000091a:    6005        .`      STR      r5,[r0,#0]
        0x0000091c:    2e00        ..      CMP      r6,#0
        0x0000091e:    dd02        ..      BLE      0x926 ; _scanf_real + 152
        0x00000920:    9800        ..      LDR      r0,[sp,#0]
        0x00000922:    2830        0(      CMP      r0,#0x30
        0x00000924:    d0ef        ..      BEQ      0x906 ; _scanf_real + 120
        0x00000926:    9901        ..      LDR      r1,[sp,#4]
        0x00000928:    9800        ..      LDR      r0,[sp,#0]
        0x0000092a:    4288        .B      CMP      r0,r1
        0x0000092c:    d145        E.      BNE      0x9ba ; _scanf_real + 300
        0x0000092e:    2080        .       MOVS     r0,#0x80
        0x00000930:    4304        .C      ORRS     r4,r4,r0
        0x00000932:    e008        ..      B        0x946 ; _scanf_real + 184
        0x00000934:    9809        ..      LDR      r0,[sp,#0x24]
        0x00000936:    1e40        @.      SUBS     r0,r0,#1
        0x00000938:    9009        ..      STR      r0,[sp,#0x24]
        0x0000093a:    2001        .       MOVS     r0,#1
        0x0000093c:    0240        @.      LSLS     r0,r0,#9
        0x0000093e:    4304        .C      ORRS     r4,r4,r0
        0x00000940:    9913        ..      LDR      r1,[sp,#0x4c]
        0x00000942:    1c68        h.      ADDS     r0,r5,#1
        0x00000944:    6008        .`      STR      r0,[r1,#0]
        0x00000946:    69b9        .i      LDR      r1,[r7,#0x18]
        0x00000948:    1c6d        m.      ADDS     r5,r5,#1
        0x0000094a:    1e76        v.      SUBS     r6,r6,#1
        0x0000094c:    9812        ..      LDR      r0,[sp,#0x48]
        0x0000094e:    4788        .G      BLX      r1
        0x00000950:    9000        ..      STR      r0,[sp,#0]
        0x00000952:    2830        0(      CMP      r0,#0x30
        0x00000954:    d0ee        ..      BEQ      0x934 ; _scanf_real + 166
        0x00000956:    e030        0.      B        0x9ba ; _scanf_real + 300
        0x00000958:    9901        ..      LDR      r1,[sp,#4]
        0x0000095a:    4288        .B      CMP      r0,r1
        0x0000095c:    d105        ..      BNE      0x96a ; _scanf_real + 220
        0x0000095e:    0620         .      LSLS     r0,r4,#24
        0x00000960:    d403        ..      BMI      0x96a ; _scanf_real + 220
        0x00000962:    2080        .       MOVS     r0,#0x80
        0x00000964:    4304        .C      ORRS     r4,r4,r0
        0x00000966:    1e76        v.      SUBS     r6,r6,#1
        0x00000968:    e01d        ..      B        0x9a6 ; _scanf_real + 280
        0x0000096a:    9800        ..      LDR      r0,[sp,#0]
        0x0000096c:    f003ff68    ..h.    BL       _is_digit ; 0x4840
        0x00000970:    2800        .(      CMP      r0,#0
        0x00000972:    d025        %.      BEQ      0x9c0 ; _scanf_real + 306
        0x00000974:    2101        .!      MOVS     r1,#1
        0x00000976:    0249        I.      LSLS     r1,r1,#9
        0x00000978:    430c        .C      ORRS     r4,r4,r1
        0x0000097a:    9800        ..      LDR      r0,[sp,#0]
        0x0000097c:    aa07        ..      ADD      r2,sp,#0x1c
        0x0000097e:    990f        ..      LDR      r1,[sp,#0x3c]
        0x00000980:    3203        .2      ADDS     r2,#3
        0x00000982:    3830        08      SUBS     r0,r0,#0x30
        0x00000984:    1e76        v.      SUBS     r6,r6,#1
        0x00000986:    4291        .B      CMP      r1,r2
        0x00000988:    d208        ..      BCS      0x99c ; _scanf_real + 270
        0x0000098a:    7008        .p      STRB     r0,[r1,#0]
        0x0000098c:    980f        ..      LDR      r0,[sp,#0x3c]
        0x0000098e:    1c40        @.      ADDS     r0,r0,#1
        0x00000990:    900f        ..      STR      r0,[sp,#0x3c]
        0x00000992:    0620         .      LSLS     r0,r4,#24
        0x00000994:    d507        ..      BPL      0x9a6 ; _scanf_real + 280
        0x00000996:    9809        ..      LDR      r0,[sp,#0x24]
        0x00000998:    1e40        @.      SUBS     r0,r0,#1
        0x0000099a:    e003        ..      B        0x9a4 ; _scanf_real + 278
        0x0000099c:    0620         .      LSLS     r0,r4,#24
        0x0000099e:    d402        ..      BMI      0x9a6 ; _scanf_real + 280
        0x000009a0:    9809        ..      LDR      r0,[sp,#0x24]
        0x000009a2:    1c40        @.      ADDS     r0,r0,#1
        0x000009a4:    9009        ..      STR      r0,[sp,#0x24]
        0x000009a6:    05a0        ..      LSLS     r0,r4,#22
        0x000009a8:    d502        ..      BPL      0x9b0 ; _scanf_real + 290
        0x000009aa:    9913        ..      LDR      r1,[sp,#0x4c]
        0x000009ac:    1c68        h.      ADDS     r0,r5,#1
        0x000009ae:    6008        .`      STR      r0,[r1,#0]
        0x000009b0:    69b9        .i      LDR      r1,[r7,#0x18]
        0x000009b2:    1c6d        m.      ADDS     r5,r5,#1
        0x000009b4:    9812        ..      LDR      r0,[sp,#0x48]
        0x000009b6:    4788        .G      BLX      r1
        0x000009b8:    9000        ..      STR      r0,[sp,#0]
        0x000009ba:    2e00        ..      CMP      r6,#0
        0x000009bc:    dccc        ..      BGT      0x958 ; _scanf_real + 202
        0x000009be:    e059        Y.      B        0xa74 ; _scanf_real + 486
        0x000009c0:    2e00        ..      CMP      r6,#0
        0x000009c2:    dd57        W.      BLE      0xa74 ; _scanf_real + 486
        0x000009c4:    9800        ..      LDR      r0,[sp,#0]
        0x000009c6:    2865        e(      CMP      r0,#0x65
        0x000009c8:    d001        ..      BEQ      0x9ce ; _scanf_real + 320
        0x000009ca:    2845        E(      CMP      r0,#0x45
        0x000009cc:    d152        R.      BNE      0xa74 ; _scanf_real + 486
        0x000009ce:    05a0        ..      LSLS     r0,r4,#22
        0x000009d0:    d550        P.      BPL      0xa74 ; _scanf_real + 486
        0x000009d2:    2003        .       MOVS     r0,#3
        0x000009d4:    0200        ..      LSLS     r0,r0,#8
        0x000009d6:    4384        .C      BICS     r4,r4,r0
        0x000009d8:    69b9        .i      LDR      r1,[r7,#0x18]
        0x000009da:    1c6d        m.      ADDS     r5,r5,#1
        0x000009dc:    1e76        v.      SUBS     r6,r6,#1
        0x000009de:    9812        ..      LDR      r0,[sp,#0x48]
        0x000009e0:    4788        .G      BLX      r1
        0x000009e2:    9000        ..      STR      r0,[sp,#0]
        0x000009e4:    2e00        ..      CMP      r6,#0
        0x000009e6:    dd0c        ..      BLE      0xa02 ; _scanf_real + 372
        0x000009e8:    282b        +(      CMP      r0,#0x2b
        0x000009ea:    d004        ..      BEQ      0x9f6 ; _scanf_real + 360
        0x000009ec:    282d        -(      CMP      r0,#0x2d
        0x000009ee:    d108        ..      BNE      0xa02 ; _scanf_real + 372
        0x000009f0:    20ff        .       MOVS     r0,#0xff
        0x000009f2:    3001        .0      ADDS     r0,#1
        0x000009f4:    4304        .C      ORRS     r4,r4,r0
        0x000009f6:    69b9        .i      LDR      r1,[r7,#0x18]
        0x000009f8:    1c6d        m.      ADDS     r5,r5,#1
        0x000009fa:    9812        ..      LDR      r0,[sp,#0x48]
        0x000009fc:    4788        .G      BLX      r1
        0x000009fe:    1e76        v.      SUBS     r6,r6,#1
        0x00000a00:    9000        ..      STR      r0,[sp,#0]
        0x00000a02:    05e0        ..      LSLS     r0,r4,#23
        0x00000a04:    d501        ..      BPL      0xa0a ; _scanf_real + 380
        0x00000a06:    212d        -!      MOVS     r1,#0x2d
        0x00000a08:    e000        ..      B        0xa0c ; _scanf_real + 382
        0x00000a0a:    212b        +!      MOVS     r1,#0x2b
        0x00000a0c:    9802        ..      LDR      r0,[sp,#8]
        0x00000a0e:    7001        .p      STRB     r1,[r0,#0]
        0x00000a10:    9802        ..      LDR      r0,[sp,#8]
        0x00000a12:    1c40        @.      ADDS     r0,r0,#1
        0x00000a14:    9002        ..      STR      r0,[sp,#8]
        0x00000a16:    9001        ..      STR      r0,[sp,#4]
        0x00000a18:    e025        %.      B        0xa66 ; _scanf_real + 472
        0x00000a1a:    2001        .       MOVS     r0,#1
        0x00000a1c:    0240        @.      LSLS     r0,r0,#9
        0x00000a1e:    4304        .C      ORRS     r4,r4,r0
        0x00000a20:    a90e        ..      ADD      r1,sp,#0x38
        0x00000a22:    9802        ..      LDR      r0,[sp,#8]
        0x00000a24:    3101        .1      ADDS     r1,#1
        0x00000a26:    1e76        v.      SUBS     r6,r6,#1
        0x00000a28:    4288        .B      CMP      r0,r1
        0x00000a2a:    d20e        ..      BCS      0xa4a ; _scanf_real + 444
        0x00000a2c:    9800        ..      LDR      r0,[sp,#0]
        0x00000a2e:    9902        ..      LDR      r1,[sp,#8]
        0x00000a30:    3830        08      SUBS     r0,r0,#0x30
        0x00000a32:    0600        ..      LSLS     r0,r0,#24
        0x00000a34:    0e00        ..      LSRS     r0,r0,#24
        0x00000a36:    7008        .p      STRB     r0,[r1,#0]
        0x00000a38:    d103        ..      BNE      0xa42 ; _scanf_real + 436
        0x00000a3a:    9902        ..      LDR      r1,[sp,#8]
        0x00000a3c:    9801        ..      LDR      r0,[sp,#4]
        0x00000a3e:    4281        .B      CMP      r1,r0
        0x00000a40:    d90a        ..      BLS      0xa58 ; _scanf_real + 458
        0x00000a42:    9802        ..      LDR      r0,[sp,#8]
        0x00000a44:    1c40        @.      ADDS     r0,r0,#1
        0x00000a46:    9002        ..      STR      r0,[sp,#8]
        0x00000a48:    e006        ..      B        0xa58 ; _scanf_real + 458
        0x00000a4a:    05e0        ..      LSLS     r0,r4,#23
        0x00000a4c:    d501        ..      BPL      0xa52 ; _scanf_real + 452
        0x00000a4e:    4824        $H      LDR      r0,[pc,#144] ; [0xae0] = 0xffffd8f1
        0x00000a50:    e001        ..      B        0xa56 ; _scanf_real + 456
        0x00000a52:    4823        #H      LDR      r0,[pc,#140] ; [0xae0] = 0xffffd8f1
        0x00000a54:    4240        @B      RSBS     r0,r0,#0
        0x00000a56:    9009        ..      STR      r0,[sp,#0x24]
        0x00000a58:    69b9        .i      LDR      r1,[r7,#0x18]
        0x00000a5a:    1c6d        m.      ADDS     r5,r5,#1
        0x00000a5c:    9812        ..      LDR      r0,[sp,#0x48]
        0x00000a5e:    4788        .G      BLX      r1
        0x00000a60:    9000        ..      STR      r0,[sp,#0]
        0x00000a62:    9813        ..      LDR      r0,[sp,#0x4c]
        0x00000a64:    6005        .`      STR      r5,[r0,#0]
        0x00000a66:    2e00        ..      CMP      r6,#0
        0x00000a68:    dd04        ..      BLE      0xa74 ; _scanf_real + 486
        0x00000a6a:    9800        ..      LDR      r0,[sp,#0]
        0x00000a6c:    f003fee8    ....    BL       _is_digit ; 0x4840
        0x00000a70:    2800        .(      CMP      r0,#0
        0x00000a72:    d1d2        ..      BNE      0xa1a ; _scanf_real + 396
        0x00000a74:    69f9        .i      LDR      r1,[r7,#0x1c]
        0x00000a76:    9812        ..      LDR      r0,[sp,#0x48]
        0x00000a78:    4788        .G      BLX      r1
        0x00000a7a:    990f        ..      LDR      r1,[sp,#0x3c]
        0x00000a7c:    20ff        .       MOVS     r0,#0xff
        0x00000a7e:    7008        .p      STRB     r0,[r1,#0]
        0x00000a80:    9902        ..      LDR      r1,[sp,#8]
        0x00000a82:    aa03        ..      ADD      r2,sp,#0xc
        0x00000a84:    7008        .p      STRB     r0,[r1,#0]
        0x00000a86:    2000        .       MOVS     r0,#0
        0x00000a88:    900a        ..      STR      r0,[sp,#0x28]
        0x00000a8a:    900b        ..      STR      r0,[sp,#0x2c]
        0x00000a8c:    a90c        ..      ADD      r1,sp,#0x30
        0x00000a8e:    a80a        ..      ADD      r0,sp,#0x28
        0x00000a90:    9b09        ..      LDR      r3,[sp,#0x24]
        0x00000a92:    f7fffe6d    ..m.    BL       _fp_value ; 0x770
        0x00000a96:    05a0        ..      LSLS     r0,r4,#22
        0x00000a98:    d402        ..      BMI      0xaa0 ; _scanf_real + 530
        0x00000a9a:    2001        .       MOVS     r0,#1
        0x00000a9c:    43c0        .C      MVNS     r0,r0
        0x00000a9e:    e71a        ..      B        0x8d6 ; _scanf_real + 72
        0x00000aa0:    2024        $       MOVS     r0,#0x24
        0x00000aa2:    4204        .B      TST      r4,r0
        0x00000aa4:    d009        ..      BEQ      0xaba ; _scanf_real + 556
        0x00000aa6:    07e0        ..      LSLS     r0,r4,#31
        0x00000aa8:    d113        ..      BNE      0xad2 ; _scanf_real + 580
        0x00000aaa:    6838        8h      LDR      r0,[r7,#0]
        0x00000aac:    9a0b        ..      LDR      r2,[sp,#0x2c]
        0x00000aae:    990a        ..      LDR      r1,[sp,#0x28]
        0x00000ab0:    1d03        ..      ADDS     r3,r0,#4
        0x00000ab2:    603b        ;`      STR      r3,[r7,#0]
        0x00000ab4:    6800        .h      LDR      r0,[r0,#0]
        0x00000ab6:    c006        ..      STM      r0!,{r1,r2}
        0x00000ab8:    e00b        ..      B        0xad2 ; _scanf_real + 580
        0x00000aba:    990b        ..      LDR      r1,[sp,#0x2c]
        0x00000abc:    980a        ..      LDR      r0,[sp,#0x28]
        0x00000abe:    f000fc8b    ....    BL       __aeabi_d2f ; 0x13d8
        0x00000ac2:    4601        .F      MOV      r1,r0
        0x00000ac4:    07e0        ..      LSLS     r0,r4,#31
        0x00000ac6:    d104        ..      BNE      0xad2 ; _scanf_real + 580
        0x00000ac8:    6838        8h      LDR      r0,[r7,#0]
        0x00000aca:    1d02        ..      ADDS     r2,r0,#4
        0x00000acc:    603a        :`      STR      r2,[r7,#0]
        0x00000ace:    6800        .h      LDR      r0,[r0,#0]
        0x00000ad0:    6001        .`      STR      r1,[r0,#0]
        0x00000ad2:    4628        (F      MOV      r0,r5
        0x00000ad4:    e6ff        ..      B        0x8d6 ; _scanf_real + 72
    $d
        0x00000ad6:    0000        ..      DCW    0
        0x00000ad8:    40140000    ...@    DCD    1075052544
        0x00000adc:    3ff00000    ...?    DCD    1072693248
        0x00000ae0:    ffffd8f1    ....    DCD    4294957297
    $t
    .text
    _scanf_char_input
        0x00000ae4:    6802        .h      LDR      r2,[r0,#0]
        0x00000ae6:    7813        .x      LDRB     r3,[r2,#0]
        0x00000ae8:    1851        Q.      ADDS     r1,r2,r1
        0x00000aea:    6001        .`      STR      r1,[r0,#0]
        0x00000aec:    4618        .F      MOV      r0,r3
        0x00000aee:    4770        pG      BX       lr
    __vfscanf_char
        0x00000af0:    b510        ..      PUSH     {r4,lr}
        0x00000af2:    60d1        .`      STR      r1,[r2,#0xc]
        0x00000af4:    4904        .I      LDR      r1,[pc,#16] ; [0xb08] = 0xae5
        0x00000af6:    6151        Qa      STR      r1,[r2,#0x14]
        0x00000af8:    4904        .I      LDR      r1,[pc,#16] ; [0xb0c] = 0xf99
        0x00000afa:    6211        .b      STR      r1,[r2,#0x20]
        0x00000afc:    2100        .!      MOVS     r1,#0
        0x00000afe:    6111        .a      STR      r1,[r2,#0x10]
        0x00000b00:    4611        .F      MOV      r1,r2
        0x00000b02:    f000fa5f    .._.    BL       __vfscanf ; 0xfc4
        0x00000b06:    bd10        ..      POP      {r4,pc}
    $d
        0x00000b08:    00000ae5    ....    DCD    2789
        0x00000b0c:    00000f99    ....    DCD    3993
    $t
    .text
    _sgetc
        0x00000b10:    6842        Bh      LDR      r2,[r0,#4]
        0x00000b12:    2a00        .*      CMP      r2,#0
        0x00000b14:    d008        ..      BEQ      0xb28 ; _sgetc + 24
        0x00000b16:    6801        .h      LDR      r1,[r0,#0]
        0x00000b18:    780b        .x      LDRB     r3,[r1,#0]
        0x00000b1a:    1c49        I.      ADDS     r1,r1,#1
        0x00000b1c:    2b00        .+      CMP      r3,#0
        0x00000b1e:    d003        ..      BEQ      0xb28 ; _sgetc + 24
        0x00000b20:    1e52        R.      SUBS     r2,r2,#1
        0x00000b22:    c006        ..      STM      r0!,{r1,r2}
        0x00000b24:    4618        .F      MOV      r0,r3
        0x00000b26:    4770        pG      BX       lr
        0x00000b28:    2101        .!      MOVS     r1,#1
        0x00000b2a:    60c1        .`      STR      r1,[r0,#0xc]
        0x00000b2c:    1e88        ..      SUBS     r0,r1,#2
        0x00000b2e:    4770        pG      BX       lr
    _sbackspace
        0x00000b30:    6842        Bh      LDR      r2,[r0,#4]
        0x00000b32:    2a00        .*      CMP      r2,#0
        0x00000b34:    d00b        ..      BEQ      0xb4e ; _sbackspace + 30
        0x00000b36:    68c3        .h      LDR      r3,[r0,#0xc]
        0x00000b38:    6801        .h      LDR      r1,[r0,#0]
        0x00000b3a:    2b00        .+      CMP      r3,#0
        0x00000b3c:    d107        ..      BNE      0xb4e ; _sbackspace + 30
        0x00000b3e:    6883        .h      LDR      r3,[r0,#8]
        0x00000b40:    428b        .B      CMP      r3,r1
        0x00000b42:    d004        ..      BEQ      0xb4e ; _sbackspace + 30
        0x00000b44:    1e49        I.      SUBS     r1,r1,#1
        0x00000b46:    1c52        R.      ADDS     r2,r2,#1
        0x00000b48:    c006        ..      STM      r0!,{r1,r2}
        0x00000b4a:    2000        .       MOVS     r0,#0
        0x00000b4c:    4770        pG      BX       lr
        0x00000b4e:    2000        .       MOVS     r0,#0
        0x00000b50:    43c0        .C      MVNS     r0,r0
        0x00000b52:    4770        pG      BX       lr
    .text
    .text
    __I$use$fp
    __aeabi_dadd
        0x00000b54:    b5f0        ..      PUSH     {r4-r7,lr}
        0x00000b56:    4607        .F      MOV      r7,r0
        0x00000b58:    4608        .F      MOV      r0,r1
        0x00000b5a:    4058        X@      EORS     r0,r0,r3
        0x00000b5c:    b087        ..      SUB      sp,sp,#0x1c
        0x00000b5e:    0fc0        ..      LSRS     r0,r0,#31
        0x00000b60:    9004        ..      STR      r0,[sp,#0x10]
        0x00000b62:    0048        H.      LSLS     r0,r1,#1
        0x00000b64:    460e        .F      MOV      r6,r1
        0x00000b66:    0059        Y.      LSLS     r1,r3,#1
        0x00000b68:    0840        @.      LSRS     r0,r0,#1
        0x00000b6a:    0849        I.      LSRS     r1,r1,#1
        0x00000b6c:    1abc        ..      SUBS     r4,r7,r2
        0x00000b6e:    4188        .A      SBCS     r0,r0,r1
        0x00000b70:    d205        ..      BCS      0xb7e ; __I$use$fp + 42
        0x00000b72:    4638        8F      MOV      r0,r7
        0x00000b74:    4631        1F      MOV      r1,r6
        0x00000b76:    461e        .F      MOV      r6,r3
        0x00000b78:    4617        .F      MOV      r7,r2
        0x00000b7a:    460b        .F      MOV      r3,r1
        0x00000b7c:    4602        .F      MOV      r2,r0
        0x00000b7e:    0058        X.      LSLS     r0,r3,#1
        0x00000b80:    0840        @.      LSRS     r0,r0,#1
        0x00000b82:    4310        .C      ORRS     r0,r0,r2
        0x00000b84:    d04c        L.      BEQ      0xc20 ; __I$use$fp + 204
        0x00000b86:    0d30        0.      LSRS     r0,r6,#20
        0x00000b88:    9003        ..      STR      r0,[sp,#0xc]
        0x00000b8a:    0540        @.      LSLS     r0,r0,#21
        0x00000b8c:    0059        Y.      LSLS     r1,r3,#1
        0x00000b8e:    0d40        @.      LSRS     r0,r0,#21
        0x00000b90:    0d49        I.      LSRS     r1,r1,#21
        0x00000b92:    9005        ..      STR      r0,[sp,#0x14]
        0x00000b94:    1a40        @.      SUBS     r0,r0,r1
        0x00000b96:    9002        ..      STR      r0,[sp,#8]
        0x00000b98:    2840        @(      CMP      r0,#0x40
        0x00000b9a:    da72        r.      BGE      0xc82 ; __I$use$fp + 302
        0x00000b9c:    0318        ..      LSLS     r0,r3,#12
        0x00000b9e:    2101        .!      MOVS     r1,#1
        0x00000ba0:    0b00        ..      LSRS     r0,r0,#12
        0x00000ba2:    0509        ..      LSLS     r1,r1,#20
        0x00000ba4:    4308        .C      ORRS     r0,r0,r1
        0x00000ba6:    9001        ..      STR      r0,[sp,#4]
        0x00000ba8:    9804        ..      LDR      r0,[sp,#0x10]
        0x00000baa:    9200        ..      STR      r2,[sp,#0]
        0x00000bac:    2800        .(      CMP      r0,#0
        0x00000bae:    d005        ..      BEQ      0xbbc ; __I$use$fp + 104
        0x00000bb0:    9901        ..      LDR      r1,[sp,#4]
        0x00000bb2:    4252        RB      RSBS     r2,r2,#0
        0x00000bb4:    2000        .       MOVS     r0,#0
        0x00000bb6:    4188        .A      SBCS     r0,r0,r1
        0x00000bb8:    9200        ..      STR      r2,[sp,#0]
        0x00000bba:    9001        ..      STR      r0,[sp,#4]
        0x00000bbc:    9802        ..      LDR      r0,[sp,#8]
        0x00000bbe:    2140        @!      MOVS     r1,#0x40
        0x00000bc0:    1a0a        ..      SUBS     r2,r1,r0
        0x00000bc2:    9901        ..      LDR      r1,[sp,#4]
        0x00000bc4:    9800        ..      LDR      r0,[sp,#0]
        0x00000bc6:    f7fffb61    ..a.    BL       __aeabi_llsl ; 0x28c
        0x00000bca:    4605        .F      MOV      r5,r0
        0x00000bcc:    460c        .F      MOV      r4,r1
        0x00000bce:    466b        kF      MOV      r3,sp
        0x00000bd0:    cb07        ..      LDM      r3!,{r0-r2}
        0x00000bd2:    f000f9ce    ....    BL       __aeabi_lasr ; 0xf72
        0x00000bd6:    19c0        ..      ADDS     r0,r0,r7
        0x00000bd8:    4171        qA      ADCS     r1,r1,r6
        0x00000bda:    9a03        ..      LDR      r2,[sp,#0xc]
        0x00000bdc:    0d0e        ..      LSRS     r6,r1,#20
        0x00000bde:    2300        .#      MOVS     r3,#0
        0x00000be0:    17d7        ..      ASRS     r7,r2,#31
        0x00000be2:    4056        V@      EORS     r6,r6,r2
        0x00000be4:    461a        .F      MOV      r2,r3
        0x00000be6:    407a        z@      EORS     r2,r2,r7
        0x00000be8:    4316        .C      ORRS     r6,r6,r2
        0x00000bea:    d044        D.      BEQ      0xc76 ; __I$use$fp + 290
        0x00000bec:    9a04        ..      LDR      r2,[sp,#0x10]
        0x00000bee:    2a00        .*      CMP      r2,#0
        0x00000bf0:    d02d        -.      BEQ      0xc4e ; __I$use$fp + 250
        0x00000bf2:    9a02        ..      LDR      r2,[sp,#8]
        0x00000bf4:    2a01        .*      CMP      r2,#1
        0x00000bf6:    9a03        ..      LDR      r2,[sp,#0xc]
        0x00000bf8:    dc15        ..      BGT      0xc26 ; __I$use$fp + 210
        0x00000bfa:    0512        ..      LSLS     r2,r2,#20
        0x00000bfc:    1ac0        ..      SUBS     r0,r0,r3
        0x00000bfe:    4191        .A      SBCS     r1,r1,r2
        0x00000c00:    2601        .&      MOVS     r6,#1
        0x00000c02:    0536        6.      LSLS     r6,r6,#20
        0x00000c04:    1c00        ..      ADDS     r0,r0,#0
        0x00000c06:    4171        qA      ADCS     r1,r1,r6
        0x00000c08:    0fd2        ..      LSRS     r2,r2,#31
        0x00000c0a:    9e05        ..      LDR      r6,[sp,#0x14]
        0x00000c0c:    07d2        ..      LSLS     r2,r2,#31
        0x00000c0e:    9300        ..      STR      r3,[sp,#0]
        0x00000c10:    9201        ..      STR      r2,[sp,#4]
        0x00000c12:    9602        ..      STR      r6,[sp,#8]
        0x00000c14:    462a        *F      MOV      r2,r5
        0x00000c16:    4623        #F      MOV      r3,r4
        0x00000c18:    f000fb7d    ..}.    BL       _double_epilogue ; 0x1316
        0x00000c1c:    b007        ..      ADD      sp,sp,#0x1c
        0x00000c1e:    bdf0        ..      POP      {r4-r7,pc}
        0x00000c20:    4638        8F      MOV      r0,r7
        0x00000c22:    4631        1F      MOV      r1,r6
        0x00000c24:    e7fa        ..      B        0xc1c ; __I$use$fp + 200
        0x00000c26:    0516        ..      LSLS     r6,r2,#20
        0x00000c28:    4a22        "J      LDR      r2,[pc,#136] ; [0xcb4] = 0xffe00000
        0x00000c2a:    460f        .F      MOV      r7,r1
        0x00000c2c:    18b2        ..      ADDS     r2,r6,r2
        0x00000c2e:    1ac0        ..      SUBS     r0,r0,r3
        0x00000c30:    41b7        .A      SBCS     r7,r7,r6
        0x00000c32:    2101        .!      MOVS     r1,#1
        0x00000c34:    0509        ..      LSLS     r1,r1,#20
        0x00000c36:    1c00        ..      ADDS     r0,r0,#0
        0x00000c38:    414f        OA      ADCS     r7,r7,r1
        0x00000c3a:    1800        ..      ADDS     r0,r0,r0
        0x00000c3c:    417f        .A      ADCS     r7,r7,r7
        0x00000c3e:    4611        .F      MOV      r1,r2
        0x00000c40:    1818        ..      ADDS     r0,r3,r0
        0x00000c42:    4179        yA      ADCS     r1,r1,r7
        0x00000c44:    0fe2        ..      LSRS     r2,r4,#31
        0x00000c46:    4310        .C      ORRS     r0,r0,r2
        0x00000c48:    196d        m.      ADDS     r5,r5,r5
        0x00000c4a:    4164        dA      ADCS     r4,r4,r4
        0x00000c4c:    e013        ..      B        0xc76 ; __I$use$fp + 290
        0x00000c4e:    07e2        ..      LSLS     r2,r4,#31
        0x00000c50:    086d        m.      LSRS     r5,r5,#1
        0x00000c52:    4315        .C      ORRS     r5,r5,r2
        0x00000c54:    0864        d.      LSRS     r4,r4,#1
        0x00000c56:    07c2        ..      LSLS     r2,r0,#31
        0x00000c58:    4314        .C      ORRS     r4,r4,r2
        0x00000c5a:    9a03        ..      LDR      r2,[sp,#0xc]
        0x00000c5c:    2601        .&      MOVS     r6,#1
        0x00000c5e:    0512        ..      LSLS     r2,r2,#20
        0x00000c60:    1ac0        ..      SUBS     r0,r0,r3
        0x00000c62:    4191        .A      SBCS     r1,r1,r2
        0x00000c64:    0536        6.      LSLS     r6,r6,#20
        0x00000c66:    1c00        ..      ADDS     r0,r0,#0
        0x00000c68:    4171        qA      ADCS     r1,r1,r6
        0x00000c6a:    07ce        ..      LSLS     r6,r1,#31
        0x00000c6c:    0840        @.      LSRS     r0,r0,#1
        0x00000c6e:    4330        0C      ORRS     r0,r0,r6
        0x00000c70:    0849        I.      LSRS     r1,r1,#1
        0x00000c72:    18c0        ..      ADDS     r0,r0,r3
        0x00000c74:    4151        QA      ADCS     r1,r1,r2
        0x00000c76:    462a        *F      MOV      r2,r5
        0x00000c78:    4623        #F      MOV      r3,r4
        0x00000c7a:    f000fb3f    ..?.    BL       _double_round ; 0x12fc
        0x00000c7e:    e7cd        ..      B        0xc1c ; __I$use$fp + 200
        0x00000c80:    e7ff        ..      B        0xc82 ; __I$use$fp + 302
        0x00000c82:    9804        ..      LDR      r0,[sp,#0x10]
        0x00000c84:    2201        ."      MOVS     r2,#1
        0x00000c86:    0040        @.      LSLS     r0,r0,#1
        0x00000c88:    17c1        ..      ASRS     r1,r0,#31
        0x00000c8a:    1a12        ..      SUBS     r2,r2,r0
        0x00000c8c:    2300        .#      MOVS     r3,#0
        0x00000c8e:    418b        .A      SBCS     r3,r3,r1
        0x00000c90:    9804        ..      LDR      r0,[sp,#0x10]
        0x00000c92:    4631        1F      MOV      r1,r6
        0x00000c94:    17c4        ..      ASRS     r4,r0,#31
        0x00000c96:    1a38        8.      SUBS     r0,r7,r0
        0x00000c98:    41a1        .A      SBCS     r1,r1,r4
        0x00000c9a:    e7ee        ..      B        0xc7a ; __I$use$fp + 294
    __aeabi_dsub
        0x00000c9c:    b430        0.      PUSH     {r4,r5}
        0x00000c9e:    2401        .$      MOVS     r4,#1
        0x00000ca0:    07e4        ..      LSLS     r4,r4,#31
        0x00000ca2:    4063        c@      EORS     r3,r3,r4
        0x00000ca4:    bc30        0.      POP      {r4,r5}
        0x00000ca6:    e755        U.      B        __I$use$fp ; 0xb54
    __aeabi_drsub
        0x00000ca8:    b430        0.      PUSH     {r4,r5}
        0x00000caa:    2401        .$      MOVS     r4,#1
        0x00000cac:    07e4        ..      LSLS     r4,r4,#31
        0x00000cae:    4061        a@      EORS     r1,r1,r4
        0x00000cb0:    bc30        0.      POP      {r4,r5}
        0x00000cb2:    e74f        O.      B        __I$use$fp ; 0xb54
    $d
        0x00000cb4:    ffe00000    ....    DCD    4292870144
    $t
    .text
    __aeabi_dmul
        0x00000cb8:    b5f0        ..      PUSH     {r4-r7,lr}
        0x00000cba:    b41f        ..      PUSH     {r0-r4}
        0x00000cbc:    b088        ..      SUB      sp,sp,#0x20
        0x00000cbe:    990b        ..      LDR      r1,[sp,#0x2c]
        0x00000cc0:    9809        ..      LDR      r0,[sp,#0x24]
        0x00000cc2:    2400        .$      MOVS     r4,#0
        0x00000cc4:    4048        H@      EORS     r0,r0,r1
        0x00000cc6:    9909        ..      LDR      r1,[sp,#0x24]
        0x00000cc8:    0fc0        ..      LSRS     r0,r0,#31
        0x00000cca:    0049        I.      LSLS     r1,r1,#1
        0x00000ccc:    0849        I.      LSRS     r1,r1,#1
        0x00000cce:    9109        ..      STR      r1,[sp,#0x24]
        0x00000cd0:    07c0        ..      LSLS     r0,r0,#31
        0x00000cd2:    990b        ..      LDR      r1,[sp,#0x2c]
        0x00000cd4:    9000        ..      STR      r0,[sp,#0]
        0x00000cd6:    0049        I.      LSLS     r1,r1,#1
        0x00000cd8:    0849        I.      LSRS     r1,r1,#1
        0x00000cda:    910b        ..      STR      r1,[sp,#0x2c]
        0x00000cdc:    9909        ..      LDR      r1,[sp,#0x24]
        0x00000cde:    9808        ..      LDR      r0,[sp,#0x20]
        0x00000ce0:    46a6        .F      MOV      lr,r4
        0x00000ce2:    4308        .C      ORRS     r0,r0,r1
        0x00000ce4:    d01c        ..      BEQ      0xd20 ; __aeabi_dmul + 104
        0x00000ce6:    990b        ..      LDR      r1,[sp,#0x2c]
        0x00000ce8:    980a        ..      LDR      r0,[sp,#0x28]
        0x00000cea:    4308        .C      ORRS     r0,r0,r1
        0x00000cec:    d018        ..      BEQ      0xd20 ; __aeabi_dmul + 104
        0x00000cee:    9809        ..      LDR      r0,[sp,#0x24]
        0x00000cf0:    2401        .$      MOVS     r4,#1
        0x00000cf2:    0040        @.      LSLS     r0,r0,#1
        0x00000cf4:    0d42        B.      LSRS     r2,r0,#21
        0x00000cf6:    0048        H.      LSLS     r0,r1,#1
        0x00000cf8:    0d41        A.      LSRS     r1,r0,#21
        0x00000cfa:    9809        ..      LDR      r0,[sp,#0x24]
        0x00000cfc:    0524        $.      LSLS     r4,r4,#20
        0x00000cfe:    0300        ..      LSLS     r0,r0,#12
        0x00000d00:    0b00        ..      LSRS     r0,r0,#12
        0x00000d02:    4320         C      ORRS     r0,r0,r4
        0x00000d04:    9009        ..      STR      r0,[sp,#0x24]
        0x00000d06:    980b        ..      LDR      r0,[sp,#0x2c]
        0x00000d08:    0300        ..      LSLS     r0,r0,#12
        0x00000d0a:    0b00        ..      LSRS     r0,r0,#12
        0x00000d0c:    4320         C      ORRS     r0,r0,r4
        0x00000d0e:    900b        ..      STR      r0,[sp,#0x2c]
        0x00000d10:    1850        P.      ADDS     r0,r2,r1
        0x00000d12:    491c        .I      LDR      r1,[pc,#112] ; [0xd84] = 0xfffffc0d
        0x00000d14:    1840        @.      ADDS     r0,r0,r1
        0x00000d16:    2200        ."      MOVS     r2,#0
        0x00000d18:    9001        ..      STR      r0,[sp,#4]
        0x00000d1a:    4614        .F      MOV      r4,r2
        0x00000d1c:    4610        .F      MOV      r0,r2
        0x00000d1e:    e005        ..      B        0xd2c ; __aeabi_dmul + 116
        0x00000d20:    2000        .       MOVS     r0,#0
        0x00000d22:    4601        .F      MOV      r1,r0
        0x00000d24:    b00d        ..      ADD      sp,sp,#0x34
        0x00000d26:    bdf0        ..      POP      {r4-r7,pc}
        0x00000d28:    2803        .(      CMP      r0,#3
        0x00000d2a:    da01        ..      BGE      0xd30 ; __aeabi_dmul + 120
        0x00000d2c:    4603        .F      MOV      r3,r0
        0x00000d2e:    e000        ..      B        0xd32 ; __aeabi_dmul + 122
        0x00000d30:    2303        .#      MOVS     r3,#3
        0x00000d32:    469c        .F      MOV      r12,r3
        0x00000d34:    1ac1        ..      SUBS     r1,r0,r3
        0x00000d36:    ae0a        ..      ADD      r6,sp,#0x28
        0x00000d38:    e00a        ..      B        0xd50 ; __aeabi_dmul + 152
        0x00000d3a:    005f        _.      LSLS     r7,r3,#1
        0x00000d3c:    ad08        ..      ADD      r5,sp,#0x20
        0x00000d3e:    5bed        .[      LDRH     r5,[r5,r7]
        0x00000d40:    004f        O.      LSLS     r7,r1,#1
        0x00000d42:    5bf7        .[      LDRH     r7,[r6,r7]
        0x00000d44:    437d        }C      MULS     r5,r7,r5
        0x00000d46:    2700        .'      MOVS     r7,#0
        0x00000d48:    18aa        ..      ADDS     r2,r5,r2
        0x00000d4a:    417c        |A      ADCS     r4,r4,r7
        0x00000d4c:    1c49        I.      ADDS     r1,r1,#1
        0x00000d4e:    1e5b        [.      SUBS     r3,r3,#1
        0x00000d50:    4561        aE      CMP      r1,r12
        0x00000d52:    ddf2        ..      BLE      0xd3a ; __aeabi_dmul + 130
        0x00000d54:    0041        A.      LSLS     r1,r0,#1
        0x00000d56:    ab04        ..      ADD      r3,sp,#0x10
        0x00000d58:    525a        ZR      STRH     r2,[r3,r1]
        0x00000d5a:    0421        !.      LSLS     r1,r4,#16
        0x00000d5c:    0c12        ..      LSRS     r2,r2,#16
        0x00000d5e:    430a        .C      ORRS     r2,r2,r1
        0x00000d60:    0c24        $.      LSRS     r4,r4,#16
        0x00000d62:    1c40        @.      ADDS     r0,r0,#1
        0x00000d64:    2808        .(      CMP      r0,#8
        0x00000d66:    dbdf        ..      BLT      0xd28 ; __aeabi_dmul + 112
        0x00000d68:    9801        ..      LDR      r0,[sp,#4]
        0x00000d6a:    9002        ..      STR      r0,[sp,#8]
        0x00000d6c:    9900        ..      LDR      r1,[sp,#0]
        0x00000d6e:    4670        pF      MOV      r0,lr
        0x00000d70:    9101        ..      STR      r1,[sp,#4]
        0x00000d72:    9000        ..      STR      r0,[sp,#0]
        0x00000d74:    9b05        ..      LDR      r3,[sp,#0x14]
        0x00000d76:    9a04        ..      LDR      r2,[sp,#0x10]
        0x00000d78:    9907        ..      LDR      r1,[sp,#0x1c]
        0x00000d7a:    9806        ..      LDR      r0,[sp,#0x18]
        0x00000d7c:    f000facb    ....    BL       _double_epilogue ; 0x1316
        0x00000d80:    e7d0        ..      B        0xd24 ; __aeabi_dmul + 108
    $d
        0x00000d82:    0000        ..      DCW    0
        0x00000d84:    fffffc0d    ....    DCD    4294966285
    $t
    .text
    __aeabi_ddiv
        0x00000d88:    b5f0        ..      PUSH     {r4-r7,lr}
        0x00000d8a:    460c        .F      MOV      r4,r1
        0x00000d8c:    405c        \@      EORS     r4,r4,r3
        0x00000d8e:    b085        ..      SUB      sp,sp,#0x14
        0x00000d90:    0fe4        ..      LSRS     r4,r4,#31
        0x00000d92:    07e4        ..      LSLS     r4,r4,#31
        0x00000d94:    9403        ..      STR      r4,[sp,#0xc]
        0x00000d96:    004c        L.      LSLS     r4,r1,#1
        0x00000d98:    2600        .&      MOVS     r6,#0
        0x00000d9a:    0864        d.      LSRS     r4,r4,#1
        0x00000d9c:    0059        Y.      LSLS     r1,r3,#1
        0x00000d9e:    4694        .F      MOV      r12,r2
        0x00000da0:    0849        I.      LSRS     r1,r1,#1
        0x00000da2:    4602        .F      MOV      r2,r0
        0x00000da4:    9602        ..      STR      r6,[sp,#8]
        0x00000da6:    4322        "C      ORRS     r2,r2,r4
        0x00000da8:    d021        !.      BEQ      0xdee ; __aeabi_ddiv + 102
        0x00000daa:    4662        bF      MOV      r2,r12
        0x00000dac:    430a        .C      ORRS     r2,r2,r1
        0x00000dae:    d01e        ..      BEQ      0xdee ; __aeabi_ddiv + 102
        0x00000db0:    0062        b.      LSLS     r2,r4,#1
        0x00000db2:    0d57        W.      LSRS     r7,r2,#21
        0x00000db4:    004a        J.      LSLS     r2,r1,#1
        0x00000db6:    030e        ..      LSLS     r6,r1,#12
        0x00000db8:    0323        #.      LSLS     r3,r4,#12
        0x00000dba:    0d55        U.      LSRS     r5,r2,#21
        0x00000dbc:    2401        .$      MOVS     r4,#1
        0x00000dbe:    4602        .F      MOV      r2,r0
        0x00000dc0:    492c        ,I      LDR      r1,[pc,#176] ; [0xe74] = 0x3fd
        0x00000dc2:    0524        $.      LSLS     r4,r4,#20
        0x00000dc4:    1b78        x.      SUBS     r0,r7,r5
        0x00000dc6:    0b1b        ..      LSRS     r3,r3,#12
        0x00000dc8:    0b36        6.      LSRS     r6,r6,#12
        0x00000dca:    1840        @.      ADDS     r0,r0,r1
        0x00000dcc:    4323        #C      ORRS     r3,r3,r4
        0x00000dce:    4326        &C      ORRS     r6,r6,r4
        0x00000dd0:    4661        aF      MOV      r1,r12
        0x00000dd2:    9000        ..      STR      r0,[sp,#0]
        0x00000dd4:    461c        .F      MOV      r4,r3
        0x00000dd6:    1a50        P.      SUBS     r0,r2,r1
        0x00000dd8:    41b4        .A      SBCS     r4,r4,r6
        0x00000dda:    d303        ..      BCC      0xde4 ; __aeabi_ddiv + 92
        0x00000ddc:    9800        ..      LDR      r0,[sp,#0]
        0x00000dde:    1c40        @.      ADDS     r0,r0,#1
        0x00000de0:    9000        ..      STR      r0,[sp,#0]
        0x00000de2:    e002        ..      B        0xdea ; __aeabi_ddiv + 98
        0x00000de4:    1892        ..      ADDS     r2,r2,r2
        0x00000de6:    9800        ..      LDR      r0,[sp,#0]
        0x00000de8:    415b        [A      ADCS     r3,r3,r3
        0x00000dea:    2800        .(      CMP      r0,#0
        0x00000dec:    da03        ..      BGE      0xdf6 ; __aeabi_ddiv + 110
        0x00000dee:    2000        .       MOVS     r0,#0
        0x00000df0:    4601        .F      MOV      r1,r0
        0x00000df2:    b005        ..      ADD      sp,sp,#0x14
        0x00000df4:    bdf0        ..      POP      {r4-r7,pc}
        0x00000df6:    2000        .       MOVS     r0,#0
        0x00000df8:    2101        .!      MOVS     r1,#1
        0x00000dfa:    0509        ..      LSLS     r1,r1,#20
        0x00000dfc:    4607        .F      MOV      r7,r0
        0x00000dfe:    4686        .F      MOV      lr,r0
        0x00000e00:    e011        ..      B        0xe26 ; __aeabi_ddiv + 158
        0x00000e02:    4664        dF      MOV      r4,r12
        0x00000e04:    461d        .F      MOV      r5,r3
        0x00000e06:    1b14        ..      SUBS     r4,r2,r4
        0x00000e08:    41b5        .A      SBCS     r5,r5,r6
        0x00000e0a:    d306        ..      BCC      0xe1a ; __aeabi_ddiv + 146
        0x00000e0c:    4665        eF      MOV      r5,r12
        0x00000e0e:    1b52        R.      SUBS     r2,r2,r5
        0x00000e10:    41b3        .A      SBCS     r3,r3,r6
        0x00000e12:    4674        tF      MOV      r4,lr
        0x00000e14:    4307        .C      ORRS     r7,r7,r0
        0x00000e16:    430c        .C      ORRS     r4,r4,r1
        0x00000e18:    46a6        .F      MOV      lr,r4
        0x00000e1a:    07cd        ..      LSLS     r5,r1,#31
        0x00000e1c:    0840        @.      LSRS     r0,r0,#1
        0x00000e1e:    0849        I.      LSRS     r1,r1,#1
        0x00000e20:    4328        (C      ORRS     r0,r0,r5
        0x00000e22:    1892        ..      ADDS     r2,r2,r2
        0x00000e24:    415b        [A      ADCS     r3,r3,r3
        0x00000e26:    4605        .F      MOV      r5,r0
        0x00000e28:    430d        .C      ORRS     r5,r5,r1
        0x00000e2a:    d1ea        ..      BNE      0xe02 ; __aeabi_ddiv + 122
        0x00000e2c:    4610        .F      MOV      r0,r2
        0x00000e2e:    4318        .C      ORRS     r0,r0,r3
        0x00000e30:    d013        ..      BEQ      0xe5a ; __aeabi_ddiv + 210
        0x00000e32:    4660        `F      MOV      r0,r12
        0x00000e34:    4619        .F      MOV      r1,r3
        0x00000e36:    4050        P@      EORS     r0,r0,r2
        0x00000e38:    4071        q@      EORS     r1,r1,r6
        0x00000e3a:    4308        .C      ORRS     r0,r0,r1
        0x00000e3c:    d006        ..      BEQ      0xe4c ; __aeabi_ddiv + 196
        0x00000e3e:    4660        `F      MOV      r0,r12
        0x00000e40:    1a10        ..      SUBS     r0,r2,r0
        0x00000e42:    41b3        .A      SBCS     r3,r3,r6
        0x00000e44:    d206        ..      BCS      0xe54 ; __aeabi_ddiv + 204
        0x00000e46:    2201        ."      MOVS     r2,#1
        0x00000e48:    2300        .#      MOVS     r3,#0
        0x00000e4a:    e006        ..      B        0xe5a ; __aeabi_ddiv + 210
        0x00000e4c:    2200        ."      MOVS     r2,#0
        0x00000e4e:    2301        .#      MOVS     r3,#1
        0x00000e50:    07db        ..      LSLS     r3,r3,#31
        0x00000e52:    e002        ..      B        0xe5a ; __aeabi_ddiv + 210
        0x00000e54:    2201        ."      MOVS     r2,#1
        0x00000e56:    43d2        .C      MVNS     r2,r2
        0x00000e58:    1053        S.      ASRS     r3,r2,#1
        0x00000e5a:    9800        ..      LDR      r0,[sp,#0]
        0x00000e5c:    4674        tF      MOV      r4,lr
        0x00000e5e:    0501        ..      LSLS     r1,r0,#20
        0x00000e60:    1c38        8.      ADDS     r0,r7,#0
        0x00000e62:    4161        aA      ADCS     r1,r1,r4
        0x00000e64:    9c02        ..      LDR      r4,[sp,#8]
        0x00000e66:    9d03        ..      LDR      r5,[sp,#0xc]
        0x00000e68:    1900        ..      ADDS     r0,r0,r4
        0x00000e6a:    4169        iA      ADCS     r1,r1,r5
        0x00000e6c:    f000fa46    ..F.    BL       _double_round ; 0x12fc
        0x00000e70:    e7bf        ..      B        0xdf2 ; __aeabi_ddiv + 106
    $d
        0x00000e72:    0000        ..      DCW    0
        0x00000e74:    000003fd    ....    DCD    1021
    $t
    .text
    __aeabi_d2ulz
        0x00000e78:    004a        J.      LSLS     r2,r1,#1
        0x00000e7a:    0309        ..      LSLS     r1,r1,#12
        0x00000e7c:    2301        .#      MOVS     r3,#1
        0x00000e7e:    0b09        ..      LSRS     r1,r1,#12
        0x00000e80:    051b        ..      LSLS     r3,r3,#20
        0x00000e82:    4319        .C      ORRS     r1,r1,r3
        0x00000e84:    4b0a        .K      LDR      r3,[pc,#40] ; [0xeb0] = 0x3ff
        0x00000e86:    b510        ..      PUSH     {r4,lr}
        0x00000e88:    0d52        R.      LSRS     r2,r2,#21
        0x00000e8a:    429a        .B      CMP      r2,r3
        0x00000e8c:    da02        ..      BGE      0xe94 ; __aeabi_d2ulz + 28
        0x00000e8e:    2000        .       MOVS     r0,#0
        0x00000e90:    4601        .F      MOV      r1,r0
        0x00000e92:    bd10        ..      POP      {r4,pc}
        0x00000e94:    4b06        .K      LDR      r3,[pc,#24] ; [0xeb0] = 0x3ff
        0x00000e96:    3334        43      ADDS     r3,r3,#0x34
        0x00000e98:    429a        .B      CMP      r2,r3
        0x00000e9a:    dc03        ..      BGT      0xea4 ; __aeabi_d2ulz + 44
        0x00000e9c:    1a9a        ..      SUBS     r2,r3,r2
        0x00000e9e:    f7fffa05    ....    BL       __aeabi_llsr ; 0x2ac
        0x00000ea2:    bd10        ..      POP      {r4,pc}
        0x00000ea4:    4b03        .K      LDR      r3,[pc,#12] ; [0xeb4] = 0xfffffbcd
        0x00000ea6:    18d2        ..      ADDS     r2,r2,r3
        0x00000ea8:    f7fff9f0    ....    BL       __aeabi_llsl ; 0x28c
        0x00000eac:    bd10        ..      POP      {r4,pc}
    $d
        0x00000eae:    0000        ..      DCW    0
        0x00000eb0:    000003ff    ....    DCD    1023
        0x00000eb4:    fffffbcd    ....    DCD    4294966221
    $t
    .text
    __aeabi_cdrcmple
        0x00000eb8:    b510        ..      PUSH     {r4,lr}
        0x00000eba:    2900        .)      CMP      r1,#0
        0x00000ebc:    db04        ..      BLT      0xec8 ; __aeabi_cdrcmple + 16
        0x00000ebe:    2401        .$      MOVS     r4,#1
        0x00000ec0:    07e4        ..      LSLS     r4,r4,#31
        0x00000ec2:    4240        @B      RSBS     r0,r0,#0
        0x00000ec4:    418c        .A      SBCS     r4,r4,r1
        0x00000ec6:    4621        !F      MOV      r1,r4
        0x00000ec8:    2b00        .+      CMP      r3,#0
        0x00000eca:    db04        ..      BLT      0xed6 ; __aeabi_cdrcmple + 30
        0x00000ecc:    461c        .F      MOV      r4,r3
        0x00000ece:    2301        .#      MOVS     r3,#1
        0x00000ed0:    07db        ..      LSLS     r3,r3,#31
        0x00000ed2:    4252        RB      RSBS     r2,r2,#0
        0x00000ed4:    41a3        .A      SBCS     r3,r3,r4
        0x00000ed6:    4299        .B      CMP      r1,r3
        0x00000ed8:    d100        ..      BNE      0xedc ; __aeabi_cdrcmple + 36
        0x00000eda:    4290        .B      CMP      r0,r2
        0x00000edc:    bd10        ..      POP      {r4,pc}
    $d
        0x00000ede:    0000        ..      DCW    0
    $t
    .text
    __scatterload
    __scatterload_rt2
        0x00000ee0:    4c06        .L      LDR      r4,[pc,#24] ; [0xefc] = 0xad2c
        0x00000ee2:    2501        .%      MOVS     r5,#1
        0x00000ee4:    4e06        .N      LDR      r6,[pc,#24] ; [0xf00] = 0xad4c
        0x00000ee6:    e005        ..      B        0xef4 ; __scatterload + 20
        0x00000ee8:    68e3        .h      LDR      r3,[r4,#0xc]
        0x00000eea:    cc07        ..      LDM      r4!,{r0-r2}
        0x00000eec:    432b        +C      ORRS     r3,r3,r5
        0x00000eee:    3c0c        .<      SUBS     r4,r4,#0xc
        0x00000ef0:    4798        .G      BLX      r3
        0x00000ef2:    3410        .4      ADDS     r4,r4,#0x10
        0x00000ef4:    42b4        .B      CMP      r4,r6
        0x00000ef6:    d3f7        ..      BCC      0xee8 ; __scatterload + 8
        0x00000ef8:    f7fff98e    ....    BL       __main_after_scatterload ; 0x218
    $d
        0x00000efc:    0000ad2c    ,...    DCD    44332
        0x00000f00:    0000ad4c    L...    DCD    44364
    $t
    .text
    __aeabi_uidiv$div0
    __aeabi_uidivmod
        0x00000f04:    b570        p.      PUSH     {r4-r6,lr}
        0x00000f06:    4604        .F      MOV      r4,r0
        0x00000f08:    2900        .)      CMP      r1,#0
        0x00000f0a:    d003        ..      BEQ      0xf14 ; __aeabi_uidiv$div0 + 16
        0x00000f0c:    2000        .       MOVS     r0,#0
        0x00000f0e:    2220         "      MOVS     r2,#0x20
        0x00000f10:    2301        .#      MOVS     r3,#1
        0x00000f12:    e010        ..      B        0xf36 ; __aeabi_uidiv$div0 + 50
        0x00000f14:    2800        .(      CMP      r0,#0
        0x00000f16:    d001        ..      BEQ      0xf1c ; __aeabi_uidiv$div0 + 24
        0x00000f18:    2000        .       MOVS     r0,#0
        0x00000f1a:    43c0        .C      MVNS     r0,r0
        0x00000f1c:    46c0        .F      MOV      r8,r8
        0x00000f1e:    46c0        .F      MOV      r8,r8
        0x00000f20:    e00d        ..      B        0xf3e ; __aeabi_uidiv$div0 + 58
        0x00000f22:    4625        %F      MOV      r5,r4
        0x00000f24:    40d5        .@      LSRS     r5,r5,r2
        0x00000f26:    428d        .B      CMP      r5,r1
        0x00000f28:    d305        ..      BCC      0xf36 ; __aeabi_uidiv$div0 + 50
        0x00000f2a:    460d        .F      MOV      r5,r1
        0x00000f2c:    4095        .@      LSLS     r5,r5,r2
        0x00000f2e:    1b64        d.      SUBS     r4,r4,r5
        0x00000f30:    461d        .F      MOV      r5,r3
        0x00000f32:    4095        .@      LSLS     r5,r5,r2
        0x00000f34:    1940        @.      ADDS     r0,r0,r5
        0x00000f36:    4615        .F      MOV      r5,r2
        0x00000f38:    1e52        R.      SUBS     r2,r2,#1
        0x00000f3a:    2d00        .-      CMP      r5,#0
        0x00000f3c:    dcf1        ..      BGT      0xf22 ; __aeabi_uidiv$div0 + 30
        0x00000f3e:    4621        !F      MOV      r1,r4
        0x00000f40:    bd70        p.      POP      {r4-r6,pc}
    .text
    __aeabi_lmul
    _ll_mul
        0x00000f42:    b530        0.      PUSH     {r4,r5,lr}
        0x00000f44:    4343        CC      MULS     r3,r0,r3
        0x00000f46:    4351        QC      MULS     r1,r2,r1
        0x00000f48:    185c        \.      ADDS     r4,r3,r1
        0x00000f4a:    0c01        ..      LSRS     r1,r0,#16
        0x00000f4c:    0c13        ..      LSRS     r3,r2,#16
        0x00000f4e:    460d        .F      MOV      r5,r1
        0x00000f50:    435d        ]C      MULS     r5,r3,r5
        0x00000f52:    192c        ,.      ADDS     r4,r5,r4
        0x00000f54:    b280        ..      UXTH     r0,r0
        0x00000f56:    b292        ..      UXTH     r2,r2
        0x00000f58:    4605        .F      MOV      r5,r0
        0x00000f5a:    4355        UC      MULS     r5,r2,r5
        0x00000f5c:    4351        QC      MULS     r1,r2,r1
        0x00000f5e:    0c0a        ..      LSRS     r2,r1,#16
        0x00000f60:    0409        ..      LSLS     r1,r1,#16
        0x00000f62:    194d        M.      ADDS     r5,r1,r5
        0x00000f64:    4162        bA      ADCS     r2,r2,r4
        0x00000f66:    4358        XC      MULS     r0,r3,r0
        0x00000f68:    0c01        ..      LSRS     r1,r0,#16
        0x00000f6a:    0400        ..      LSLS     r0,r0,#16
        0x00000f6c:    1940        @.      ADDS     r0,r0,r5
        0x00000f6e:    4151        QA      ADCS     r1,r1,r2
        0x00000f70:    bd30        0.      POP      {r4,r5,pc}
    .text
    __aeabi_lasr
    _ll_sshift_r
        0x00000f72:    b510        ..      PUSH     {r4,lr}
        0x00000f74:    2a20         *      CMP      r2,#0x20
        0x00000f76:    db06        ..      BLT      0xf86 ; __aeabi_lasr + 20
        0x00000f78:    17cb        ..      ASRS     r3,r1,#31
        0x00000f7a:    4608        .F      MOV      r0,r1
        0x00000f7c:    3a20         :      SUBS     r2,r2,#0x20
        0x00000f7e:    4110        .A      ASRS     r0,r0,r2
        0x00000f80:    17c1        ..      ASRS     r1,r0,#31
        0x00000f82:    430b        .C      ORRS     r3,r3,r1
        0x00000f84:    e006        ..      B        0xf94 ; __aeabi_lasr + 34
        0x00000f86:    460b        .F      MOV      r3,r1
        0x00000f88:    4113        .A      ASRS     r3,r3,r2
        0x00000f8a:    40d0        .@      LSRS     r0,r0,r2
        0x00000f8c:    2420         $      MOVS     r4,#0x20
        0x00000f8e:    1aa2        ..      SUBS     r2,r4,r2
        0x00000f90:    4091        .@      LSLS     r1,r1,r2
        0x00000f92:    4308        .C      ORRS     r0,r0,r1
        0x00000f94:    4619        .F      MOV      r1,r3
        0x00000f96:    bd10        ..      POP      {r4,pc}
    .text
    isspace
        0x00000f98:    b510        ..      PUSH     {r4,lr}
        0x00000f9a:    210f        .!      MOVS     r1,#0xf
        0x00000f9c:    b2c0        ..      UXTB     r0,r0
        0x00000f9e:    0249        I.      LSLS     r1,r1,#9
        0x00000fa0:    f000fa36    ..6.    BL       __ctype_lookup ; 0x1410
        0x00000fa4:    bd10        ..      POP      {r4,pc}
    .text
    _chval
        0x00000fa6:    283a        :(      CMP      r0,#0x3a
        0x00000fa8:    d200        ..      BCS      0xfac ; _chval + 6
        0x00000faa:    3830        08      SUBS     r0,r0,#0x30
        0x00000fac:    2320         #      MOVS     r3,#0x20
        0x00000fae:    4602        .F      MOV      r2,r0
        0x00000fb0:    439a        .C      BICS     r2,r2,r3
        0x00000fb2:    2a41        A*      CMP      r2,#0x41
        0x00000fb4:    d301        ..      BCC      0xfba ; _chval + 20
        0x00000fb6:    4610        .F      MOV      r0,r2
        0x00000fb8:    3837        78      SUBS     r0,r0,#0x37
        0x00000fba:    4288        .B      CMP      r0,r1
        0x00000fbc:    d301        ..      BCC      0xfc2 ; _chval + 28
        0x00000fbe:    2000        .       MOVS     r0,#0
        0x00000fc0:    43c0        .C      MVNS     r0,r0
        0x00000fc2:    4770        pG      BX       lr
    .text
    __vfscanf
        0x00000fc4:    b5f3        ..      PUSH     {r0,r1,r4-r7,lr}
        0x00000fc6:    b08d        ..      SUB      sp,sp,#0x34
        0x00000fc8:    2000        .       MOVS     r0,#0
        0x00000fca:    900a        ..      STR      r0,[sp,#0x28]
        0x00000fcc:    2001        .       MOVS     r0,#1
        0x00000fce:    900b        ..      STR      r0,[sp,#0x2c]
        0x00000fd0:    2600        .&      MOVS     r6,#0
        0x00000fd2:    4608        .F      MOV      r0,r1
        0x00000fd4:    300c        .0      ADDS     r0,r0,#0xc
        0x00000fd6:    460c        .F      MOV      r4,r1
        0x00000fd8:    9009        ..      STR      r0,[sp,#0x24]
        0x00000fda:    6962        bi      LDR      r2,[r4,#0x14]
        0x00000fdc:    2101        .!      MOVS     r1,#1
        0x00000fde:    9809        ..      LDR      r0,[sp,#0x24]
        0x00000fe0:    4790        .G      BLX      r2
        0x00000fe2:    1e05        ..      SUBS     r5,r0,#0
        0x00000fe4:    d02e        ..      BEQ      0x1044 ; __vfscanf + 128
        0x00000fe6:    2d25        %-      CMP      r5,#0x25
        0x00000fe8:    d02d        -.      BEQ      0x1046 ; __vfscanf + 130
        0x00000fea:    6a21        !j      LDR      r1,[r4,#0x20]
        0x00000fec:    4788        .G      BLX      r1
        0x00000fee:    2800        .(      CMP      r0,#0
        0x00000ff0:    d018        ..      BEQ      0x1024 ; __vfscanf + 96
        0x00000ff2:    6962        bi      LDR      r2,[r4,#0x14]
        0x00000ff4:    2101        .!      MOVS     r1,#1
        0x00000ff6:    9809        ..      LDR      r0,[sp,#0x24]
        0x00000ff8:    4790        .G      BLX      r2
        0x00000ffa:    6a21        !j      LDR      r1,[r4,#0x20]
        0x00000ffc:    4788        .G      BLX      r1
        0x00000ffe:    2800        .(      CMP      r0,#0
        0x00001000:    d1f7        ..      BNE      0xff2 ; __vfscanf + 46
        0x00001002:    1e41        A.      SUBS     r1,r0,#1
        0x00001004:    6962        bi      LDR      r2,[r4,#0x14]
        0x00001006:    9809        ..      LDR      r0,[sp,#0x24]
        0x00001008:    4790        .G      BLX      r2
        0x0000100a:    e000        ..      B        0x100e ; __vfscanf + 74
        0x0000100c:    1c76        v.      ADDS     r6,r6,#1
        0x0000100e:    69a1        .i      LDR      r1,[r4,#0x18]
        0x00001010:    980d        ..      LDR      r0,[sp,#0x34]
        0x00001012:    4788        .G      BLX      r1
        0x00001014:    6a21        !j      LDR      r1,[r4,#0x20]
        0x00001016:    4788        .G      BLX      r1
        0x00001018:    2800        .(      CMP      r0,#0
        0x0000101a:    d1f7        ..      BNE      0x100c ; __vfscanf + 72
        0x0000101c:    69e1        .i      LDR      r1,[r4,#0x1c]
        0x0000101e:    980d        ..      LDR      r0,[sp,#0x34]
        0x00001020:    4788        .G      BLX      r1
        0x00001022:    e7da        ..      B        0xfda ; __vfscanf + 22
        0x00001024:    69a1        .i      LDR      r1,[r4,#0x18]
        0x00001026:    980d        ..      LDR      r0,[sp,#0x34]
        0x00001028:    4788        .G      BLX      r1
        0x0000102a:    4607        .F      MOV      r7,r0
        0x0000102c:    42a8        .B      CMP      r0,r5
        0x0000102e:    d101        ..      BNE      0x1034 ; __vfscanf + 112
        0x00001030:    1c76        v.      ADDS     r6,r6,#1
        0x00001032:    e7d2        ..      B        0xfda ; __vfscanf + 22
        0x00001034:    69e1        .i      LDR      r1,[r4,#0x1c]
        0x00001036:    980d        ..      LDR      r0,[sp,#0x34]
        0x00001038:    4788        .G      BLX      r1
        0x0000103a:    1c7f        ..      ADDS     r7,r7,#1
        0x0000103c:    d102        ..      BNE      0x1044 ; __vfscanf + 128
        0x0000103e:    980a        ..      LDR      r0,[sp,#0x28]
        0x00001040:    2800        .(      CMP      r0,#0
        0x00001042:    d077        w.      BEQ      0x1134 ; __vfscanf + 368
        0x00001044:    e149        I.      B        0x12da ; __vfscanf + 790
        0x00001046:    2700        .'      MOVS     r7,#0
        0x00001048:    6962        bi      LDR      r2,[r4,#0x14]
        0x0000104a:    463d        =F      MOV      r5,r7
        0x0000104c:    4639        9F      MOV      r1,r7
        0x0000104e:    9809        ..      LDR      r0,[sp,#0x24]
        0x00001050:    4790        .G      BLX      r2
        0x00001052:    282a        *(      CMP      r0,#0x2a
        0x00001054:    d10c        ..      BNE      0x1070 ; __vfscanf + 172
        0x00001056:    6962        bi      LDR      r2,[r4,#0x14]
        0x00001058:    2101        .!      MOVS     r1,#1
        0x0000105a:    9809        ..      LDR      r0,[sp,#0x24]
        0x0000105c:    4790        .G      BLX      r2
        0x0000105e:    2501        .%      MOVS     r5,#1
        0x00001060:    e006        ..      B        0x1070 ; __vfscanf + 172
        0x00001062:    210a        .!      MOVS     r1,#0xa
        0x00001064:    434f        OC      MULS     r7,r1,r7
        0x00001066:    183f        ?.      ADDS     r7,r7,r0
        0x00001068:    3f30        0?      SUBS     r7,r7,#0x30
        0x0000106a:    d4eb        ..      BMI      0x1044 ; __vfscanf + 128
        0x0000106c:    2010        .       MOVS     r0,#0x10
        0x0000106e:    4305        .C      ORRS     r5,r5,r0
        0x00001070:    6962        bi      LDR      r2,[r4,#0x14]
        0x00001072:    2101        .!      MOVS     r1,#1
        0x00001074:    9809        ..      LDR      r0,[sp,#0x24]
        0x00001076:    4790        .G      BLX      r2
        0x00001078:    4601        .F      MOV      r1,r0
        0x0000107a:    3930        09      SUBS     r1,r1,#0x30
        0x0000107c:    290a        .)      CMP      r1,#0xa
        0x0000107e:    d203        ..      BCS      0x1088 ; __vfscanf + 196
        0x00001080:    499b        .I      LDR      r1,[pc,#620] ; [0x12f0] = 0xccccccc
        0x00001082:    428f        .B      CMP      r7,r1
        0x00001084:    dcde        ..      BGT      0x1044 ; __vfscanf + 128
        0x00001086:    e7ec        ..      B        0x1062 ; __vfscanf + 158
        0x00001088:    06e9        ..      LSLS     r1,r5,#27
        0x0000108a:    d400        ..      BMI      0x108e ; __vfscanf + 202
        0x0000108c:    4f99        .O      LDR      r7,[pc,#612] ; [0x12f4] = 0x7fffffff
        0x0000108e:    286c        l(      CMP      r0,#0x6c
        0x00001090:    d00a        ..      BEQ      0x10a8 ; __vfscanf + 228
        0x00001092:    284c        L(      CMP      r0,#0x4c
        0x00001094:    d010        ..      BEQ      0x10b8 ; __vfscanf + 244
        0x00001096:    2868        h(      CMP      r0,#0x68
        0x00001098:    d024        $.      BEQ      0x10e4 ; __vfscanf + 288
        0x0000109a:    286a        j(      CMP      r0,#0x6a
        0x0000109c:    d02e        ..      BEQ      0x10fc ; __vfscanf + 312
        0x0000109e:    2874        t(      CMP      r0,#0x74
        0x000010a0:    d00c        ..      BEQ      0x10bc ; __vfscanf + 248
        0x000010a2:    287a        z(      CMP      r0,#0x7a
        0x000010a4:    d00a        ..      BEQ      0x10bc ; __vfscanf + 248
        0x000010a6:    e00d        ..      B        0x10c4 ; __vfscanf + 256
        0x000010a8:    6962        bi      LDR      r2,[r4,#0x14]
        0x000010aa:    2101        .!      MOVS     r1,#1
        0x000010ac:    9809        ..      LDR      r0,[sp,#0x24]
        0x000010ae:    4790        .G      BLX      r2
        0x000010b0:    286c        l(      CMP      r0,#0x6c
        0x000010b2:    d023        #.      BEQ      0x10fc ; __vfscanf + 312
        0x000010b4:    2104        .!      MOVS     r1,#4
        0x000010b6:    e01c        ..      B        0x10f2 ; __vfscanf + 302
        0x000010b8:    2020                MOVS     r0,#0x20
        0x000010ba:    4305        .C      ORRS     r5,r5,r0
        0x000010bc:    6962        bi      LDR      r2,[r4,#0x14]
        0x000010be:    2101        .!      MOVS     r1,#1
        0x000010c0:    9809        ..      LDR      r0,[sp,#0x24]
        0x000010c2:    4790        .G      BLX      r2
        0x000010c4:    60a7        .`      STR      r7,[r4,#8]
        0x000010c6:    6065        e`      STR      r5,[r4,#4]
        0x000010c8:    2865        e(      CMP      r0,#0x65
        0x000010ca:    d04f        O.      BEQ      0x116c ; __vfscanf + 424
        0x000010cc:    dc26        &.      BGT      0x111c ; __vfscanf + 344
        0x000010ce:    2858        X(      CMP      r0,#0x58
        0x000010d0:    d039        9.      BEQ      0x1146 ; __vfscanf + 386
        0x000010d2:    dc1a        ..      BGT      0x110a ; __vfscanf + 326
        0x000010d4:    2845        E(      CMP      r0,#0x45
        0x000010d6:    d049        I.      BEQ      0x116c ; __vfscanf + 424
        0x000010d8:    dc12        ..      BGT      0x1100 ; __vfscanf + 316
        0x000010da:    2825        %(      CMP      r0,#0x25
        0x000010dc:    d034        4.      BEQ      0x1148 ; __vfscanf + 388
        0x000010de:    2841        A(      CMP      r0,#0x41
        0x000010e0:    d1b0        ..      BNE      0x1044 ; __vfscanf + 128
        0x000010e2:    e043        C.      B        0x116c ; __vfscanf + 424
        0x000010e4:    6962        bi      LDR      r2,[r4,#0x14]
        0x000010e6:    2101        .!      MOVS     r1,#1
        0x000010e8:    9809        ..      LDR      r0,[sp,#0x24]
        0x000010ea:    4790        .G      BLX      r2
        0x000010ec:    2868        h(      CMP      r0,#0x68
        0x000010ee:    d002        ..      BEQ      0x10f6 ; __vfscanf + 306
        0x000010f0:    2108        .!      MOVS     r1,#8
        0x000010f2:    430d        .C      ORRS     r5,r5,r1
        0x000010f4:    e7e6        ..      B        0x10c4 ; __vfscanf + 256
        0x000010f6:    2001        .       MOVS     r0,#1
        0x000010f8:    02c0        ..      LSLS     r0,r0,#11
        0x000010fa:    e7de        ..      B        0x10ba ; __vfscanf + 246
        0x000010fc:    2002        .       MOVS     r0,#2
        0x000010fe:    e7dc        ..      B        0x10ba ; __vfscanf + 246
        0x00001100:    2846        F(      CMP      r0,#0x46
        0x00001102:    d033        3.      BEQ      0x116c ; __vfscanf + 424
        0x00001104:    2847        G(      CMP      r0,#0x47
        0x00001106:    d12c        ,.      BNE      0x1162 ; __vfscanf + 414
        0x00001108:    e030        0.      B        0x116c ; __vfscanf + 424
        0x0000110a:    285b        [(      CMP      r0,#0x5b
        0x0000110c:    d070        p.      BEQ      0x11f0 ; __vfscanf + 556
        0x0000110e:    2861        a(      CMP      r0,#0x61
        0x00001110:    d02c        ,.      BEQ      0x116c ; __vfscanf + 424
        0x00001112:    2863        c(      CMP      r0,#0x63
        0x00001114:    d06c        l.      BEQ      0x11f0 ; __vfscanf + 556
        0x00001116:    2864        d(      CMP      r0,#0x64
        0x00001118:    d123        #.      BNE      0x1162 ; __vfscanf + 414
        0x0000111a:    e061        a.      B        0x11e0 ; __vfscanf + 540
        0x0000111c:    286f        o(      CMP      r0,#0x6f
        0x0000111e:    d04f        O.      BEQ      0x11c0 ; __vfscanf + 508
        0x00001120:    dc09        ..      BGT      0x1136 ; __vfscanf + 370
        0x00001122:    2866        f(      CMP      r0,#0x66
        0x00001124:    d022        ".      BEQ      0x116c ; __vfscanf + 424
        0x00001126:    2867        g(      CMP      r0,#0x67
        0x00001128:    d020         .      BEQ      0x116c ; __vfscanf + 424
        0x0000112a:    2869        i(      CMP      r0,#0x69
        0x0000112c:    d026        &.      BEQ      0x117c ; __vfscanf + 440
        0x0000112e:    286e        n(      CMP      r0,#0x6e
        0x00001130:    d117        ..      BNE      0x1162 ; __vfscanf + 414
        0x00001132:    e02e        ..      B        0x1192 ; __vfscanf + 462
        0x00001134:    e0cd        ..      B        0x12d2 ; __vfscanf + 782
        0x00001136:    2870        p(      CMP      r0,#0x70
        0x00001138:    d04d        M.      BEQ      0x11d6 ; __vfscanf + 530
        0x0000113a:    2873        s(      CMP      r0,#0x73
        0x0000113c:    d06f        o.      BEQ      0x121e ; __vfscanf + 602
        0x0000113e:    2875        u(      CMP      r0,#0x75
        0x00001140:    d04e        N.      BEQ      0x11e0 ; __vfscanf + 540
        0x00001142:    2878        x(      CMP      r0,#0x78
        0x00001144:    d10d        ..      BNE      0x1162 ; __vfscanf + 414
        0x00001146:    e054        T.      B        0x11f2 ; __vfscanf + 558
        0x00001148:    69a1        .i      LDR      r1,[r4,#0x18]
        0x0000114a:    980d        ..      LDR      r0,[sp,#0x34]
        0x0000114c:    4788        .G      BLX      r1
        0x0000114e:    4605        .F      MOV      r5,r0
        0x00001150:    2825        %(      CMP      r0,#0x25
        0x00001152:    d100        ..      BNE      0x1156 ; __vfscanf + 402
        0x00001154:    e76c        l.      B        0x1030 ; __vfscanf + 108
        0x00001156:    69e1        .i      LDR      r1,[r4,#0x1c]
        0x00001158:    980d        ..      LDR      r0,[sp,#0x34]
        0x0000115a:    4788        .G      BLX      r1
        0x0000115c:    1c6d        m.      ADDS     r5,r5,#1
        0x0000115e:    d100        ..      BNE      0x1162 ; __vfscanf + 414
        0x00001160:    e76d        m.      B        0x103e ; __vfscanf + 122
        0x00001162:    e0ba        ..      B        0x12da ; __vfscanf + 790
        0x00001164:    220a        ."      MOVS     r2,#0xa
        0x00001166:    e04c        L.      B        0x1202 ; __vfscanf + 574
        0x00001168:    220a        ."      MOVS     r2,#0xa
        0x0000116a:    e052        R.      B        0x1212 ; __vfscanf + 590
        0x0000116c:    2001        .       MOVS     r0,#1
        0x0000116e:    4623        #F      MOV      r3,r4
        0x00001170:    466a        jF      MOV      r2,sp
        0x00001172:    43c0        .C      MVNS     r0,r0
        0x00001174:    990d        ..      LDR      r1,[sp,#0x34]
        0x00001176:    f7fffb8a    ....    BL       _scanf_real ; 0x88e
        0x0000117a:    e0a3        ..      B        0x12c4 ; __vfscanf + 768
        0x0000117c:    4628        (F      MOV      r0,r5
        0x0000117e:    2140        @!      MOVS     r1,#0x40
        0x00001180:    4308        .C      ORRS     r0,r0,r1
        0x00001182:    6060        ``      STR      r0,[r4,#4]
        0x00001184:    07a8        ..      LSLS     r0,r5,#30
        0x00001186:    4623        #F      MOV      r3,r4
        0x00001188:    d501        ..      BPL      0x118e ; __vfscanf + 458
        0x0000118a:    2200        ."      MOVS     r2,#0
        0x0000118c:    e039        9.      B        0x1202 ; __vfscanf + 574
        0x0000118e:    2200        ."      MOVS     r2,#0
        0x00001190:    e03f        ?.      B        0x1212 ; __vfscanf + 590
        0x00001192:    07e8        ..      LSLS     r0,r5,#31
        0x00001194:    d000        ..      BEQ      0x1198 ; __vfscanf + 468
        0x00001196:    e720         .      B        0xfda ; __vfscanf + 22
        0x00001198:    6820         h      LDR      r0,[r4,#0]
        0x0000119a:    1d01        ..      ADDS     r1,r0,#4
        0x0000119c:    6021        !`      STR      r1,[r4,#0]
        0x0000119e:    6800        .h      LDR      r0,[r0,#0]
        0x000011a0:    0529        ).      LSLS     r1,r5,#20
        0x000011a2:    d501        ..      BPL      0x11a8 ; __vfscanf + 484
        0x000011a4:    7006        .p      STRB     r6,[r0,#0]
        0x000011a6:    e718        ..      B        0xfda ; __vfscanf + 22
        0x000011a8:    0729        ).      LSLS     r1,r5,#28
        0x000011aa:    d501        ..      BPL      0x11b0 ; __vfscanf + 492
        0x000011ac:    8006        ..      STRH     r6,[r0,#0]
        0x000011ae:    e714        ..      B        0xfda ; __vfscanf + 22
        0x000011b0:    07a9        ..      LSLS     r1,r5,#30
        0x000011b2:    d503        ..      BPL      0x11bc ; __vfscanf + 504
        0x000011b4:    17f1        ..      ASRS     r1,r6,#31
        0x000011b6:    6006        .`      STR      r6,[r0,#0]
        0x000011b8:    6041        A`      STR      r1,[r0,#4]
        0x000011ba:    e70e        ..      B        0xfda ; __vfscanf + 22
        0x000011bc:    6006        .`      STR      r6,[r0,#0]
        0x000011be:    e70c        ..      B        0xfda ; __vfscanf + 22
        0x000011c0:    4628        (F      MOV      r0,r5
        0x000011c2:    2140        @!      MOVS     r1,#0x40
        0x000011c4:    4308        .C      ORRS     r0,r0,r1
        0x000011c6:    6060        ``      STR      r0,[r4,#4]
        0x000011c8:    07a8        ..      LSLS     r0,r5,#30
        0x000011ca:    4623        #F      MOV      r3,r4
        0x000011cc:    d501        ..      BPL      0x11d2 ; __vfscanf + 526
        0x000011ce:    2208        ."      MOVS     r2,#8
        0x000011d0:    e017        ..      B        0x1202 ; __vfscanf + 574
        0x000011d2:    2208        ."      MOVS     r2,#8
        0x000011d4:    e01d        ..      B        0x1212 ; __vfscanf + 590
        0x000011d6:    4948        HI      LDR      r1,[pc,#288] ; [0x12f8] = 0xfffff7f1
        0x000011d8:    4628        (F      MOV      r0,r5
        0x000011da:    4008        .@      ANDS     r0,r0,r1
        0x000011dc:    6060        ``      STR      r0,[r4,#4]
        0x000011de:    e016        ..      B        0x120e ; __vfscanf + 586
        0x000011e0:    4628        (F      MOV      r0,r5
        0x000011e2:    2140        @!      MOVS     r1,#0x40
        0x000011e4:    4308        .C      ORRS     r0,r0,r1
        0x000011e6:    6060        ``      STR      r0,[r4,#4]
        0x000011e8:    07a8        ..      LSLS     r0,r5,#30
        0x000011ea:    4623        #F      MOV      r3,r4
        0x000011ec:    d5bc        ..      BPL      0x1168 ; __vfscanf + 420
        0x000011ee:    e7b9        ..      B        0x1164 ; __vfscanf + 416
        0x000011f0:    e015        ..      B        0x121e ; __vfscanf + 602
        0x000011f2:    4628        (F      MOV      r0,r5
        0x000011f4:    2140        @!      MOVS     r1,#0x40
        0x000011f6:    4308        .C      ORRS     r0,r0,r1
        0x000011f8:    6060        ``      STR      r0,[r4,#4]
        0x000011fa:    07a8        ..      LSLS     r0,r5,#30
        0x000011fc:    d507        ..      BPL      0x120e ; __vfscanf + 586
        0x000011fe:    4623        #F      MOV      r3,r4
        0x00001200:    2210        ."      MOVS     r2,#0x10
        0x00001202:    2001        .       MOVS     r0,#1
        0x00001204:    43c0        .C      MVNS     r0,r0
        0x00001206:    990d        ..      LDR      r1,[sp,#0x34]
        0x00001208:    f7fff8f4    ....    BL       _scanf_longlong ; 0x3f4
        0x0000120c:    e05a        Z.      B        0x12c4 ; __vfscanf + 768
        0x0000120e:    4623        #F      MOV      r3,r4
        0x00001210:    2210        ."      MOVS     r2,#0x10
        0x00001212:    2001        .       MOVS     r0,#1
        0x00001214:    43c0        .C      MVNS     r0,r0
        0x00001216:    990d        ..      LDR      r1,[sp,#0x34]
        0x00001218:    f7fff991    ....    BL       _scanf_int ; 0x53e
        0x0000121c:    e052        R.      B        0x12c4 ; __vfscanf + 768
        0x0000121e:    2100        .!      MOVS     r1,#0
        0x00001220:    910c        ..      STR      r1,[sp,#0x30]
        0x00001222:    460b        .F      MOV      r3,r1
        0x00001224:    9100        ..      STR      r1,[sp,#0]
        0x00001226:    2863        c(      CMP      r0,#0x63
        0x00001228:    d002        ..      BEQ      0x1230 ; __vfscanf + 620
        0x0000122a:    285b        [(      CMP      r0,#0x5b
        0x0000122c:    d007        ..      BEQ      0x123e ; __vfscanf + 634
        0x0000122e:    e043        C.      B        0x12b8 ; __vfscanf + 756
        0x00001230:    06e8        ..      LSLS     r0,r5,#27
        0x00001232:    d401        ..      BMI      0x1238 ; __vfscanf + 628
        0x00001234:    2001        .       MOVS     r0,#1
        0x00001236:    60a0        .`      STR      r0,[r4,#8]
        0x00001238:    2001        .       MOVS     r0,#1
        0x0000123a:    9000        ..      STR      r0,[sp,#0]
        0x0000123c:    e03c        <.      B        0x12b8 ; __vfscanf + 756
        0x0000123e:    6962        bi      LDR      r2,[r4,#0x14]
        0x00001240:    2101        .!      MOVS     r1,#1
        0x00001242:    9809        ..      LDR      r0,[sp,#0x24]
        0x00001244:    4790        .G      BLX      r2
        0x00001246:    285e        ^(      CMP      r0,#0x5e
        0x00001248:    d105        ..      BNE      0x1256 ; __vfscanf + 658
        0x0000124a:    2001        .       MOVS     r0,#1
        0x0000124c:    900c        ..      STR      r0,[sp,#0x30]
        0x0000124e:    4601        .F      MOV      r1,r0
        0x00001250:    6962        bi      LDR      r2,[r4,#0x14]
        0x00001252:    9809        ..      LDR      r0,[sp,#0x24]
        0x00001254:    4790        .G      BLX      r2
        0x00001256:    6921        !i      LDR      r1,[r4,#0x10]
        0x00001258:    2900        .)      CMP      r1,#0
        0x0000125a:    d106        ..      BNE      0x126a ; __vfscanf + 678
        0x0000125c:    460b        .F      MOV      r3,r1
        0x0000125e:    aa01        ..      ADD      r2,sp,#4
        0x00001260:    008f        ..      LSLS     r7,r1,#2
        0x00001262:    1c49        I.      ADDS     r1,r1,#1
        0x00001264:    51d3        .Q      STR      r3,[r2,r7]
        0x00001266:    2908        .)      CMP      r1,#8
        0x00001268:    dbfa        ..      BLT      0x1260 ; __vfscanf + 668
        0x0000126a:    2800        .(      CMP      r0,#0
        0x0000126c:    d035        5.      BEQ      0x12da ; __vfscanf + 790
        0x0000126e:    6921        !i      LDR      r1,[r4,#0x10]
        0x00001270:    2900        .)      CMP      r1,#0
        0x00001272:    d10e        ..      BNE      0x1292 ; __vfscanf + 718
        0x00001274:    17c1        ..      ASRS     r1,r0,#31
        0x00001276:    0ec9        ..      LSRS     r1,r1,#27
        0x00001278:    1809        ..      ADDS     r1,r1,r0
        0x0000127a:    114a        J.      ASRS     r2,r1,#5
        0x0000127c:    0093        ..      LSLS     r3,r2,#2
        0x0000127e:    aa01        ..      ADD      r2,sp,#4
        0x00001280:    189a        ..      ADDS     r2,r3,r2
        0x00001282:    0949        I.      LSRS     r1,r1,#5
        0x00001284:    0149        I.      LSLS     r1,r1,#5
        0x00001286:    1a41        A.      SUBS     r1,r0,r1
        0x00001288:    2001        .       MOVS     r0,#1
        0x0000128a:    6813        .h      LDR      r3,[r2,#0]
        0x0000128c:    4088        .@      LSLS     r0,r0,r1
        0x0000128e:    4303        .C      ORRS     r3,r3,r0
        0x00001290:    6013        .`      STR      r3,[r2,#0]
        0x00001292:    6962        bi      LDR      r2,[r4,#0x14]
        0x00001294:    2101        .!      MOVS     r1,#1
        0x00001296:    9809        ..      LDR      r0,[sp,#0x24]
        0x00001298:    4790        .G      BLX      r2
        0x0000129a:    285d        ](      CMP      r0,#0x5d
        0x0000129c:    d1e5        ..      BNE      0x126a ; __vfscanf + 678
        0x0000129e:    980c        ..      LDR      r0,[sp,#0x30]
        0x000012a0:    2800        .(      CMP      r0,#0
        0x000012a2:    d008        ..      BEQ      0x12b6 ; __vfscanf + 754
        0x000012a4:    2000        .       MOVS     r0,#0
        0x000012a6:    ab01        ..      ADD      r3,sp,#4
        0x000012a8:    0081        ..      LSLS     r1,r0,#2
        0x000012aa:    585a        ZX      LDR      r2,[r3,r1]
        0x000012ac:    1c40        @.      ADDS     r0,r0,#1
        0x000012ae:    43d2        .C      MVNS     r2,r2
        0x000012b0:    505a        ZP      STR      r2,[r3,r1]
        0x000012b2:    2808        .(      CMP      r0,#8
        0x000012b4:    dbf8        ..      BLT      0x12a8 ; __vfscanf + 740
        0x000012b6:    ab01        ..      ADD      r3,sp,#4
        0x000012b8:    2001        .       MOVS     r0,#1
        0x000012ba:    4622        "F      MOV      r2,r4
        0x000012bc:    43c0        .C      MVNS     r0,r0
        0x000012be:    990d        ..      LDR      r1,[sp,#0x34]
        0x000012c0:    f7fff9e2    ....    BL       _scanf_string ; 0x688
        0x000012c4:    2800        .(      CMP      r0,#0
        0x000012c6:    da0a        ..      BGE      0x12de ; __vfscanf + 794
        0x000012c8:    1c40        @.      ADDS     r0,r0,#1
        0x000012ca:    d106        ..      BNE      0x12da ; __vfscanf + 790
        0x000012cc:    980b        ..      LDR      r0,[sp,#0x2c]
        0x000012ce:    2800        .(      CMP      r0,#0
        0x000012d0:    d003        ..      BEQ      0x12da ; __vfscanf + 790
        0x000012d2:    2000        .       MOVS     r0,#0
        0x000012d4:    43c0        .C      MVNS     r0,r0
        0x000012d6:    b00f        ..      ADD      sp,sp,#0x3c
        0x000012d8:    bdf0        ..      POP      {r4-r7,pc}
        0x000012da:    980a        ..      LDR      r0,[sp,#0x28]
        0x000012dc:    e7fb        ..      B        0x12d6 ; __vfscanf + 786
        0x000012de:    07e9        ..      LSLS     r1,r5,#31
        0x000012e0:    d102        ..      BNE      0x12e8 ; __vfscanf + 804
        0x000012e2:    990a        ..      LDR      r1,[sp,#0x28]
        0x000012e4:    1c49        I.      ADDS     r1,r1,#1
        0x000012e6:    910a        ..      STR      r1,[sp,#0x28]
        0x000012e8:    1836        6.      ADDS     r6,r6,r0
        0x000012ea:    2000        .       MOVS     r0,#0
        0x000012ec:    900b        ..      STR      r0,[sp,#0x2c]
        0x000012ee:    e674        t.      B        0xfda ; __vfscanf + 22
    $d
        0x000012f0:    0ccccccc    ....    DCD    214748364
        0x000012f4:    7fffffff    ....    DCD    2147483647
        0x000012f8:    fffff7f1    ....    DCD    4294965233
    $t
    .text
    _double_round
        0x000012fc:    b510        ..      PUSH     {r4,lr}
        0x000012fe:    2b00        .+      CMP      r3,#0
        0x00001300:    da08        ..      BGE      0x1314 ; _double_round + 24
        0x00001302:    2400        .$      MOVS     r4,#0
        0x00001304:    1c40        @.      ADDS     r0,r0,#1
        0x00001306:    4161        aA      ADCS     r1,r1,r4
        0x00001308:    1892        ..      ADDS     r2,r2,r2
        0x0000130a:    415b        [A      ADCS     r3,r3,r3
        0x0000130c:    431a        .C      ORRS     r2,r2,r3
        0x0000130e:    d101        ..      BNE      0x1314 ; _double_round + 24
        0x00001310:    0840        @.      LSRS     r0,r0,#1
        0x00001312:    0040        @.      LSLS     r0,r0,#1
        0x00001314:    bd10        ..      POP      {r4,pc}
    _double_epilogue
        0x00001316:    b5f0        ..      PUSH     {r4-r7,lr}
        0x00001318:    b41f        ..      PUSH     {r0-r4}
        0x0000131a:    b082        ..      SUB      sp,sp,#8
        0x0000131c:    4605        .F      MOV      r5,r0
        0x0000131e:    000c        ..      MOVS     r4,r1
        0x00001320:    d003        ..      BEQ      0x132a ; _double_epilogue + 20
        0x00001322:    4608        .F      MOV      r0,r1
        0x00001324:    f003f9ac    ....    BL       __ARM_clz ; 0x4680
        0x00001328:    e002        ..      B        0x1330 ; _double_epilogue + 26
        0x0000132a:    f003f9a9    ....    BL       __ARM_clz ; 0x4680
        0x0000132e:    3020         0      ADDS     r0,r0,#0x20
        0x00001330:    4602        .F      MOV      r2,r0
        0x00001332:    9000        ..      STR      r0,[sp,#0]
        0x00001334:    4621        !F      MOV      r1,r4
        0x00001336:    4628        (F      MOV      r0,r5
        0x00001338:    f7feffa8    ....    BL       __aeabi_llsl ; 0x28c
        0x0000133c:    9b04        ..      LDR      r3,[sp,#0x10]
        0x0000133e:    9a05        ..      LDR      r2,[sp,#0x14]
        0x00001340:    4604        .F      MOV      r4,r0
        0x00001342:    460f        .F      MOV      r7,r1
        0x00001344:    4318        .C      ORRS     r0,r0,r3
        0x00001346:    4311        .C      ORRS     r1,r1,r2
        0x00001348:    4308        .C      ORRS     r0,r0,r1
        0x0000134a:    d014        ..      BEQ      0x1376 ; _double_epilogue + 96
        0x0000134c:    4618        .F      MOV      r0,r3
        0x0000134e:    4310        .C      ORRS     r0,r0,r2
        0x00001350:    d01b        ..      BEQ      0x138a ; _double_epilogue + 116
        0x00001352:    9800        ..      LDR      r0,[sp,#0]
        0x00001354:    2140        @!      MOVS     r1,#0x40
        0x00001356:    1a0a        ..      SUBS     r2,r1,r0
        0x00001358:    4618        .F      MOV      r0,r3
        0x0000135a:    9905        ..      LDR      r1,[sp,#0x14]
        0x0000135c:    f7feffa6    ....    BL       __aeabi_llsr ; 0x2ac
        0x00001360:    4605        .F      MOV      r5,r0
        0x00001362:    460e        .F      MOV      r6,r1
        0x00001364:    9a00        ..      LDR      r2,[sp,#0]
        0x00001366:    9905        ..      LDR      r1,[sp,#0x14]
        0x00001368:    9804        ..      LDR      r0,[sp,#0x10]
        0x0000136a:    f7feff8f    ....    BL       __aeabi_llsl ; 0x28c
        0x0000136e:    4308        .C      ORRS     r0,r0,r1
        0x00001370:    d005        ..      BEQ      0x137e ; _double_epilogue + 104
        0x00001372:    2001        .       MOVS     r0,#1
        0x00001374:    e004        ..      B        0x1380 ; _double_epilogue + 106
        0x00001376:    4620         F      MOV      r0,r4
        0x00001378:    4639        9F      MOV      r1,r7
        0x0000137a:    b007        ..      ADD      sp,sp,#0x1c
        0x0000137c:    bdf0        ..      POP      {r4-r7,pc}
        0x0000137e:    2000        .       MOVS     r0,#0
        0x00001380:    17c1        ..      ASRS     r1,r0,#31
        0x00001382:    4305        .C      ORRS     r5,r5,r0
        0x00001384:    430e        .C      ORRS     r6,r6,r1
        0x00001386:    432c        ,C      ORRS     r4,r4,r5
        0x00001388:    4337        7C      ORRS     r7,r7,r6
        0x0000138a:    9900        ..      LDR      r1,[sp,#0]
        0x0000138c:    980e        ..      LDR      r0,[sp,#0x38]
        0x0000138e:    0563        c.      LSLS     r3,r4,#21
        0x00001390:    1a40        @.      SUBS     r0,r0,r1
        0x00001392:    0579        y.      LSLS     r1,r7,#21
        0x00001394:    0ae4        ..      LSRS     r4,r4,#11
        0x00001396:    2200        ."      MOVS     r2,#0
        0x00001398:    430c        .C      ORRS     r4,r4,r1
        0x0000139a:    0afd        ..      LSRS     r5,r7,#11
        0x0000139c:    300a        .0      ADDS     r0,r0,#0xa
        0x0000139e:    d502        ..      BPL      0x13a6 ; _double_epilogue + 144
        0x000013a0:    2000        .       MOVS     r0,#0
        0x000013a2:    4601        .F      MOV      r1,r0
        0x000013a4:    e7e9        ..      B        0x137a ; _double_epilogue + 100
        0x000013a6:    0501        ..      LSLS     r1,r0,#20
        0x000013a8:    1910        ..      ADDS     r0,r2,r4
        0x000013aa:    4169        iA      ADCS     r1,r1,r5
        0x000013ac:    9c0c        ..      LDR      r4,[sp,#0x30]
        0x000013ae:    9d0d        ..      LDR      r5,[sp,#0x34]
        0x000013b0:    1900        ..      ADDS     r0,r0,r4
        0x000013b2:    4169        iA      ADCS     r1,r1,r5
        0x000013b4:    f7ffffa2    ....    BL       _double_round ; 0x12fc
        0x000013b8:    e7df        ..      B        0x137a ; _double_epilogue + 100
        0x000013ba:    0000        ..      MOVS     r0,r0
    .text
    __aeabi_ul2d
        0x000013bc:    b50e        ..      PUSH     {r1-r3,lr}
        0x000013be:    4a05        .J      LDR      r2,[pc,#20] ; [0x13d4] = 0x433
        0x000013c0:    9202        ..      STR      r2,[sp,#8]
        0x000013c2:    2200        ."      MOVS     r2,#0
        0x000013c4:    9200        ..      STR      r2,[sp,#0]
        0x000013c6:    4613        .F      MOV      r3,r2
        0x000013c8:    9201        ..      STR      r2,[sp,#4]
        0x000013ca:    f7ffffa4    ....    BL       _double_epilogue ; 0x1316
        0x000013ce:    b003        ..      ADD      sp,sp,#0xc
        0x000013d0:    bd00        ..      POP      {pc}
    $d
        0x000013d2:    0000        ..      DCW    0
        0x000013d4:    00000433    3...    DCD    1075
    $t
    .text
    __aeabi_d2f
        0x000013d8:    0fcb        ..      LSRS     r3,r1,#31
        0x000013da:    07db        ..      LSLS     r3,r3,#31
        0x000013dc:    0049        I.      LSLS     r1,r1,#1
        0x000013de:    b510        ..      PUSH     {r4,lr}
        0x000013e0:    0849        I.      LSRS     r1,r1,#1
        0x000013e2:    4602        .F      MOV      r2,r0
        0x000013e4:    430a        .C      ORRS     r2,r2,r1
        0x000013e6:    d007        ..      BEQ      0x13f8 ; __aeabi_d2f + 32
        0x000013e8:    0d0a        ..      LSRS     r2,r1,#20
        0x000013ea:    2407        .$      MOVS     r4,#7
        0x000013ec:    0309        ..      LSLS     r1,r1,#12
        0x000013ee:    01e4        ..      LSLS     r4,r4,#7
        0x000013f0:    0b09        ..      LSRS     r1,r1,#12
        0x000013f2:    1b12        ..      SUBS     r2,r2,r4
        0x000013f4:    2a00        .*      CMP      r2,#0
        0x000013f6:    dc01        ..      BGT      0x13fc ; __aeabi_d2f + 36
        0x000013f8:    2000        .       MOVS     r0,#0
        0x000013fa:    bd10        ..      POP      {r4,pc}
        0x000013fc:    00c9        ..      LSLS     r1,r1,#3
        0x000013fe:    0f44        D.      LSRS     r4,r0,#29
        0x00001400:    430c        .C      ORRS     r4,r4,r1
        0x00001402:    00c1        ..      LSLS     r1,r0,#3
        0x00001404:    18e0        ..      ADDS     r0,r4,r3
        0x00001406:    05d2        ..      LSLS     r2,r2,#23
        0x00001408:    1880        ..      ADDS     r0,r0,r2
        0x0000140a:    f000f813    ....    BL       _float_round ; 0x1434
        0x0000140e:    bd10        ..      POP      {r4,pc}
    .text
    __ctype_lookup
        0x00001410:    287f        .(      CMP      r0,#0x7f
        0x00001412:    d901        ..      BLS      0x1418 ; __ctype_lookup + 8
        0x00001414:    2200        ."      MOVS     r2,#0
        0x00001416:    e007        ..      B        0x1428 ; __ctype_lookup + 24
        0x00001418:    4b05        .K      LDR      r3,[pc,#20] ; [0x1430] = 0x4f92
        0x0000141a:    0842        B.      LSRS     r2,r0,#1
        0x0000141c:    5c9a        .\      LDRB     r2,[r3,r2]
        0x0000141e:    07c0        ..      LSLS     r0,r0,#31
        0x00001420:    d100        ..      BNE      0x1424 ; __ctype_lookup + 20
        0x00001422:    0912        ..      LSRS     r2,r2,#4
        0x00001424:    0712        ..      LSLS     r2,r2,#28
        0x00001426:    0f12        ..      LSRS     r2,r2,#28
        0x00001428:    2001        .       MOVS     r0,#1
        0x0000142a:    4090        .@      LSLS     r0,r0,r2
        0x0000142c:    4008        .@      ANDS     r0,r0,r1
        0x0000142e:    4770        pG      BX       lr
    $d
        0x00001430:    00004f92    .O..    DCD    20370
    $t
    .text
    _float_round
        0x00001434:    2900        .)      CMP      r1,#0
        0x00001436:    da04        ..      BGE      0x1442 ; _float_round + 14
        0x00001438:    1c40        @.      ADDS     r0,r0,#1
        0x0000143a:    0049        I.      LSLS     r1,r1,#1
        0x0000143c:    d101        ..      BNE      0x1442 ; _float_round + 14
        0x0000143e:    0840        @.      LSRS     r0,r0,#1
        0x00001440:    0040        @.      LSLS     r0,r0,#1
        0x00001442:    4770        pG      BX       lr
    _float_epilogue
        0x00001444:    b470        p.      PUSH     {r4-r6}
        0x00001446:    2400        .$      MOVS     r4,#0
        0x00001448:    0c05        ..      LSRS     r5,r0,#16
        0x0000144a:    d105        ..      BNE      0x1458 ; _float_epilogue + 20
        0x0000144c:    2410        .$      MOVS     r4,#0x10
        0x0000144e:    0400        ..      LSLS     r0,r0,#16
        0x00001450:    d102        ..      BNE      0x1458 ; _float_epilogue + 20
        0x00001452:    2900        .)      CMP      r1,#0
        0x00001454:    d021        !.      BEQ      0x149a ; _float_epilogue + 86
        0x00001456:    2411        .$      MOVS     r4,#0x11
        0x00001458:    0e05        ..      LSRS     r5,r0,#24
        0x0000145a:    d101        ..      BNE      0x1460 ; _float_epilogue + 28
        0x0000145c:    0200        ..      LSLS     r0,r0,#8
        0x0000145e:    3408        .4      ADDS     r4,r4,#8
        0x00001460:    0f05        ..      LSRS     r5,r0,#28
        0x00001462:    d101        ..      BNE      0x1468 ; _float_epilogue + 36
        0x00001464:    0100        ..      LSLS     r0,r0,#4
        0x00001466:    1d24        $.      ADDS     r4,r4,#4
        0x00001468:    0f85        ..      LSRS     r5,r0,#30
        0x0000146a:    d101        ..      BNE      0x1470 ; _float_epilogue + 44
        0x0000146c:    0080        ..      LSLS     r0,r0,#2
        0x0000146e:    1ca4        ..      ADDS     r4,r4,#2
        0x00001470:    2800        .(      CMP      r0,#0
        0x00001472:    db01        ..      BLT      0x1478 ; _float_epilogue + 52
        0x00001474:    0040        @.      LSLS     r0,r0,#1
        0x00001476:    1c64        d.      ADDS     r4,r4,#1
        0x00001478:    2900        .)      CMP      r1,#0
        0x0000147a:    d008        ..      BEQ      0x148e ; _float_epilogue + 74
        0x0000147c:    2520         %      MOVS     r5,#0x20
        0x0000147e:    1b2e        ..      SUBS     r6,r5,r4
        0x00001480:    460d        .F      MOV      r5,r1
        0x00001482:    40f5        .@      LSRS     r5,r5,r6
        0x00001484:    40a1        .@      LSLS     r1,r1,r4
        0x00001486:    d000        ..      BEQ      0x148a ; _float_epilogue + 70
        0x00001488:    2101        .!      MOVS     r1,#1
        0x0000148a:    4329        )C      ORRS     r1,r1,r5
        0x0000148c:    4308        .C      ORRS     r0,r0,r1
        0x0000148e:    0601        ..      LSLS     r1,r0,#24
        0x00001490:    1b1b        ..      SUBS     r3,r3,r4
        0x00001492:    0a00        ..      LSRS     r0,r0,#8
        0x00001494:    1ddb        ..      ADDS     r3,r3,#7
        0x00001496:    d502        ..      BPL      0x149e ; _float_epilogue + 90
        0x00001498:    2000        .       MOVS     r0,#0
        0x0000149a:    bc70        p.      POP      {r4-r6}
        0x0000149c:    4770        pG      BX       lr
        0x0000149e:    05db        ..      LSLS     r3,r3,#23
        0x000014a0:    1818        ..      ADDS     r0,r3,r0
        0x000014a2:    1880        ..      ADDS     r0,r0,r2
        0x000014a4:    2900        .)      CMP      r1,#0
        0x000014a6:    daf8        ..      BGE      0x149a ; _float_epilogue + 86
        0x000014a8:    1c40        @.      ADDS     r0,r0,#1
        0x000014aa:    0049        I.      LSLS     r1,r1,#1
        0x000014ac:    d1f5        ..      BNE      0x149a ; _float_epilogue + 86
        0x000014ae:    bc70        p.      POP      {r4-r6}
        0x000014b0:    0840        @.      LSRS     r0,r0,#1
        0x000014b2:    0040        @.      LSLS     r0,r0,#1
        0x000014b4:    4770        pG      BX       lr
        0x000014b6:    0000        ..      MOVS     r0,r0
    $t.36
    CLK_EnableModuleClock
        0x000014b8:    b083        ..      SUB      sp,sp,#0xc
        0x000014ba:    9002        ..      STR      r0,[sp,#8]
        0x000014bc:    2000        .       MOVS     r0,#0
        0x000014be:    9001        ..      STR      r0,[sp,#4]
        0x000014c0:    9000        ..      STR      r0,[sp,#0]
        0x000014c2:    9902        ..      LDR      r1,[sp,#8]
        0x000014c4:    201f        .       MOVS     r0,#0x1f
        0x000014c6:    4001        .@      ANDS     r1,r1,r0
        0x000014c8:    2001        .       MOVS     r0,#1
        0x000014ca:    4088        .@      LSLS     r0,r0,r1
        0x000014cc:    9001        ..      STR      r0,[sp,#4]
        0x000014ce:    4807        .H      LDR      r0,[pc,#28] ; [0x14ec] = 0x40000204
        0x000014d0:    9000        ..      STR      r0,[sp,#0]
        0x000014d2:    9802        ..      LDR      r0,[sp,#8]
        0x000014d4:    0f80        ..      LSRS     r0,r0,#30
        0x000014d6:    0081        ..      LSLS     r1,r0,#2
        0x000014d8:    9800        ..      LDR      r0,[sp,#0]
        0x000014da:    1840        @.      ADDS     r0,r0,r1
        0x000014dc:    9000        ..      STR      r0,[sp,#0]
        0x000014de:    9a01        ..      LDR      r2,[sp,#4]
        0x000014e0:    9900        ..      LDR      r1,[sp,#0]
        0x000014e2:    6808        .h      LDR      r0,[r1,#0]
        0x000014e4:    4310        .C      ORRS     r0,r0,r2
        0x000014e6:    6008        .`      STR      r0,[r1,#0]
        0x000014e8:    b003        ..      ADD      sp,sp,#0xc
        0x000014ea:    4770        pG      BX       lr
    $d.37
    __arm_cp.18_0
        0x000014ec:    40000204    ...@    DCD    1073742340
    $t.24
    CLK_EnablePLL
        0x000014f0:    b580        ..      PUSH     {r7,lr}
        0x000014f2:    b08e        ..      SUB      sp,sp,#0x38
        0x000014f4:    900d        ..      STR      r0,[sp,#0x34]
        0x000014f6:    910c        ..      STR      r1,[sp,#0x30]
        0x000014f8:    49cc        .I      LDR      r1,[pc,#816] ; [0x182c] = 0x40000240
        0x000014fa:    6808        .h      LDR      r0,[r1,#0]
        0x000014fc:    2201        ."      MOVS     r2,#1
        0x000014fe:    0412        ..      LSLS     r2,r2,#16
        0x00001500:    4310        .C      ORRS     r0,r0,r2
        0x00001502:    6008        .`      STR      r0,[r1,#0]
        0x00001504:    980d        ..      LDR      r0,[sp,#0x34]
        0x00001506:    b950        P.      CBNZ     r0,0x151e ; CLK_EnablePLL + 46
        0x00001508:    e7ff        ..      B        0x150a ; CLK_EnablePLL + 26
        0x0000150a:    4a74        tJ      LDR      r2,[pc,#464] ; [0x16dc] = 0x40000200
        0x0000150c:    6811        .h      LDR      r1,[r2,#0]
        0x0000150e:    2001        .       MOVS     r0,#1
        0x00001510:    4301        .C      ORRS     r1,r1,r0
        0x00001512:    6011        .`      STR      r1,[r2,#0]
        0x00001514:    f000fc98    ....    BL       CLK_WaitClockReady ; 0x1e48
        0x00001518:    48c5        .H      LDR      r0,[pc,#788] ; [0x1830] = 0xb71b00
        0x0000151a:    900b        ..      STR      r0,[sp,#0x2c]
        0x0000151c:    e00a        ..      B        0x1534 ; CLK_EnablePLL + 68
        0x0000151e:    496f        oI      LDR      r1,[pc,#444] ; [0x16dc] = 0x40000200
        0x00001520:    6808        .h      LDR      r0,[r1,#0]
        0x00001522:    2204        ."      MOVS     r2,#4
        0x00001524:    4310        .C      ORRS     r0,r0,r2
        0x00001526:    6008        .`      STR      r0,[r1,#0]
        0x00001528:    2010        .       MOVS     r0,#0x10
        0x0000152a:    f000fc8d    ....    BL       CLK_WaitClockReady ; 0x1e48
        0x0000152e:    48c0        .H      LDR      r0,[pc,#768] ; [0x1830] = 0xb71b00
        0x00001530:    900b        ..      STR      r0,[sp,#0x2c]
        0x00001532:    e7ff        ..      B        0x1534 ; CLK_EnablePLL + 68
        0x00001534:    980c        ..      LDR      r0,[sp,#0x30]
        0x00001536:    495a        ZI      LDR      r1,[pc,#360] ; [0x16a0] = 0xbebc200
        0x00001538:    4288        .B      CMP      r0,r1
        0x0000153a:    d900        ..      BLS      0x153e ; CLK_EnablePLL + 78
        0x0000153c:    e0a2        ..      B        0x1684 ; CLK_EnablePLL + 404
        0x0000153e:    980c        ..      LDR      r0,[sp,#0x30]
        0x00001540:    4958        XI      LDR      r1,[pc,#352] ; [0x16a4] = 0x16e3600
        0x00001542:    4288        .B      CMP      r0,r1
        0x00001544:    d200        ..      BCS      0x1548 ; CLK_EnablePLL + 88
        0x00001546:    e09d        ..      B        0x1684 ; CLK_EnablePLL + 404
        0x00001548:    980c        ..      LDR      r0,[sp,#0x30]
        0x0000154a:    4959        YI      LDR      r1,[pc,#356] ; [0x16b0] = 0x2dc6bff
        0x0000154c:    4288        .B      CMP      r0,r1
        0x0000154e:    d80b        ..      BHI      0x1568 ; CLK_EnablePLL + 120
        0x00001550:    e7ff        ..      B        0x1552 ; CLK_EnablePLL + 98
        0x00001552:    980c        ..      LDR      r0,[sp,#0x30]
        0x00001554:    4953        SI      LDR      r1,[pc,#332] ; [0x16a4] = 0x16e3600
        0x00001556:    4288        .B      CMP      r0,r1
        0x00001558:    d306        ..      BCC      0x1568 ; CLK_EnablePLL + 120
        0x0000155a:    e7ff        ..      B        0x155c ; CLK_EnablePLL + 108
        0x0000155c:    2003        .       MOVS     r0,#3
        0x0000155e:    9008        ..      STR      r0,[sp,#0x20]
        0x00001560:    980c        ..      LDR      r0,[sp,#0x30]
        0x00001562:    0080        ..      LSLS     r0,r0,#2
        0x00001564:    900c        ..      STR      r0,[sp,#0x30]
        0x00001566:    e013        ..      B        0x1590 ; CLK_EnablePLL + 160
        0x00001568:    980c        ..      LDR      r0,[sp,#0x30]
        0x0000156a:    4952        RI      LDR      r1,[pc,#328] ; [0x16b4] = 0x5b8d7ff
        0x0000156c:    4288        .B      CMP      r0,r1
        0x0000156e:    d80b        ..      BHI      0x1588 ; CLK_EnablePLL + 152
        0x00001570:    e7ff        ..      B        0x1572 ; CLK_EnablePLL + 130
        0x00001572:    980c        ..      LDR      r0,[sp,#0x30]
        0x00001574:    494d        MI      LDR      r1,[pc,#308] ; [0x16ac] = 0x2dc6c00
        0x00001576:    4288        .B      CMP      r0,r1
        0x00001578:    d306        ..      BCC      0x1588 ; CLK_EnablePLL + 152
        0x0000157a:    e7ff        ..      B        0x157c ; CLK_EnablePLL + 140
        0x0000157c:    2001        .       MOVS     r0,#1
        0x0000157e:    9008        ..      STR      r0,[sp,#0x20]
        0x00001580:    980c        ..      LDR      r0,[sp,#0x30]
        0x00001582:    0040        @.      LSLS     r0,r0,#1
        0x00001584:    900c        ..      STR      r0,[sp,#0x30]
        0x00001586:    e002        ..      B        0x158e ; CLK_EnablePLL + 158
        0x00001588:    2000        .       MOVS     r0,#0
        0x0000158a:    9008        ..      STR      r0,[sp,#0x20]
        0x0000158c:    e7ff        ..      B        0x158e ; CLK_EnablePLL + 158
        0x0000158e:    e7ff        ..      B        0x1590 ; CLK_EnablePLL + 160
        0x00001590:    2003        .       MOVS     r0,#3
        0x00001592:    900a        ..      STR      r0,[sp,#0x28]
        0x00001594:    2000        .       MOVS     r0,#0
        0x00001596:    43c1        .C      MVNS     r1,r0
        0x00001598:    9103        ..      STR      r1,[sp,#0xc]
        0x0000159a:    9001        ..      STR      r0,[sp,#4]
        0x0000159c:    9002        ..      STR      r0,[sp,#8]
        0x0000159e:    e7ff        ..      B        0x15a0 ; CLK_EnablePLL + 176
        0x000015a0:    980a        ..      LDR      r0,[sp,#0x28]
        0x000015a2:    2820         (      CMP      r0,#0x20
        0x000015a4:    d853        S.      BHI      0x164e ; CLK_EnablePLL + 350
        0x000015a6:    e7ff        ..      B        0x15a8 ; CLK_EnablePLL + 184
        0x000015a8:    980b        ..      LDR      r0,[sp,#0x2c]
        0x000015aa:    990a        ..      LDR      r1,[sp,#0x28]
        0x000015ac:    fbb0f0f1    ....    UDIV     r0,r0,r1
        0x000015b0:    9006        ..      STR      r0,[sp,#0x18]
        0x000015b2:    9806        ..      LDR      r0,[sp,#0x18]
        0x000015b4:    4940        @I      LDR      r1,[pc,#256] ; [0x16b8] = 0x1e8480
        0x000015b6:    4288        .B      CMP      r0,r1
        0x000015b8:    d344        D.      BCC      0x1644 ; CLK_EnablePLL + 340
        0x000015ba:    e7ff        ..      B        0x15bc ; CLK_EnablePLL + 204
        0x000015bc:    9806        ..      LDR      r0,[sp,#0x18]
        0x000015be:    493f        ?I      LDR      r1,[pc,#252] ; [0x16bc] = 0x7a1200
        0x000015c0:    4288        .B      CMP      r0,r1
        0x000015c2:    d83f        ?.      BHI      0x1644 ; CLK_EnablePLL + 340
        0x000015c4:    e7ff        ..      B        0x15c6 ; CLK_EnablePLL + 214
        0x000015c6:    2002        .       MOVS     r0,#2
        0x000015c8:    9009        ..      STR      r0,[sp,#0x24]
        0x000015ca:    e7ff        ..      B        0x15cc ; CLK_EnablePLL + 220
        0x000015cc:    9809        ..      LDR      r0,[sp,#0x24]
        0x000015ce:    493c        <I      LDR      r1,[pc,#240] ; [0x16c0] = 0x201
        0x000015d0:    4288        .B      CMP      r0,r1
        0x000015d2:    d836        6.      BHI      0x1642 ; CLK_EnablePLL + 338
        0x000015d4:    e7ff        ..      B        0x15d6 ; CLK_EnablePLL + 230
        0x000015d6:    9906        ..      LDR      r1,[sp,#0x18]
        0x000015d8:    9809        ..      LDR      r0,[sp,#0x24]
        0x000015da:    4348        HC      MULS     r0,r1,r0
        0x000015dc:    0040        @.      LSLS     r0,r0,#1
        0x000015de:    9005        ..      STR      r0,[sp,#0x14]
        0x000015e0:    9805        ..      LDR      r0,[sp,#0x14]
        0x000015e2:    4938        8I      LDR      r1,[pc,#224] ; [0x16c4] = 0x5b8d800
        0x000015e4:    4288        .B      CMP      r0,r1
        0x000015e6:    d327        '.      BCC      0x1638 ; CLK_EnablePLL + 328
        0x000015e8:    e7ff        ..      B        0x15ea ; CLK_EnablePLL + 250
        0x000015ea:    9805        ..      LDR      r0,[sp,#0x14]
        0x000015ec:    492c        ,I      LDR      r1,[pc,#176] ; [0x16a0] = 0xbebc200
        0x000015ee:    4288        .B      CMP      r0,r1
        0x000015f0:    d822        ".      BHI      0x1638 ; CLK_EnablePLL + 328
        0x000015f2:    e7ff        ..      B        0x15f4 ; CLK_EnablePLL + 260
        0x000015f4:    9805        ..      LDR      r0,[sp,#0x14]
        0x000015f6:    990c        ..      LDR      r1,[sp,#0x30]
        0x000015f8:    4288        .B      CMP      r0,r1
        0x000015fa:    d905        ..      BLS      0x1608 ; CLK_EnablePLL + 280
        0x000015fc:    e7ff        ..      B        0x15fe ; CLK_EnablePLL + 270
        0x000015fe:    9805        ..      LDR      r0,[sp,#0x14]
        0x00001600:    990c        ..      LDR      r1,[sp,#0x30]
        0x00001602:    1a40        @.      SUBS     r0,r0,r1
        0x00001604:    9000        ..      STR      r0,[sp,#0]
        0x00001606:    e004        ..      B        0x1612 ; CLK_EnablePLL + 290
        0x00001608:    980c        ..      LDR      r0,[sp,#0x30]
        0x0000160a:    9905        ..      LDR      r1,[sp,#0x14]
        0x0000160c:    1a40        @.      SUBS     r0,r0,r1
        0x0000160e:    9000        ..      STR      r0,[sp,#0]
        0x00001610:    e7ff        ..      B        0x1612 ; CLK_EnablePLL + 290
        0x00001612:    9800        ..      LDR      r0,[sp,#0]
        0x00001614:    9004        ..      STR      r0,[sp,#0x10]
        0x00001616:    9804        ..      LDR      r0,[sp,#0x10]
        0x00001618:    9903        ..      LDR      r1,[sp,#0xc]
        0x0000161a:    4288        .B      CMP      r0,r1
        0x0000161c:    d20b        ..      BCS      0x1636 ; CLK_EnablePLL + 326
        0x0000161e:    e7ff        ..      B        0x1620 ; CLK_EnablePLL + 304
        0x00001620:    9804        ..      LDR      r0,[sp,#0x10]
        0x00001622:    9003        ..      STR      r0,[sp,#0xc]
        0x00001624:    980a        ..      LDR      r0,[sp,#0x28]
        0x00001626:    9001        ..      STR      r0,[sp,#4]
        0x00001628:    9809        ..      LDR      r0,[sp,#0x24]
        0x0000162a:    9002        ..      STR      r0,[sp,#8]
        0x0000162c:    9803        ..      LDR      r0,[sp,#0xc]
        0x0000162e:    b908        ..      CBNZ     r0,0x1634 ; CLK_EnablePLL + 324
        0x00001630:    e7ff        ..      B        0x1632 ; CLK_EnablePLL + 322
        0x00001632:    e006        ..      B        0x1642 ; CLK_EnablePLL + 338
        0x00001634:    e7ff        ..      B        0x1636 ; CLK_EnablePLL + 326
        0x00001636:    e7ff        ..      B        0x1638 ; CLK_EnablePLL + 328
        0x00001638:    e7ff        ..      B        0x163a ; CLK_EnablePLL + 330
        0x0000163a:    9809        ..      LDR      r0,[sp,#0x24]
        0x0000163c:    1c40        @.      ADDS     r0,r0,#1
        0x0000163e:    9009        ..      STR      r0,[sp,#0x24]
        0x00001640:    e7c4        ..      B        0x15cc ; CLK_EnablePLL + 220
        0x00001642:    e7ff        ..      B        0x1644 ; CLK_EnablePLL + 340
        0x00001644:    e7ff        ..      B        0x1646 ; CLK_EnablePLL + 342
        0x00001646:    980a        ..      LDR      r0,[sp,#0x28]
        0x00001648:    1c40        @.      ADDS     r0,r0,#1
        0x0000164a:    900a        ..      STR      r0,[sp,#0x28]
        0x0000164c:    e7a8        ..      B        0x15a0 ; CLK_EnablePLL + 176
        0x0000164e:    980d        ..      LDR      r0,[sp,#0x34]
        0x00001650:    9908        ..      LDR      r1,[sp,#0x20]
        0x00001652:    0389        ..      LSLS     r1,r1,#14
        0x00001654:    4308        .C      ORRS     r0,r0,r1
        0x00001656:    9901        ..      LDR      r1,[sp,#4]
        0x00001658:    0249        I.      LSLS     r1,r1,#9
        0x0000165a:    f2402200    @.."    MOVW     r2,#0x200
        0x0000165e:    1a89        ..      SUBS     r1,r1,r2
        0x00001660:    4308        .C      ORRS     r0,r0,r1
        0x00001662:    9902        ..      LDR      r1,[sp,#8]
        0x00001664:    1e89        ..      SUBS     r1,r1,#2
        0x00001666:    4308        .C      ORRS     r0,r0,r1
        0x00001668:    4970        pI      LDR      r1,[pc,#448] ; [0x182c] = 0x40000240
        0x0000166a:    6008        .`      STR      r0,[r1,#0]
        0x0000166c:    980b        ..      LDR      r0,[sp,#0x2c]
        0x0000166e:    9908        ..      LDR      r1,[sp,#0x20]
        0x00001670:    1c4a        J.      ADDS     r2,r1,#1
        0x00001672:    9901        ..      LDR      r1,[sp,#4]
        0x00001674:    4351        QC      MULS     r1,r2,r1
        0x00001676:    fbb0f0f1    ....    UDIV     r0,r0,r1
        0x0000167a:    9902        ..      LDR      r1,[sp,#8]
        0x0000167c:    4348        HC      MULS     r0,r1,r0
        0x0000167e:    0040        @.      LSLS     r0,r0,#1
        0x00001680:    9007        ..      STR      r0,[sp,#0x1c]
        0x00001682:    e007        ..      B        0x1694 ; CLK_EnablePLL + 420
        0x00001684:    980d        ..      LDR      r0,[sp,#0x34]
        0x00001686:    4908        .I      LDR      r1,[pc,#32] ; [0x16a8] = 0xc20e
        0x00001688:    4308        .C      ORRS     r0,r0,r1
        0x0000168a:    4968        hI      LDR      r1,[pc,#416] ; [0x182c] = 0x40000240
        0x0000168c:    6008        .`      STR      r0,[r1,#0]
        0x0000168e:    4807        .H      LDR      r0,[pc,#28] ; [0x16ac] = 0x2dc6c00
        0x00001690:    9007        ..      STR      r0,[sp,#0x1c]
        0x00001692:    e7ff        ..      B        0x1694 ; CLK_EnablePLL + 420
        0x00001694:    2004        .       MOVS     r0,#4
        0x00001696:    f000fbd7    ....    BL       CLK_WaitClockReady ; 0x1e48
        0x0000169a:    9807        ..      LDR      r0,[sp,#0x1c]
        0x0000169c:    b00e        ..      ADD      sp,sp,#0x38
        0x0000169e:    bd80        ..      POP      {r7,pc}
    $d.25
    __arm_cp.12_3
        0x000016a0:    0bebc200    ....    DCD    200000000
    __arm_cp.12_4
        0x000016a4:    016e3600    .6n.    DCD    24000000
    __arm_cp.12_5
        0x000016a8:    0000c20e    ....    DCD    49678
    __arm_cp.12_6
        0x000016ac:    02dc6c00    .l..    DCD    48000000
    __arm_cp.12_7
        0x000016b0:    02dc6bff    .k..    DCD    47999999
    __arm_cp.12_8
        0x000016b4:    05b8d7ff    ....    DCD    95999999
    __arm_cp.12_9
        0x000016b8:    001e8480    ....    DCD    2000000
    __arm_cp.12_10
        0x000016bc:    007a1200    ..z.    DCD    8000000
    __arm_cp.12_11
        0x000016c0:    00000201    ....    DCD    513
    __arm_cp.12_12
        0x000016c4:    05b8d800    ....    DCD    96000000
    $t.32
    CLK_EnableXtalRC
        0x000016c8:    b081        ..      SUB      sp,sp,#4
        0x000016ca:    9000        ..      STR      r0,[sp,#0]
        0x000016cc:    9a00        ..      LDR      r2,[sp,#0]
        0x000016ce:    4903        .I      LDR      r1,[pc,#12] ; [0x16dc] = 0x40000200
        0x000016d0:    6808        .h      LDR      r0,[r1,#0]
        0x000016d2:    4310        .C      ORRS     r0,r0,r2
        0x000016d4:    6008        .`      STR      r0,[r1,#0]
        0x000016d6:    b001        ..      ADD      sp,sp,#4
        0x000016d8:    4770        pG      BX       lr
        0x000016da:    46c0        .F      MOV      r8,r8
    $d.33
    __arm_cp.16_0
        0x000016dc:    40000200    ...@    DCD    1073742336
    $t.18
    CLK_GetCPUFreq
        0x000016e0:    b5b0        ..      PUSH     {r4,r5,r7,lr}
        0x000016e2:    b092        ..      SUB      sp,sp,#0x48
        0x000016e4:    4950        PI      LDR      r1,[pc,#320] ; [0x1828] = 0xa77c
        0x000016e6:    a807        ..      ADD      r0,sp,#0x1c
        0x000016e8:    c93c        <.      LDM      r1!,{r2-r5}
        0x000016ea:    c03c        <.      STM      r0!,{r2-r5}
        0x000016ec:    c93c        <.      LDM      r1!,{r2-r5}
        0x000016ee:    c03c        <.      STM      r0!,{r2-r5}
        0x000016f0:    48de        .H      LDR      r0,[pc,#888] ; [0x1a6c] = 0x4020201
        0x000016f2:    9001        ..      STR      r0,[sp,#4]
        0x000016f4:    48a9        .H      LDR      r0,[pc,#676] ; [0x199c] = 0x40000208
        0x000016f6:    6800        .h      LDR      r0,[r0,#0]
        0x000016f8:    2102        .!      MOVS     r1,#2
        0x000016fa:    4008        .@      ANDS     r0,r0,r1
        0x000016fc:    9000        ..      STR      r0,[sp,#0]
        0x000016fe:    48dc        .H      LDR      r0,[pc,#880] ; [0x1a70] = 0x40000240
        0x00001700:    6800        .h      LDR      r0,[r0,#0]
        0x00001702:    9006        ..      STR      r0,[sp,#0x18]
        0x00001704:    a806        ..      ADD      r0,sp,#0x18
        0x00001706:    7880        .x      LDRB     r0,[r0,#2]
        0x00001708:    07c0        ..      LSLS     r0,r0,#31
        0x0000170a:    b120         .      CBZ      r0,0x1716 ; CLK_GetCPUFreq + 54
        0x0000170c:    e7ff        ..      B        0x170e ; CLK_GetCPUFreq + 46
        0x0000170e:    4949        II      LDR      r1,[pc,#292] ; [0x1834] = 0x20000004
        0x00001710:    2000        .       MOVS     r0,#0
        0x00001712:    6008        .`      STR      r0,[r1,#0]
        0x00001714:    e037        7.      B        0x1786 ; CLK_GetCPUFreq + 166
        0x00001716:    a806        ..      ADD      r0,sp,#0x18
        0x00001718:    7880        .x      LDRB     r0,[r0,#2]
        0x0000171a:    0700        ..      LSLS     r0,r0,#28
        0x0000171c:    2800        .(      CMP      r0,#0
        0x0000171e:    d503        ..      BPL      0x1728 ; CLK_GetCPUFreq + 72
        0x00001720:    e7ff        ..      B        0x1722 ; CLK_GetCPUFreq + 66
        0x00001722:    48d4        .H      LDR      r0,[pc,#848] ; [0x1a74] = 0xb71b00
        0x00001724:    9005        ..      STR      r0,[sp,#0x14]
        0x00001726:    e002        ..      B        0x172e ; CLK_GetCPUFreq + 78
        0x00001728:    48d2        .H      LDR      r0,[pc,#840] ; [0x1a74] = 0xb71b00
        0x0000172a:    9005        ..      STR      r0,[sp,#0x14]
        0x0000172c:    e7ff        ..      B        0x172e ; CLK_GetCPUFreq + 78
        0x0000172e:    a806        ..      ADD      r0,sp,#0x18
        0x00001730:    7880        .x      LDRB     r0,[r0,#2]
        0x00001732:    0780        ..      LSLS     r0,r0,#30
        0x00001734:    2800        .(      CMP      r0,#0
        0x00001736:    d504        ..      BPL      0x1742 ; CLK_GetCPUFreq + 98
        0x00001738:    e7ff        ..      B        0x173a ; CLK_GetCPUFreq + 90
        0x0000173a:    9805        ..      LDR      r0,[sp,#0x14]
        0x0000173c:    493d        =I      LDR      r1,[pc,#244] ; [0x1834] = 0x20000004
        0x0000173e:    6008        .`      STR      r0,[r1,#0]
        0x00001740:    e020         .      B        0x1784 ; CLK_GetCPUFreq + 164
        0x00001742:    a806        ..      ADD      r0,sp,#0x18
        0x00001744:    8800        ..      LDRH     r0,[r0,#0]
        0x00001746:    0b81        ..      LSRS     r1,r0,#14
        0x00001748:    a801        ..      ADD      r0,sp,#4
        0x0000174a:    1840        @.      ADDS     r0,r0,r1
        0x0000174c:    7800        .x      LDRB     r0,[r0,#0]
        0x0000174e:    9002        ..      STR      r0,[sp,#8]
        0x00001750:    9806        ..      LDR      r0,[sp,#0x18]
        0x00001752:    49c9        .I      LDR      r1,[pc,#804] ; [0x1a78] = 0x1ff
        0x00001754:    4008        .@      ANDS     r0,r0,r1
        0x00001756:    1c80        ..      ADDS     r0,r0,#2
        0x00001758:    9004        ..      STR      r0,[sp,#0x10]
        0x0000175a:    9806        ..      LDR      r0,[sp,#0x18]
        0x0000175c:    f6436100    C..a    MOVW     r1,#0x3e00
        0x00001760:    4008        .@      ANDS     r0,r0,r1
        0x00001762:    0a40        @.      LSRS     r0,r0,#9
        0x00001764:    1c40        @.      ADDS     r0,r0,#1
        0x00001766:    9003        ..      STR      r0,[sp,#0xc]
        0x00001768:    9805        ..      LDR      r0,[sp,#0x14]
        0x0000176a:    0880        ..      LSRS     r0,r0,#2
        0x0000176c:    9904        ..      LDR      r1,[sp,#0x10]
        0x0000176e:    4348        HC      MULS     r0,r1,r0
        0x00001770:    0040        @.      LSLS     r0,r0,#1
        0x00001772:    9a03        ..      LDR      r2,[sp,#0xc]
        0x00001774:    9902        ..      LDR      r1,[sp,#8]
        0x00001776:    4351        QC      MULS     r1,r2,r1
        0x00001778:    fbb0f0f1    ....    UDIV     r0,r0,r1
        0x0000177c:    0080        ..      LSLS     r0,r0,#2
        0x0000177e:    492d        -I      LDR      r1,[pc,#180] ; [0x1834] = 0x20000004
        0x00001780:    6008        .`      STR      r0,[r1,#0]
        0x00001782:    e7ff        ..      B        0x1784 ; CLK_GetCPUFreq + 164
        0x00001784:    e7ff        ..      B        0x1786 ; CLK_GetCPUFreq + 166
        0x00001786:    48ea        .H      LDR      r0,[pc,#936] ; [0x1b30] = 0x40000210
        0x00001788:    6800        .h      LDR      r0,[r0,#0]
        0x0000178a:    2107        .!      MOVS     r1,#7
        0x0000178c:    4008        .@      ANDS     r0,r0,r1
        0x0000178e:    9010        ..      STR      r0,[sp,#0x40]
        0x00001790:    9810        ..      LDR      r0,[sp,#0x40]
        0x00001792:    2801        .(      CMP      r0,#1
        0x00001794:    d121        !.      BNE      0x17da ; CLK_GetCPUFreq + 250
        0x00001796:    e7ff        ..      B        0x1798 ; CLK_GetCPUFreq + 184
        0x00001798:    9800        ..      LDR      r0,[sp,#0]
        0x0000179a:    b930        0.      CBNZ     r0,0x17aa ; CLK_GetCPUFreq + 202
        0x0000179c:    e7ff        ..      B        0x179e ; CLK_GetCPUFreq + 190
        0x0000179e:    497f        .I      LDR      r1,[pc,#508] ; [0x199c] = 0x40000208
        0x000017a0:    6808        .h      LDR      r0,[r1,#0]
        0x000017a2:    2202        ."      MOVS     r2,#2
        0x000017a4:    4310        .C      ORRS     r0,r0,r2
        0x000017a6:    6008        .`      STR      r0,[r1,#0]
        0x000017a8:    e7ff        ..      B        0x17aa ; CLK_GetCPUFreq + 202
        0x000017aa:    4883        .H      LDR      r0,[pc,#524] ; [0x19b8] = 0x40041100
        0x000017ac:    6800        .h      LDR      r0,[r0,#0]
        0x000017ae:    0640        @.      LSLS     r0,r0,#25
        0x000017b0:    2800        .(      CMP      r0,#0
        0x000017b2:    d504        ..      BPL      0x17be ; CLK_GetCPUFreq + 222
        0x000017b4:    e7ff        ..      B        0x17b6 ; CLK_GetCPUFreq + 214
        0x000017b6:    f6475000    G..P    MOVW     r0,#0x7d00
        0x000017ba:    9011        ..      STR      r0,[sp,#0x44]
        0x000017bc:    e003        ..      B        0x17c6 ; CLK_GetCPUFreq + 230
        0x000017be:    f2480000    H...    MOVW     r0,#0x8000
        0x000017c2:    9011        ..      STR      r0,[sp,#0x44]
        0x000017c4:    e7ff        ..      B        0x17c6 ; CLK_GetCPUFreq + 230
        0x000017c6:    9800        ..      LDR      r0,[sp,#0]
        0x000017c8:    b930        0.      CBNZ     r0,0x17d8 ; CLK_GetCPUFreq + 248
        0x000017ca:    e7ff        ..      B        0x17cc ; CLK_GetCPUFreq + 236
        0x000017cc:    4973        sI      LDR      r1,[pc,#460] ; [0x199c] = 0x40000208
        0x000017ce:    6808        .h      LDR      r0,[r1,#0]
        0x000017d0:    2202        ."      MOVS     r2,#2
        0x000017d2:    4390        .C      BICS     r0,r0,r2
        0x000017d4:    6008        .`      STR      r0,[r1,#0]
        0x000017d6:    e7ff        ..      B        0x17d8 ; CLK_GetCPUFreq + 248
        0x000017d8:    e00e        ..      B        0x17f8 ; CLK_GetCPUFreq + 280
        0x000017da:    9810        ..      LDR      r0,[sp,#0x40]
        0x000017dc:    2802        .(      CMP      r0,#2
        0x000017de:    d104        ..      BNE      0x17ea ; CLK_GetCPUFreq + 266
        0x000017e0:    e7ff        ..      B        0x17e2 ; CLK_GetCPUFreq + 258
        0x000017e2:    4814        .H      LDR      r0,[pc,#80] ; [0x1834] = 0x20000004
        0x000017e4:    6800        .h      LDR      r0,[r0,#0]
        0x000017e6:    9011        ..      STR      r0,[sp,#0x44]
        0x000017e8:    e005        ..      B        0x17f6 ; CLK_GetCPUFreq + 278
        0x000017ea:    9810        ..      LDR      r0,[sp,#0x40]
        0x000017ec:    0081        ..      LSLS     r1,r0,#2
        0x000017ee:    a807        ..      ADD      r0,sp,#0x1c
        0x000017f0:    5840        @X      LDR      r0,[r0,r1]
        0x000017f2:    9011        ..      STR      r0,[sp,#0x44]
        0x000017f4:    e7ff        ..      B        0x17f6 ; CLK_GetCPUFreq + 278
        0x000017f6:    e7ff        ..      B        0x17f8 ; CLK_GetCPUFreq + 280
        0x000017f8:    48ce        .H      LDR      r0,[pc,#824] ; [0x1b34] = 0x40000220
        0x000017fa:    6800        .h      LDR      r0,[r0,#0]
        0x000017fc:    210f        .!      MOVS     r1,#0xf
        0x000017fe:    4008        .@      ANDS     r0,r0,r1
        0x00001800:    1c40        @.      ADDS     r0,r0,#1
        0x00001802:    900f        ..      STR      r0,[sp,#0x3c]
        0x00001804:    9811        ..      LDR      r0,[sp,#0x44]
        0x00001806:    990f        ..      LDR      r1,[sp,#0x3c]
        0x00001808:    fbb0f1f1    ....    UDIV     r1,r0,r1
        0x0000180c:    4871        qH      LDR      r0,[pc,#452] ; [0x19d4] = 0x20000008
        0x0000180e:    6001        .`      STR      r1,[r0,#0]
        0x00001810:    6801        .h      LDR      r1,[r0,#0]
        0x00001812:    4a09        .J      LDR      r2,[pc,#36] ; [0x1838] = 0x7a120
        0x00001814:    1889        ..      ADDS     r1,r1,r2
        0x00001816:    4a09        .J      LDR      r2,[pc,#36] ; [0x183c] = 0xf4240
        0x00001818:    fbb1f1f2    ....    UDIV     r1,r1,r2
        0x0000181c:    4a08        .J      LDR      r2,[pc,#32] ; [0x1840] = 0x20000000
        0x0000181e:    6011        .`      STR      r1,[r2,#0]
        0x00001820:    6800        .h      LDR      r0,[r0,#0]
        0x00001822:    b012        ..      ADD      sp,sp,#0x48
        0x00001824:    bdb0        ..      POP      {r4,r5,r7,pc}
        0x00001826:    46c0        .F      MOV      r8,r8
    $d.19
    __arm_cp.9_0
        0x00001828:    0000a77c    |...    DCD    42876
    __arm_cp.9_3
        0x0000182c:    40000240    @..@    DCD    1073742400
    __arm_cp.9_4
        0x00001830:    00b71b00    ....    DCD    12000000
    __arm_cp.9_6
        0x00001834:    20000004    ...     DCD    536870916
    __arm_cp.9_11
        0x00001838:    0007a120     ...    DCD    500000
    __arm_cp.9_12
        0x0000183c:    000f4240    @B..    DCD    1000000
    __arm_cp.9_13
        0x00001840:    20000000    ...     DCD    536870912
    $t.58
    CLK_GetModuleClockDivider
        0x00001844:    b087        ..      SUB      sp,sp,#0x1c
        0x00001846:    9006        ..      STR      r0,[sp,#0x18]
        0x00001848:    2000        .       MOVS     r0,#0
        0x0000184a:    9005        ..      STR      r0,[sp,#0x14]
        0x0000184c:    9004        ..      STR      r0,[sp,#0x10]
        0x0000184e:    2110        .!      MOVS     r1,#0x10
        0x00001850:    9103        ..      STR      r1,[sp,#0xc]
        0x00001852:    2108        .!      MOVS     r1,#8
        0x00001854:    9102        ..      STR      r1,[sp,#8]
        0x00001856:    2104        .!      MOVS     r1,#4
        0x00001858:    9101        ..      STR      r1,[sp,#4]
        0x0000185a:    9000        ..      STR      r0,[sp,#0]
        0x0000185c:    9806        ..      LDR      r0,[sp,#0x18]
        0x0000185e:    0a80        ..      LSRS     r0,r0,#10
        0x00001860:    0600        ..      LSLS     r0,r0,#24
        0x00001862:    b1a8        ..      CBZ      r0,0x1890 ; CLK_GetModuleClockDivider + 76
        0x00001864:    e7ff        ..      B        0x1866 ; CLK_GetModuleClockDivider + 34
        0x00001866:    a806        ..      ADD      r0,sp,#0x18
        0x00001868:    8841        A.      LDRH     r1,[r0,#2]
        0x0000186a:    200c        .       MOVS     r0,#0xc
        0x0000186c:    4001        .@      ANDS     r1,r1,r0
        0x0000186e:    4668        hF      MOV      r0,sp
        0x00001870:    5840        @X      LDR      r0,[r0,r1]
        0x00001872:    49b0        .I      LDR      r1,[pc,#704] ; [0x1b34] = 0x40000220
        0x00001874:    1840        @.      ADDS     r0,r0,r1
        0x00001876:    9004        ..      STR      r0,[sp,#0x10]
        0x00001878:    9804        ..      LDR      r0,[sp,#0x10]
        0x0000187a:    6800        .h      LDR      r0,[r0,#0]
        0x0000187c:    9906        ..      LDR      r1,[sp,#0x18]
        0x0000187e:    0a8a        ..      LSRS     r2,r1,#10
        0x00001880:    b2d2        ..      UXTB     r2,r2
        0x00001882:    0589        ..      LSLS     r1,r1,#22
        0x00001884:    0ec9        ..      LSRS     r1,r1,#27
        0x00001886:    408a        .@      LSLS     r2,r2,r1
        0x00001888:    4010        .@      ANDS     r0,r0,r2
        0x0000188a:    40c8        .@      LSRS     r0,r0,r1
        0x0000188c:    9005        ..      STR      r0,[sp,#0x14]
        0x0000188e:    e7ff        ..      B        0x1890 ; CLK_GetModuleClockDivider + 76
        0x00001890:    9805        ..      LDR      r0,[sp,#0x14]
        0x00001892:    b007        ..      ADD      sp,sp,#0x1c
        0x00001894:    4770        pG      BX       lr
        0x00001896:    46c0        .F      MOV      r8,r8
    CLK_GetModuleClockSource
        0x00001898:    b088        ..      SUB      sp,sp,#0x20
        0x0000189a:    9007        ..      STR      r0,[sp,#0x1c]
        0x0000189c:    2000        .       MOVS     r0,#0
        0x0000189e:    9006        ..      STR      r0,[sp,#0x18]
        0x000018a0:    9005        ..      STR      r0,[sp,#0x14]
        0x000018a2:    210c        .!      MOVS     r1,#0xc
        0x000018a4:    9104        ..      STR      r1,[sp,#0x10]
        0x000018a6:    2108        .!      MOVS     r1,#8
        0x000018a8:    9103        ..      STR      r1,[sp,#0xc]
        0x000018aa:    2104        .!      MOVS     r1,#4
        0x000018ac:    9102        ..      STR      r1,[sp,#8]
        0x000018ae:    9001        ..      STR      r0,[sp,#4]
        0x000018b0:    483a        :H      LDR      r0,[pc,#232] ; [0x199c] = 0x40000208
        0x000018b2:    6800        .h      LDR      r0,[r0,#0]
        0x000018b4:    2102        .!      MOVS     r1,#2
        0x000018b6:    4008        .@      ANDS     r0,r0,r1
        0x000018b8:    9000        ..      STR      r0,[sp,#0]
        0x000018ba:    9807        ..      LDR      r0,[sp,#0x1c]
        0x000018bc:    4938        8I      LDR      r1,[pc,#224] ; [0x19a0] = 0x40000001
        0x000018be:    4288        .B      CMP      r0,r1
        0x000018c0:    d118        ..      BNE      0x18f4 ; CLK_GetModuleClockSource + 92
        0x000018c2:    e7ff        ..      B        0x18c4 ; CLK_GetModuleClockSource + 44
        0x000018c4:    9800        ..      LDR      r0,[sp,#0]
        0x000018c6:    b930        0.      CBNZ     r0,0x18d6 ; CLK_GetModuleClockSource + 62
        0x000018c8:    e7ff        ..      B        0x18ca ; CLK_GetModuleClockSource + 50
        0x000018ca:    4934        4I      LDR      r1,[pc,#208] ; [0x199c] = 0x40000208
        0x000018cc:    6808        .h      LDR      r0,[r1,#0]
        0x000018ce:    2202        ."      MOVS     r2,#2
        0x000018d0:    4310        .C      ORRS     r0,r0,r2
        0x000018d2:    6008        .`      STR      r0,[r1,#0]
        0x000018d4:    e7ff        ..      B        0x18d6 ; CLK_GetModuleClockSource + 62
        0x000018d6:    4838        8H      LDR      r0,[pc,#224] ; [0x19b8] = 0x40041100
        0x000018d8:    6800        .h      LDR      r0,[r0,#0]
        0x000018da:    b2c0        ..      UXTB     r0,r0
        0x000018dc:    09c0        ..      LSRS     r0,r0,#7
        0x000018de:    9006        ..      STR      r0,[sp,#0x18]
        0x000018e0:    9800        ..      LDR      r0,[sp,#0]
        0x000018e2:    b930        0.      CBNZ     r0,0x18f2 ; CLK_GetModuleClockSource + 90
        0x000018e4:    e7ff        ..      B        0x18e6 ; CLK_GetModuleClockSource + 78
        0x000018e6:    492d        -I      LDR      r1,[pc,#180] ; [0x199c] = 0x40000208
        0x000018e8:    6808        .h      LDR      r0,[r1,#0]
        0x000018ea:    2202        ."      MOVS     r2,#2
        0x000018ec:    4390        .C      BICS     r0,r0,r2
        0x000018ee:    6008        .`      STR      r0,[r1,#0]
        0x000018f0:    e7ff        ..      B        0x18f2 ; CLK_GetModuleClockSource + 90
        0x000018f2:    e04f        O.      B        0x1994 ; CLK_GetModuleClockSource + 252
        0x000018f4:    9807        ..      LDR      r0,[sp,#0x1c]
        0x000018f6:    492b        +I      LDR      r1,[pc,#172] ; [0x19a4] = 0x80000010
        0x000018f8:    4288        .B      CMP      r0,r1
        0x000018fa:    d106        ..      BNE      0x190a ; CLK_GetModuleClockSource + 114
        0x000018fc:    e7ff        ..      B        0x18fe ; CLK_GetModuleClockSource + 102
        0x000018fe:    482d        -H      LDR      r0,[pc,#180] ; [0x19b4] = 0x40000218
        0x00001900:    6800        .h      LDR      r0,[r0,#0]
        0x00001902:    2101        .!      MOVS     r1,#1
        0x00001904:    4008        .@      ANDS     r0,r0,r1
        0x00001906:    9006        ..      STR      r0,[sp,#0x18]
        0x00001908:    e043        C.      B        0x1992 ; CLK_GetModuleClockSource + 250
        0x0000190a:    9807        ..      LDR      r0,[sp,#0x1c]
        0x0000190c:    4926        &I      LDR      r1,[pc,#152] ; [0x19a8] = 0x80000011
        0x0000190e:    4288        .B      CMP      r0,r1
        0x00001910:    d107        ..      BNE      0x1922 ; CLK_GetModuleClockSource + 138
        0x00001912:    e7ff        ..      B        0x1914 ; CLK_GetModuleClockSource + 124
        0x00001914:    4827        'H      LDR      r0,[pc,#156] ; [0x19b4] = 0x40000218
        0x00001916:    6800        .h      LDR      r0,[r0,#0]
        0x00001918:    2102        .!      MOVS     r1,#2
        0x0000191a:    4008        .@      ANDS     r0,r0,r1
        0x0000191c:    0840        @.      LSRS     r0,r0,#1
        0x0000191e:    9006        ..      STR      r0,[sp,#0x18]
        0x00001920:    e036        6.      B        0x1990 ; CLK_GetModuleClockSource + 248
        0x00001922:    9807        ..      LDR      r0,[sp,#0x1c]
        0x00001924:    4921        !I      LDR      r1,[pc,#132] ; [0x19ac] = 0x80000012
        0x00001926:    4288        .B      CMP      r0,r1
        0x00001928:    d108        ..      BNE      0x193c ; CLK_GetModuleClockSource + 164
        0x0000192a:    e7ff        ..      B        0x192c ; CLK_GetModuleClockSource + 148
        0x0000192c:    4821        !H      LDR      r0,[pc,#132] ; [0x19b4] = 0x40000218
        0x0000192e:    6800        .h      LDR      r0,[r0,#0]
        0x00001930:    f2401100    @...    MOVW     r1,#0x100
        0x00001934:    4008        .@      ANDS     r0,r0,r1
        0x00001936:    0a00        ..      LSRS     r0,r0,#8
        0x00001938:    9006        ..      STR      r0,[sp,#0x18]
        0x0000193a:    e028        (.      B        0x198e ; CLK_GetModuleClockSource + 246
        0x0000193c:    9807        ..      LDR      r0,[sp,#0x1c]
        0x0000193e:    491c        .I      LDR      r1,[pc,#112] ; [0x19b0] = 0x80000013
        0x00001940:    4288        .B      CMP      r0,r1
        0x00001942:    d108        ..      BNE      0x1956 ; CLK_GetModuleClockSource + 190
        0x00001944:    e7ff        ..      B        0x1946 ; CLK_GetModuleClockSource + 174
        0x00001946:    481b        .H      LDR      r0,[pc,#108] ; [0x19b4] = 0x40000218
        0x00001948:    6800        .h      LDR      r0,[r0,#0]
        0x0000194a:    f2402100    @..!    MOVW     r1,#0x200
        0x0000194e:    4008        .@      ANDS     r0,r0,r1
        0x00001950:    0a40        @.      LSRS     r0,r0,#9
        0x00001952:    9006        ..      STR      r0,[sp,#0x18]
        0x00001954:    e01a        ..      B        0x198c ; CLK_GetModuleClockSource + 244
        0x00001956:    9807        ..      LDR      r0,[sp,#0x1c]
        0x00001958:    0100        ..      LSLS     r0,r0,#4
        0x0000195a:    0f40        @.      LSRS     r0,r0,#29
        0x0000195c:    b1a8        ..      CBZ      r0,0x198a ; CLK_GetModuleClockSource + 242
        0x0000195e:    e7ff        ..      B        0x1960 ; CLK_GetModuleClockSource + 200
        0x00001960:    9807        ..      LDR      r0,[sp,#0x1c]
        0x00001962:    0e81        ..      LSRS     r1,r0,#26
        0x00001964:    200c        .       MOVS     r0,#0xc
        0x00001966:    4001        .@      ANDS     r1,r1,r0
        0x00001968:    a801        ..      ADD      r0,sp,#4
        0x0000196a:    5840        @X      LDR      r0,[r0,r1]
        0x0000196c:    49e9        .I      LDR      r1,[pc,#932] ; [0x1d14] = 0x40000210
        0x0000196e:    1840        @.      ADDS     r0,r0,r1
        0x00001970:    9005        ..      STR      r0,[sp,#0x14]
        0x00001972:    9805        ..      LDR      r0,[sp,#0x14]
        0x00001974:    6800        .h      LDR      r0,[r0,#0]
        0x00001976:    9907        ..      LDR      r1,[sp,#0x1c]
        0x00001978:    010a        ..      LSLS     r2,r1,#4
        0x0000197a:    0f52        R.      LSRS     r2,r2,#29
        0x0000197c:    01c9        ..      LSLS     r1,r1,#7
        0x0000197e:    0ec9        ..      LSRS     r1,r1,#27
        0x00001980:    408a        .@      LSLS     r2,r2,r1
        0x00001982:    4010        .@      ANDS     r0,r0,r2
        0x00001984:    40c8        .@      LSRS     r0,r0,r1
        0x00001986:    9006        ..      STR      r0,[sp,#0x18]
        0x00001988:    e7ff        ..      B        0x198a ; CLK_GetModuleClockSource + 242
        0x0000198a:    e7ff        ..      B        0x198c ; CLK_GetModuleClockSource + 244
        0x0000198c:    e7ff        ..      B        0x198e ; CLK_GetModuleClockSource + 246
        0x0000198e:    e7ff        ..      B        0x1990 ; CLK_GetModuleClockSource + 248
        0x00001990:    e7ff        ..      B        0x1992 ; CLK_GetModuleClockSource + 250
        0x00001992:    e7ff        ..      B        0x1994 ; CLK_GetModuleClockSource + 252
        0x00001994:    9806        ..      LDR      r0,[sp,#0x18]
        0x00001996:    b008        ..      ADD      sp,sp,#0x20
        0x00001998:    4770        pG      BX       lr
        0x0000199a:    46c0        .F      MOV      r8,r8
    $d.57
    __arm_cp.28_0
        0x0000199c:    40000208    ...@    DCD    1073742344
    __arm_cp.28_1
        0x000019a0:    40000001    ...@    DCD    1073741825
    __arm_cp.28_2
        0x000019a4:    80000010    ....    DCD    2147483664
    __arm_cp.28_3
        0x000019a8:    80000011    ....    DCD    2147483665
    __arm_cp.28_4
        0x000019ac:    80000012    ....    DCD    2147483666
    __arm_cp.28_5
        0x000019b0:    80000013    ....    DCD    2147483667
    __arm_cp.28_7
        0x000019b4:    40000218    ...@    DCD    1073742360
    __arm_cp.28_8
        0x000019b8:    40041100    ...@    DCD    1074008320
    $t.14
    CLK_GetPCLK0Freq
        0x000019bc:    b580        ..      PUSH     {r7,lr}
        0x000019be:    f001fc8d    ....    BL       SystemCoreClockUpdate ; 0x32dc
        0x000019c2:    48d5        .H      LDR      r0,[pc,#852] ; [0x1d18] = 0x20000008
        0x000019c4:    6800        .h      LDR      r0,[r0,#0]
        0x000019c6:    bd80        ..      POP      {r7,pc}
    CLK_GetPCLK1Freq
        0x000019c8:    b580        ..      PUSH     {r7,lr}
        0x000019ca:    f001fc87    ....    BL       SystemCoreClockUpdate ; 0x32dc
        0x000019ce:    48d2        .H      LDR      r0,[pc,#840] ; [0x1d18] = 0x20000008
        0x000019d0:    6800        .h      LDR      r0,[r0,#0]
        0x000019d2:    bd80        ..      POP      {r7,pc}
    $d.17
    __arm_cp.8_0
        0x000019d4:    20000008    ...     DCD    536870920
    $t.54
    CLK_GetPLLClockFreq
        0x000019d8:    b087        ..      SUB      sp,sp,#0x1c
        0x000019da:    2000        .       MOVS     r0,#0
        0x000019dc:    9006        ..      STR      r0,[sp,#0x18]
        0x000019de:    4823        #H      LDR      r0,[pc,#140] ; [0x1a6c] = 0x4020201
        0x000019e0:    9000        ..      STR      r0,[sp,#0]
        0x000019e2:    4823        #H      LDR      r0,[pc,#140] ; [0x1a70] = 0x40000240
        0x000019e4:    6800        .h      LDR      r0,[r0,#0]
        0x000019e6:    9005        ..      STR      r0,[sp,#0x14]
        0x000019e8:    a805        ..      ADD      r0,sp,#0x14
        0x000019ea:    7880        .x      LDRB     r0,[r0,#2]
        0x000019ec:    07c0        ..      LSLS     r0,r0,#31
        0x000019ee:    b118        ..      CBZ      r0,0x19f8 ; CLK_GetPLLClockFreq + 32
        0x000019f0:    e7ff        ..      B        0x19f2 ; CLK_GetPLLClockFreq + 26
        0x000019f2:    2000        .       MOVS     r0,#0
        0x000019f4:    9006        ..      STR      r0,[sp,#0x18]
        0x000019f6:    e035        5.      B        0x1a64 ; CLK_GetPLLClockFreq + 140
        0x000019f8:    a805        ..      ADD      r0,sp,#0x14
        0x000019fa:    7880        .x      LDRB     r0,[r0,#2]
        0x000019fc:    0700        ..      LSLS     r0,r0,#28
        0x000019fe:    2800        .(      CMP      r0,#0
        0x00001a00:    d503        ..      BPL      0x1a0a ; CLK_GetPLLClockFreq + 50
        0x00001a02:    e7ff        ..      B        0x1a04 ; CLK_GetPLLClockFreq + 44
        0x00001a04:    481b        .H      LDR      r0,[pc,#108] ; [0x1a74] = 0xb71b00
        0x00001a06:    9004        ..      STR      r0,[sp,#0x10]
        0x00001a08:    e002        ..      B        0x1a10 ; CLK_GetPLLClockFreq + 56
        0x00001a0a:    481a        .H      LDR      r0,[pc,#104] ; [0x1a74] = 0xb71b00
        0x00001a0c:    9004        ..      STR      r0,[sp,#0x10]
        0x00001a0e:    e7ff        ..      B        0x1a10 ; CLK_GetPLLClockFreq + 56
        0x00001a10:    a805        ..      ADD      r0,sp,#0x14
        0x00001a12:    7880        .x      LDRB     r0,[r0,#2]
        0x00001a14:    0780        ..      LSLS     r0,r0,#30
        0x00001a16:    2800        .(      CMP      r0,#0
        0x00001a18:    d503        ..      BPL      0x1a22 ; CLK_GetPLLClockFreq + 74
        0x00001a1a:    e7ff        ..      B        0x1a1c ; CLK_GetPLLClockFreq + 68
        0x00001a1c:    9804        ..      LDR      r0,[sp,#0x10]
        0x00001a1e:    9006        ..      STR      r0,[sp,#0x18]
        0x00001a20:    e01f        ..      B        0x1a62 ; CLK_GetPLLClockFreq + 138
        0x00001a22:    a805        ..      ADD      r0,sp,#0x14
        0x00001a24:    8800        ..      LDRH     r0,[r0,#0]
        0x00001a26:    0b81        ..      LSRS     r1,r0,#14
        0x00001a28:    4668        hF      MOV      r0,sp
        0x00001a2a:    1840        @.      ADDS     r0,r0,r1
        0x00001a2c:    7800        .x      LDRB     r0,[r0,#0]
        0x00001a2e:    9001        ..      STR      r0,[sp,#4]
        0x00001a30:    9805        ..      LDR      r0,[sp,#0x14]
        0x00001a32:    4911        .I      LDR      r1,[pc,#68] ; [0x1a78] = 0x1ff
        0x00001a34:    4008        .@      ANDS     r0,r0,r1
        0x00001a36:    1c80        ..      ADDS     r0,r0,#2
        0x00001a38:    9003        ..      STR      r0,[sp,#0xc]
        0x00001a3a:    9805        ..      LDR      r0,[sp,#0x14]
        0x00001a3c:    f6436100    C..a    MOVW     r1,#0x3e00
        0x00001a40:    4008        .@      ANDS     r0,r0,r1
        0x00001a42:    0a40        @.      LSRS     r0,r0,#9
        0x00001a44:    1c40        @.      ADDS     r0,r0,#1
        0x00001a46:    9002        ..      STR      r0,[sp,#8]
        0x00001a48:    9804        ..      LDR      r0,[sp,#0x10]
        0x00001a4a:    0880        ..      LSRS     r0,r0,#2
        0x00001a4c:    9903        ..      LDR      r1,[sp,#0xc]
        0x00001a4e:    4348        HC      MULS     r0,r1,r0
        0x00001a50:    0040        @.      LSLS     r0,r0,#1
        0x00001a52:    9a02        ..      LDR      r2,[sp,#8]
        0x00001a54:    9901        ..      LDR      r1,[sp,#4]
        0x00001a56:    4351        QC      MULS     r1,r2,r1
        0x00001a58:    fbb0f0f1    ....    UDIV     r0,r0,r1
        0x00001a5c:    0080        ..      LSLS     r0,r0,#2
        0x00001a5e:    9006        ..      STR      r0,[sp,#0x18]
        0x00001a60:    e7ff        ..      B        0x1a62 ; CLK_GetPLLClockFreq + 138
        0x00001a62:    e7ff        ..      B        0x1a64 ; CLK_GetPLLClockFreq + 140
        0x00001a64:    9806        ..      LDR      r0,[sp,#0x18]
        0x00001a66:    b007        ..      ADD      sp,sp,#0x1c
        0x00001a68:    4770        pG      BX       lr
        0x00001a6a:    46c0        .F      MOV      r8,r8
    $d.55
    __arm_cp.27_0
        0x00001a6c:    04020201    ....    DCD    67240449
    __arm_cp.27_1
        0x00001a70:    40000240    @..@    DCD    1073742400
    __arm_cp.27_2
        0x00001a74:    00b71b00    ....    DCD    12000000
    __arm_cp.27_3
        0x00001a78:    000001ff    ....    DCD    511
    $t.20
    CLK_SetCoreClock
        0x00001a7c:    b580        ..      PUSH     {r7,lr}
        0x00001a7e:    b082        ..      SUB      sp,sp,#8
        0x00001a80:    9001        ..      STR      r0,[sp,#4]
        0x00001a82:    48a2        .H      LDR      r0,[pc,#648] ; [0x1d0c] = 0x40000250
        0x00001a84:    6800        .h      LDR      r0,[r0,#0]
        0x00001a86:    2110        .!      MOVS     r1,#0x10
        0x00001a88:    4008        .@      ANDS     r0,r0,r1
        0x00001a8a:    9000        ..      STR      r0,[sp,#0]
        0x00001a8c:    9801        ..      LDR      r0,[sp,#4]
        0x00001a8e:    4924        $I      LDR      r1,[pc,#144] ; [0x1b20] = 0x5b8d801
        0x00001a90:    4288        .B      CMP      r0,r1
        0x00001a92:    d303        ..      BCC      0x1a9c ; CLK_SetCoreClock + 32
        0x00001a94:    e7ff        ..      B        0x1a96 ; CLK_SetCoreClock + 26
        0x00001a96:    4825        %H      LDR      r0,[pc,#148] ; [0x1b2c] = 0x5b8d800
        0x00001a98:    9001        ..      STR      r0,[sp,#4]
        0x00001a9a:    e008        ..      B        0x1aae ; CLK_SetCoreClock + 50
        0x00001a9c:    9801        ..      LDR      r0,[sp,#4]
        0x00001a9e:    4921        !I      LDR      r1,[pc,#132] ; [0x1b24] = 0x16e35ff
        0x00001aa0:    4288        .B      CMP      r0,r1
        0x00001aa2:    d803        ..      BHI      0x1aac ; CLK_SetCoreClock + 48
        0x00001aa4:    e7ff        ..      B        0x1aa6 ; CLK_SetCoreClock + 42
        0x00001aa6:    4820         H      LDR      r0,[pc,#128] ; [0x1b28] = 0x16e3600
        0x00001aa8:    9001        ..      STR      r0,[sp,#4]
        0x00001aaa:    e7ff        ..      B        0x1aac ; CLK_SetCoreClock + 48
        0x00001aac:    e7ff        ..      B        0x1aae ; CLK_SetCoreClock + 50
        0x00001aae:    4998        .I      LDR      r1,[pc,#608] ; [0x1d10] = 0x40000200
        0x00001ab0:    6808        .h      LDR      r0,[r1,#0]
        0x00001ab2:    2204        ."      MOVS     r2,#4
        0x00001ab4:    4310        .C      ORRS     r0,r0,r2
        0x00001ab6:    6008        .`      STR      r0,[r1,#0]
        0x00001ab8:    2010        .       MOVS     r0,#0x10
        0x00001aba:    f000f9c5    ....    BL       CLK_WaitClockReady ; 0x1e48
        0x00001abe:    49e0        .I      LDR      r1,[pc,#896] ; [0x1e40] = 0x40000210
        0x00001ac0:    6808        .h      LDR      r0,[r1,#0]
        0x00001ac2:    2207        ."      MOVS     r2,#7
        0x00001ac4:    4310        .C      ORRS     r0,r0,r2
        0x00001ac6:    6008        .`      STR      r0,[r1,#0]
        0x00001ac8:    49dc        .I      LDR      r1,[pc,#880] ; [0x1e3c] = 0x40000220
        0x00001aca:    6808        .h      LDR      r0,[r1,#0]
        0x00001acc:    220f        ."      MOVS     r2,#0xf
        0x00001ace:    4390        .C      BICS     r0,r0,r2
        0x00001ad0:    6008        .`      STR      r0,[r1,#0]
        0x00001ad2:    48ec        .H      LDR      r0,[pc,#944] ; [0x1e84] = 0x40000250
        0x00001ad4:    6800        .h      LDR      r0,[r0,#0]
        0x00001ad6:    07c0        ..      LSLS     r0,r0,#31
        0x00001ad8:    b130        0.      CBZ      r0,0x1ae8 ; CLK_SetCoreClock + 108
        0x00001ada:    e7ff        ..      B        0x1adc ; CLK_SetCoreClock + 96
        0x00001adc:    9901        ..      LDR      r1,[sp,#4]
        0x00001ade:    2000        .       MOVS     r0,#0
        0x00001ae0:    f7fffd06    ....    BL       CLK_EnablePLL ; 0x14f0
        0x00001ae4:    9001        ..      STR      r0,[sp,#4]
        0x00001ae6:    e00b        ..      B        0x1b00 ; CLK_SetCoreClock + 132
        0x00001ae8:    9901        ..      LDR      r1,[sp,#4]
        0x00001aea:    2001        .       MOVS     r0,#1
        0x00001aec:    04c0        ..      LSLS     r0,r0,#19
        0x00001aee:    f7fffcff    ....    BL       CLK_EnablePLL ; 0x14f0
        0x00001af2:    9001        ..      STR      r0,[sp,#4]
        0x00001af4:    48e3        .H      LDR      r0,[pc,#908] ; [0x1e84] = 0x40000250
        0x00001af6:    6800        .h      LDR      r0,[r0,#0]
        0x00001af8:    2110        .!      MOVS     r1,#0x10
        0x00001afa:    4008        .@      ANDS     r0,r0,r1
        0x00001afc:    9000        ..      STR      r0,[sp,#0]
        0x00001afe:    e7ff        ..      B        0x1b00 ; CLK_SetCoreClock + 132
        0x00001b00:    2002        .       MOVS     r0,#2
        0x00001b02:    2100        .!      MOVS     r1,#0
        0x00001b04:    f000f818    ....    BL       CLK_SetHCLK ; 0x1b38
        0x00001b08:    9800        ..      LDR      r0,[sp,#0]
        0x00001b0a:    b930        0.      CBNZ     r0,0x1b1a ; CLK_SetCoreClock + 158
        0x00001b0c:    e7ff        ..      B        0x1b0e ; CLK_SetCoreClock + 146
        0x00001b0e:    4980        .I      LDR      r1,[pc,#512] ; [0x1d10] = 0x40000200
        0x00001b10:    6808        .h      LDR      r0,[r1,#0]
        0x00001b12:    2204        ."      MOVS     r2,#4
        0x00001b14:    4390        .C      BICS     r0,r0,r2
        0x00001b16:    6008        .`      STR      r0,[r1,#0]
        0x00001b18:    e7ff        ..      B        0x1b1a ; CLK_SetCoreClock + 158
        0x00001b1a:    9801        ..      LDR      r0,[sp,#4]
        0x00001b1c:    b002        ..      ADD      sp,sp,#8
        0x00001b1e:    bd80        ..      POP      {r7,pc}
    $d.21
    __arm_cp.10_1
        0x00001b20:    05b8d801    ....    DCD    96000001
    __arm_cp.10_2
        0x00001b24:    016e35ff    .5n.    DCD    23999999
    __arm_cp.10_3
        0x00001b28:    016e3600    .6n.    DCD    24000000
    __arm_cp.10_4
        0x00001b2c:    05b8d800    ....    DCD    96000000
    __arm_cp.10_6
        0x00001b30:    40000210    ...@    DCD    1073742352
    __arm_cp.10_7
        0x00001b34:    40000220     ..@    DCD    1073742368
    $t.26
    CLK_SetHCLK
        0x00001b38:    b580        ..      PUSH     {r7,lr}
        0x00001b3a:    b084        ..      SUB      sp,sp,#0x10
        0x00001b3c:    9003        ..      STR      r0,[sp,#0xc]
        0x00001b3e:    9102        ..      STR      r1,[sp,#8]
        0x00001b40:    48d0        .H      LDR      r0,[pc,#832] ; [0x1e84] = 0x40000250
        0x00001b42:    6801        .h      LDR      r1,[r0,#0]
        0x00001b44:    2010        .       MOVS     r0,#0x10
        0x00001b46:    4001        .@      ANDS     r1,r1,r0
        0x00001b48:    9101        ..      STR      r1,[sp,#4]
        0x00001b4a:    4a71        qJ      LDR      r2,[pc,#452] ; [0x1d10] = 0x40000200
        0x00001b4c:    6811        .h      LDR      r1,[r2,#0]
        0x00001b4e:    2304        .#      MOVS     r3,#4
        0x00001b50:    4319        .C      ORRS     r1,r1,r3
        0x00001b52:    6011        .`      STR      r1,[r2,#0]
        0x00001b54:    f000f978    ..x.    BL       CLK_WaitClockReady ; 0x1e48
        0x00001b58:    49b9        .I      LDR      r1,[pc,#740] ; [0x1e40] = 0x40000210
        0x00001b5a:    6808        .h      LDR      r0,[r1,#0]
        0x00001b5c:    2207        ."      MOVS     r2,#7
        0x00001b5e:    4310        .C      ORRS     r0,r0,r2
        0x00001b60:    6008        .`      STR      r0,[r1,#0]
        0x00001b62:    48c7        .H      LDR      r0,[pc,#796] ; [0x1e80] = 0x20000008
        0x00001b64:    6800        .h      LDR      r0,[r0,#0]
        0x00001b66:    9000        ..      STR      r0,[sp,#0]
        0x00001b68:    e7ff        ..      B        0x1b6a ; CLK_SetHCLK + 50
        0x00001b6a:    486c        lH      LDR      r0,[pc,#432] ; [0x1d1c] = 0x400001f8
        0x00001b6c:    6800        .h      LDR      r0,[r0,#0]
        0x00001b6e:    0600        ..      LSLS     r0,r0,#24
        0x00001b70:    2800        .(      CMP      r0,#0
        0x00001b72:    d507        ..      BPL      0x1b84 ; CLK_SetHCLK + 76
        0x00001b74:    e7ff        ..      B        0x1b76 ; CLK_SetHCLK + 62
        0x00001b76:    9800        ..      LDR      r0,[sp,#0]
        0x00001b78:    1e40        @.      SUBS     r0,r0,#1
        0x00001b7a:    9000        ..      STR      r0,[sp,#0]
        0x00001b7c:    b908        ..      CBNZ     r0,0x1b82 ; CLK_SetHCLK + 74
        0x00001b7e:    e7ff        ..      B        0x1b80 ; CLK_SetHCLK + 72
        0x00001b80:    e000        ..      B        0x1b84 ; CLK_SetHCLK + 76
        0x00001b82:    e7f2        ..      B        0x1b6a ; CLK_SetHCLK + 50
        0x00001b84:    4965        eI      LDR      r1,[pc,#404] ; [0x1d1c] = 0x400001f8
        0x00001b86:    6808        .h      LDR      r0,[r1,#0]
        0x00001b88:    2203        ."      MOVS     r2,#3
        0x00001b8a:    4390        .C      BICS     r0,r0,r2
        0x00001b8c:    6008        .`      STR      r0,[r1,#0]
        0x00001b8e:    48bc        .H      LDR      r0,[pc,#752] ; [0x1e80] = 0x20000008
        0x00001b90:    6800        .h      LDR      r0,[r0,#0]
        0x00001b92:    9000        ..      STR      r0,[sp,#0]
        0x00001b94:    e7ff        ..      B        0x1b96 ; CLK_SetHCLK + 94
        0x00001b96:    4862        bH      LDR      r0,[pc,#392] ; [0x1d20] = 0x400001fc
        0x00001b98:    6800        .h      LDR      r0,[r0,#0]
        0x00001b9a:    07c0        ..      LSLS     r0,r0,#31
        0x00001b9c:    b138        8.      CBZ      r0,0x1bae ; CLK_SetHCLK + 118
        0x00001b9e:    e7ff        ..      B        0x1ba0 ; CLK_SetHCLK + 104
        0x00001ba0:    9800        ..      LDR      r0,[sp,#0]
        0x00001ba2:    1e40        @.      SUBS     r0,r0,#1
        0x00001ba4:    9000        ..      STR      r0,[sp,#0]
        0x00001ba6:    b908        ..      CBNZ     r0,0x1bac ; CLK_SetHCLK + 116
        0x00001ba8:    e7ff        ..      B        0x1baa ; CLK_SetHCLK + 114
        0x00001baa:    e000        ..      B        0x1bae ; CLK_SetHCLK + 118
        0x00001bac:    e7f3        ..      B        0x1b96 ; CLK_SetHCLK + 94
        0x00001bae:    495d        ]I      LDR      r1,[pc,#372] ; [0x1d24] = 0x4000c04c
        0x00001bb0:    6808        .h      LDR      r0,[r1,#0]
        0x00001bb2:    2204        ."      MOVS     r2,#4
        0x00001bb4:    4310        .C      ORRS     r0,r0,r2
        0x00001bb6:    220b        ."      MOVS     r2,#0xb
        0x00001bb8:    4390        .C      BICS     r0,r0,r2
        0x00001bba:    6008        .`      STR      r0,[r1,#0]
        0x00001bbc:    499f        .I      LDR      r1,[pc,#636] ; [0x1e3c] = 0x40000220
        0x00001bbe:    6808        .h      LDR      r0,[r1,#0]
        0x00001bc0:    220f        ."      MOVS     r2,#0xf
        0x00001bc2:    4390        .C      BICS     r0,r0,r2
        0x00001bc4:    9a02        ..      LDR      r2,[sp,#8]
        0x00001bc6:    4310        .C      ORRS     r0,r0,r2
        0x00001bc8:    6008        .`      STR      r0,[r1,#0]
        0x00001bca:    499d        .I      LDR      r1,[pc,#628] ; [0x1e40] = 0x40000210
        0x00001bcc:    6808        .h      LDR      r0,[r1,#0]
        0x00001bce:    2207        ."      MOVS     r2,#7
        0x00001bd0:    4390        .C      BICS     r0,r0,r2
        0x00001bd2:    9a03        ..      LDR      r2,[sp,#0xc]
        0x00001bd4:    4310        .C      ORRS     r0,r0,r2
        0x00001bd6:    6008        .`      STR      r0,[r1,#0]
        0x00001bd8:    f001fb80    ....    BL       SystemCoreClockUpdate ; 0x32dc
        0x00001bdc:    48a8        .H      LDR      r0,[pc,#672] ; [0x1e80] = 0x20000008
        0x00001bde:    6800        .h      LDR      r0,[r0,#0]
        0x00001be0:    9000        ..      STR      r0,[sp,#0]
        0x00001be2:    e7ff        ..      B        0x1be4 ; CLK_SetHCLK + 172
        0x00001be4:    484d        MH      LDR      r0,[pc,#308] ; [0x1d1c] = 0x400001f8
        0x00001be6:    6800        .h      LDR      r0,[r0,#0]
        0x00001be8:    0600        ..      LSLS     r0,r0,#24
        0x00001bea:    2800        .(      CMP      r0,#0
        0x00001bec:    d507        ..      BPL      0x1bfe ; CLK_SetHCLK + 198
        0x00001bee:    e7ff        ..      B        0x1bf0 ; CLK_SetHCLK + 184
        0x00001bf0:    9800        ..      LDR      r0,[sp,#0]
        0x00001bf2:    1e40        @.      SUBS     r0,r0,#1
        0x00001bf4:    9000        ..      STR      r0,[sp,#0]
        0x00001bf6:    b908        ..      CBNZ     r0,0x1bfc ; CLK_SetHCLK + 196
        0x00001bf8:    e7ff        ..      B        0x1bfa ; CLK_SetHCLK + 194
        0x00001bfa:    e000        ..      B        0x1bfe ; CLK_SetHCLK + 198
        0x00001bfc:    e7f2        ..      B        0x1be4 ; CLK_SetHCLK + 172
        0x00001bfe:    48a0        .H      LDR      r0,[pc,#640] ; [0x1e80] = 0x20000008
        0x00001c00:    6800        .h      LDR      r0,[r0,#0]
        0x00001c02:    4949        II      LDR      r1,[pc,#292] ; [0x1d28] = 0x2dc6c01
        0x00001c04:    4288        .B      CMP      r0,r1
        0x00001c06:    d30e        ..      BCC      0x1c26 ; CLK_SetHCLK + 238
        0x00001c08:    e7ff        ..      B        0x1c0a ; CLK_SetHCLK + 210
        0x00001c0a:    489d        .H      LDR      r0,[pc,#628] ; [0x1e80] = 0x20000008
        0x00001c0c:    6800        .h      LDR      r0,[r0,#0]
        0x00001c0e:    4947        GI      LDR      r1,[pc,#284] ; [0x1d2c] = 0x501bd00
        0x00001c10:    4288        .B      CMP      r0,r1
        0x00001c12:    d808        ..      BHI      0x1c26 ; CLK_SetHCLK + 238
        0x00001c14:    e7ff        ..      B        0x1c16 ; CLK_SetHCLK + 222
        0x00001c16:    4941        AI      LDR      r1,[pc,#260] ; [0x1d1c] = 0x400001f8
        0x00001c18:    6808        .h      LDR      r0,[r1,#0]
        0x00001c1a:    2201        ."      MOVS     r2,#1
        0x00001c1c:    4310        .C      ORRS     r0,r0,r2
        0x00001c1e:    2202        ."      MOVS     r2,#2
        0x00001c20:    4390        .C      BICS     r0,r0,r2
        0x00001c22:    6008        .`      STR      r0,[r1,#0]
        0x00001c24:    e014        ..      B        0x1c50 ; CLK_SetHCLK + 280
        0x00001c26:    4896        .H      LDR      r0,[pc,#600] ; [0x1e80] = 0x20000008
        0x00001c28:    6800        .h      LDR      r0,[r0,#0]
        0x00001c2a:    4941        AI      LDR      r1,[pc,#260] ; [0x1d30] = 0x3d0901
        0x00001c2c:    4288        .B      CMP      r0,r1
        0x00001c2e:    d30e        ..      BCC      0x1c4e ; CLK_SetHCLK + 278
        0x00001c30:    e7ff        ..      B        0x1c32 ; CLK_SetHCLK + 250
        0x00001c32:    4893        .H      LDR      r0,[pc,#588] ; [0x1e80] = 0x20000008
        0x00001c34:    6800        .h      LDR      r0,[r0,#0]
        0x00001c36:    493f        ?I      LDR      r1,[pc,#252] ; [0x1d34] = 0x2dc6c00
        0x00001c38:    4288        .B      CMP      r0,r1
        0x00001c3a:    d808        ..      BHI      0x1c4e ; CLK_SetHCLK + 278
        0x00001c3c:    e7ff        ..      B        0x1c3e ; CLK_SetHCLK + 262
        0x00001c3e:    4937        7I      LDR      r1,[pc,#220] ; [0x1d1c] = 0x400001f8
        0x00001c40:    6808        .h      LDR      r0,[r1,#0]
        0x00001c42:    2202        ."      MOVS     r2,#2
        0x00001c44:    4310        .C      ORRS     r0,r0,r2
        0x00001c46:    2201        ."      MOVS     r2,#1
        0x00001c48:    4390        .C      BICS     r0,r0,r2
        0x00001c4a:    6008        .`      STR      r0,[r1,#0]
        0x00001c4c:    e7ff        ..      B        0x1c4e ; CLK_SetHCLK + 278
        0x00001c4e:    e7ff        ..      B        0x1c50 ; CLK_SetHCLK + 280
        0x00001c50:    48f9        .H      LDR      r0,[pc,#996] ; [0x2038] = 0x20000008
        0x00001c52:    6800        .h      LDR      r0,[r0,#0]
        0x00001c54:    4938        8I      LDR      r1,[pc,#224] ; [0x1d38] = 0x3d0900
        0x00001c56:    4288        .B      CMP      r0,r1
        0x00001c58:    d806        ..      BHI      0x1c68 ; CLK_SetHCLK + 304
        0x00001c5a:    e7ff        ..      B        0x1c5c ; CLK_SetHCLK + 292
        0x00001c5c:    492f        /I      LDR      r1,[pc,#188] ; [0x1d1c] = 0x400001f8
        0x00001c5e:    6808        .h      LDR      r0,[r1,#0]
        0x00001c60:    2203        ."      MOVS     r2,#3
        0x00001c62:    4310        .C      ORRS     r0,r0,r2
        0x00001c64:    6008        .`      STR      r0,[r1,#0]
        0x00001c66:    e7ff        ..      B        0x1c68 ; CLK_SetHCLK + 304
        0x00001c68:    48f3        .H      LDR      r0,[pc,#972] ; [0x2038] = 0x20000008
        0x00001c6a:    6800        .h      LDR      r0,[r0,#0]
        0x00001c6c:    9000        ..      STR      r0,[sp,#0]
        0x00001c6e:    e7ff        ..      B        0x1c70 ; CLK_SetHCLK + 312
        0x00001c70:    482b        +H      LDR      r0,[pc,#172] ; [0x1d20] = 0x400001fc
        0x00001c72:    6800        .h      LDR      r0,[r0,#0]
        0x00001c74:    07c0        ..      LSLS     r0,r0,#31
        0x00001c76:    b138        8.      CBZ      r0,0x1c88 ; CLK_SetHCLK + 336
        0x00001c78:    e7ff        ..      B        0x1c7a ; CLK_SetHCLK + 322
        0x00001c7a:    9800        ..      LDR      r0,[sp,#0]
        0x00001c7c:    1e40        @.      SUBS     r0,r0,#1
        0x00001c7e:    9000        ..      STR      r0,[sp,#0]
        0x00001c80:    b908        ..      CBNZ     r0,0x1c86 ; CLK_SetHCLK + 334
        0x00001c82:    e7ff        ..      B        0x1c84 ; CLK_SetHCLK + 332
        0x00001c84:    e000        ..      B        0x1c88 ; CLK_SetHCLK + 336
        0x00001c86:    e7f3        ..      B        0x1c70 ; CLK_SetHCLK + 312
        0x00001c88:    48eb        .H      LDR      r0,[pc,#940] ; [0x2038] = 0x20000008
        0x00001c8a:    6800        .h      LDR      r0,[r0,#0]
        0x00001c8c:    492b        +I      LDR      r1,[pc,#172] ; [0x1d3c] = 0x2faf080
        0x00001c8e:    4288        .B      CMP      r0,r1
        0x00001c90:    d30e        ..      BCC      0x1cb0 ; CLK_SetHCLK + 376
        0x00001c92:    e7ff        ..      B        0x1c94 ; CLK_SetHCLK + 348
        0x00001c94:    48e8        .H      LDR      r0,[pc,#928] ; [0x2038] = 0x20000008
        0x00001c96:    6800        .h      LDR      r0,[r0,#0]
        0x00001c98:    4929        )I      LDR      r1,[pc,#164] ; [0x1d40] = 0x47868bf
        0x00001c9a:    4288        .B      CMP      r0,r1
        0x00001c9c:    d808        ..      BHI      0x1cb0 ; CLK_SetHCLK + 376
        0x00001c9e:    e7ff        ..      B        0x1ca0 ; CLK_SetHCLK + 360
        0x00001ca0:    4920         I      LDR      r1,[pc,#128] ; [0x1d24] = 0x4000c04c
        0x00001ca2:    6808        .h      LDR      r0,[r1,#0]
        0x00001ca4:    2203        ."      MOVS     r2,#3
        0x00001ca6:    4310        .C      ORRS     r0,r0,r2
        0x00001ca8:    220c        ."      MOVS     r2,#0xc
        0x00001caa:    4390        .C      BICS     r0,r0,r2
        0x00001cac:    6008        .`      STR      r0,[r1,#0]
        0x00001cae:    e014        ..      B        0x1cda ; CLK_SetHCLK + 418
        0x00001cb0:    48e1        .H      LDR      r0,[pc,#900] ; [0x2038] = 0x20000008
        0x00001cb2:    6800        .h      LDR      r0,[r0,#0]
        0x00001cb4:    4923        #I      LDR      r1,[pc,#140] ; [0x1d44] = 0x17d7840
        0x00001cb6:    4288        .B      CMP      r0,r1
        0x00001cb8:    d30e        ..      BCC      0x1cd8 ; CLK_SetHCLK + 416
        0x00001cba:    e7ff        ..      B        0x1cbc ; CLK_SetHCLK + 388
        0x00001cbc:    48de        .H      LDR      r0,[pc,#888] ; [0x2038] = 0x20000008
        0x00001cbe:    6800        .h      LDR      r0,[r0,#0]
        0x00001cc0:    4921        !I      LDR      r1,[pc,#132] ; [0x1d48] = 0x2faf07f
        0x00001cc2:    4288        .B      CMP      r0,r1
        0x00001cc4:    d808        ..      BHI      0x1cd8 ; CLK_SetHCLK + 416
        0x00001cc6:    e7ff        ..      B        0x1cc8 ; CLK_SetHCLK + 400
        0x00001cc8:    4916        .I      LDR      r1,[pc,#88] ; [0x1d24] = 0x4000c04c
        0x00001cca:    6808        .h      LDR      r0,[r1,#0]
        0x00001ccc:    2202        ."      MOVS     r2,#2
        0x00001cce:    4310        .C      ORRS     r0,r0,r2
        0x00001cd0:    220d        ."      MOVS     r2,#0xd
        0x00001cd2:    4390        .C      BICS     r0,r0,r2
        0x00001cd4:    6008        .`      STR      r0,[r1,#0]
        0x00001cd6:    e7ff        ..      B        0x1cd8 ; CLK_SetHCLK + 416
        0x00001cd8:    e7ff        ..      B        0x1cda ; CLK_SetHCLK + 418
        0x00001cda:    48d7        .H      LDR      r0,[pc,#860] ; [0x2038] = 0x20000008
        0x00001cdc:    6800        .h      LDR      r0,[r0,#0]
        0x00001cde:    491b        .I      LDR      r1,[pc,#108] ; [0x1d4c] = 0x17d783f
        0x00001ce0:    4288        .B      CMP      r0,r1
        0x00001ce2:    d808        ..      BHI      0x1cf6 ; CLK_SetHCLK + 446
        0x00001ce4:    e7ff        ..      B        0x1ce6 ; CLK_SetHCLK + 430
        0x00001ce6:    490f        .I      LDR      r1,[pc,#60] ; [0x1d24] = 0x4000c04c
        0x00001ce8:    6808        .h      LDR      r0,[r1,#0]
        0x00001cea:    2201        ."      MOVS     r2,#1
        0x00001cec:    4310        .C      ORRS     r0,r0,r2
        0x00001cee:    220e        ."      MOVS     r2,#0xe
        0x00001cf0:    4390        .C      BICS     r0,r0,r2
        0x00001cf2:    6008        .`      STR      r0,[r1,#0]
        0x00001cf4:    e7ff        ..      B        0x1cf6 ; CLK_SetHCLK + 446
        0x00001cf6:    9801        ..      LDR      r0,[sp,#4]
        0x00001cf8:    b930        0.      CBNZ     r0,0x1d08 ; CLK_SetHCLK + 464
        0x00001cfa:    e7ff        ..      B        0x1cfc ; CLK_SetHCLK + 452
        0x00001cfc:    4904        .I      LDR      r1,[pc,#16] ; [0x1d10] = 0x40000200
        0x00001cfe:    6808        .h      LDR      r0,[r1,#0]
        0x00001d00:    2204        ."      MOVS     r2,#4
        0x00001d02:    4390        .C      BICS     r0,r0,r2
        0x00001d04:    6008        .`      STR      r0,[r1,#0]
        0x00001d06:    e7ff        ..      B        0x1d08 ; CLK_SetHCLK + 464
        0x00001d08:    b004        ..      ADD      sp,sp,#0x10
        0x00001d0a:    bd80        ..      POP      {r7,pc}
    $d.27
    __arm_cp.13_0
        0x00001d0c:    40000250    P..@    DCD    1073742416
    __arm_cp.13_1
        0x00001d10:    40000200    ...@    DCD    1073742336
    __arm_cp.13_2
        0x00001d14:    40000210    ...@    DCD    1073742352
    __arm_cp.13_3
        0x00001d18:    20000008    ...     DCD    536870920
    __arm_cp.13_4
        0x00001d1c:    400001f8    ...@    DCD    1073742328
    __arm_cp.13_5
        0x00001d20:    400001fc    ...@    DCD    1073742332
    __arm_cp.13_6
        0x00001d24:    4000c04c    L..@    DCD    1073791052
    __arm_cp.13_8
        0x00001d28:    02dc6c01    .l..    DCD    48000001
    __arm_cp.13_9
        0x00001d2c:    0501bd00    ....    DCD    84000000
    __arm_cp.13_10
        0x00001d30:    003d0901    ..=.    DCD    4000001
    __arm_cp.13_11
        0x00001d34:    02dc6c00    .l..    DCD    48000000
    __arm_cp.13_12
        0x00001d38:    003d0900    ..=.    DCD    4000000
    __arm_cp.13_13
        0x00001d3c:    02faf080    ....    DCD    50000000
    __arm_cp.13_14
        0x00001d40:    047868bf    .hx.    DCD    74999999
    __arm_cp.13_15
        0x00001d44:    017d7840    @x}.    DCD    25000000
    __arm_cp.13_16
        0x00001d48:    02faf07f    ....    DCD    49999999
    __arm_cp.13_17
        0x00001d4c:    017d783f    ?x}.    DCD    24999999
    $t.28
    CLK_SetModuleClock
        0x00001d50:    b08e        ..      SUB      sp,sp,#0x38
        0x00001d52:    900d        ..      STR      r0,[sp,#0x34]
        0x00001d54:    910c        ..      STR      r1,[sp,#0x30]
        0x00001d56:    920b        ..      STR      r2,[sp,#0x2c]
        0x00001d58:    2000        .       MOVS     r0,#0
        0x00001d5a:    900a        ..      STR      r0,[sp,#0x28]
        0x00001d5c:    9009        ..      STR      r0,[sp,#0x24]
        0x00001d5e:    210c        .!      MOVS     r1,#0xc
        0x00001d60:    9108        ..      STR      r1,[sp,#0x20]
        0x00001d62:    2208        ."      MOVS     r2,#8
        0x00001d64:    9207        ..      STR      r2,[sp,#0x1c]
        0x00001d66:    2104        .!      MOVS     r1,#4
        0x00001d68:    9106        ..      STR      r1,[sp,#0x18]
        0x00001d6a:    9005        ..      STR      r0,[sp,#0x14]
        0x00001d6c:    2310        .#      MOVS     r3,#0x10
        0x00001d6e:    9304        ..      STR      r3,[sp,#0x10]
        0x00001d70:    9203        ..      STR      r2,[sp,#0xc]
        0x00001d72:    9102        ..      STR      r1,[sp,#8]
        0x00001d74:    9001        ..      STR      r0,[sp,#4]
        0x00001d76:    482f        /H      LDR      r0,[pc,#188] ; [0x1e34] = 0x40000208
        0x00001d78:    6800        .h      LDR      r0,[r0,#0]
        0x00001d7a:    2102        .!      MOVS     r1,#2
        0x00001d7c:    4008        .@      ANDS     r0,r0,r1
        0x00001d7e:    9000        ..      STR      r0,[sp,#0]
        0x00001d80:    980d        ..      LDR      r0,[sp,#0x34]
        0x00001d82:    492d        -I      LDR      r1,[pc,#180] ; [0x1e38] = 0x40000001
        0x00001d84:    4288        .B      CMP      r0,r1
        0x00001d86:    d11a        ..      BNE      0x1dbe ; CLK_SetModuleClock + 110
        0x00001d88:    e7ff        ..      B        0x1d8a ; CLK_SetModuleClock + 58
        0x00001d8a:    9800        ..      LDR      r0,[sp,#0]
        0x00001d8c:    b930        0.      CBNZ     r0,0x1d9c ; CLK_SetModuleClock + 76
        0x00001d8e:    e7ff        ..      B        0x1d90 ; CLK_SetModuleClock + 64
        0x00001d90:    4928        (I      LDR      r1,[pc,#160] ; [0x1e34] = 0x40000208
        0x00001d92:    6808        .h      LDR      r0,[r1,#0]
        0x00001d94:    2202        ."      MOVS     r2,#2
        0x00001d96:    4310        .C      ORRS     r0,r0,r2
        0x00001d98:    6008        .`      STR      r0,[r1,#0]
        0x00001d9a:    e7ff        ..      B        0x1d9c ; CLK_SetModuleClock + 76
        0x00001d9c:    4929        )I      LDR      r1,[pc,#164] ; [0x1e44] = 0x40041100
        0x00001d9e:    6808        .h      LDR      r0,[r1,#0]
        0x00001da0:    2280        ."      MOVS     r2,#0x80
        0x00001da2:    4390        .C      BICS     r0,r0,r2
        0x00001da4:    9a0c        ..      LDR      r2,[sp,#0x30]
        0x00001da6:    4310        .C      ORRS     r0,r0,r2
        0x00001da8:    6008        .`      STR      r0,[r1,#0]
        0x00001daa:    9800        ..      LDR      r0,[sp,#0]
        0x00001dac:    b930        0.      CBNZ     r0,0x1dbc ; CLK_SetModuleClock + 108
        0x00001dae:    e7ff        ..      B        0x1db0 ; CLK_SetModuleClock + 96
        0x00001db0:    4920         I      LDR      r1,[pc,#128] ; [0x1e34] = 0x40000208
        0x00001db2:    6808        .h      LDR      r0,[r1,#0]
        0x00001db4:    2202        ."      MOVS     r2,#2
        0x00001db6:    4390        .C      BICS     r0,r0,r2
        0x00001db8:    6008        .`      STR      r0,[r1,#0]
        0x00001dba:    e7ff        ..      B        0x1dbc ; CLK_SetModuleClock + 108
        0x00001dbc:    e038        8.      B        0x1e30 ; CLK_SetModuleClock + 224
        0x00001dbe:    980d        ..      LDR      r0,[sp,#0x34]
        0x00001dc0:    0a80        ..      LSRS     r0,r0,#10
        0x00001dc2:    0600        ..      LSLS     r0,r0,#24
        0x00001dc4:    b1b8        ..      CBZ      r0,0x1df6 ; CLK_SetModuleClock + 166
        0x00001dc6:    e7ff        ..      B        0x1dc8 ; CLK_SetModuleClock + 120
        0x00001dc8:    a80d        ..      ADD      r0,sp,#0x34
        0x00001dca:    8841        A.      LDRH     r1,[r0,#2]
        0x00001dcc:    200c        .       MOVS     r0,#0xc
        0x00001dce:    4001        .@      ANDS     r1,r1,r0
        0x00001dd0:    a801        ..      ADD      r0,sp,#4
        0x00001dd2:    5840        @X      LDR      r0,[r0,r1]
        0x00001dd4:    4919        .I      LDR      r1,[pc,#100] ; [0x1e3c] = 0x40000220
        0x00001dd6:    1840        @.      ADDS     r0,r0,r1
        0x00001dd8:    9009        ..      STR      r0,[sp,#0x24]
        0x00001dda:    9809        ..      LDR      r0,[sp,#0x24]
        0x00001ddc:    6800        .h      LDR      r0,[r0,#0]
        0x00001dde:    9a0d        ..      LDR      r2,[sp,#0x34]
        0x00001de0:    0a91        ..      LSRS     r1,r2,#10
        0x00001de2:    b2c9        ..      UXTB     r1,r1
        0x00001de4:    0592        ..      LSLS     r2,r2,#22
        0x00001de6:    0ed2        ..      LSRS     r2,r2,#27
        0x00001de8:    4091        .@      LSLS     r1,r1,r2
        0x00001dea:    4388        .C      BICS     r0,r0,r1
        0x00001dec:    990b        ..      LDR      r1,[sp,#0x2c]
        0x00001dee:    4308        .C      ORRS     r0,r0,r1
        0x00001df0:    9909        ..      LDR      r1,[sp,#0x24]
        0x00001df2:    6008        .`      STR      r0,[r1,#0]
        0x00001df4:    e7ff        ..      B        0x1df6 ; CLK_SetModuleClock + 166
        0x00001df6:    980d        ..      LDR      r0,[sp,#0x34]
        0x00001df8:    0100        ..      LSLS     r0,r0,#4
        0x00001dfa:    0f40        @.      LSRS     r0,r0,#29
        0x00001dfc:    b1b8        ..      CBZ      r0,0x1e2e ; CLK_SetModuleClock + 222
        0x00001dfe:    e7ff        ..      B        0x1e00 ; CLK_SetModuleClock + 176
        0x00001e00:    980d        ..      LDR      r0,[sp,#0x34]
        0x00001e02:    0e81        ..      LSRS     r1,r0,#26
        0x00001e04:    200c        .       MOVS     r0,#0xc
        0x00001e06:    4001        .@      ANDS     r1,r1,r0
        0x00001e08:    a805        ..      ADD      r0,sp,#0x14
        0x00001e0a:    5840        @X      LDR      r0,[r0,r1]
        0x00001e0c:    490c        .I      LDR      r1,[pc,#48] ; [0x1e40] = 0x40000210
        0x00001e0e:    1840        @.      ADDS     r0,r0,r1
        0x00001e10:    900a        ..      STR      r0,[sp,#0x28]
        0x00001e12:    980a        ..      LDR      r0,[sp,#0x28]
        0x00001e14:    6800        .h      LDR      r0,[r0,#0]
        0x00001e16:    9a0d        ..      LDR      r2,[sp,#0x34]
        0x00001e18:    0111        ..      LSLS     r1,r2,#4
        0x00001e1a:    0f49        I.      LSRS     r1,r1,#29
        0x00001e1c:    01d2        ..      LSLS     r2,r2,#7
        0x00001e1e:    0ed2        ..      LSRS     r2,r2,#27
        0x00001e20:    4091        .@      LSLS     r1,r1,r2
        0x00001e22:    4388        .C      BICS     r0,r0,r1
        0x00001e24:    990c        ..      LDR      r1,[sp,#0x30]
        0x00001e26:    4308        .C      ORRS     r0,r0,r1
        0x00001e28:    990a        ..      LDR      r1,[sp,#0x28]
        0x00001e2a:    6008        .`      STR      r0,[r1,#0]
        0x00001e2c:    e7ff        ..      B        0x1e2e ; CLK_SetModuleClock + 222
        0x00001e2e:    e7ff        ..      B        0x1e30 ; CLK_SetModuleClock + 224
        0x00001e30:    b00e        ..      ADD      sp,sp,#0x38
        0x00001e32:    4770        pG      BX       lr
    $d.29
    __arm_cp.14_0
        0x00001e34:    40000208    ...@    DCD    1073742344
    __arm_cp.14_1
        0x00001e38:    40000001    ...@    DCD    1073741825
    __arm_cp.14_2
        0x00001e3c:    40000220     ..@    DCD    1073742368
    __arm_cp.14_3
        0x00001e40:    40000210    ...@    DCD    1073742352
    __arm_cp.14_4
        0x00001e44:    40041100    ...@    DCD    1074008320
    $t.22
    CLK_WaitClockReady
        0x00001e48:    b083        ..      SUB      sp,sp,#0xc
        0x00001e4a:    9002        ..      STR      r0,[sp,#8]
        0x00001e4c:    487a        zH      LDR      r0,[pc,#488] ; [0x2038] = 0x20000008
        0x00001e4e:    6800        .h      LDR      r0,[r0,#0]
        0x00001e50:    0840        @.      LSRS     r0,r0,#1
        0x00001e52:    9001        ..      STR      r0,[sp,#4]
        0x00001e54:    2001        .       MOVS     r0,#1
        0x00001e56:    9000        ..      STR      r0,[sp,#0]
        0x00001e58:    e7ff        ..      B        0x1e5a ; CLK_WaitClockReady + 18
        0x00001e5a:    480a        .H      LDR      r0,[pc,#40] ; [0x1e84] = 0x40000250
        0x00001e5c:    6800        .h      LDR      r0,[r0,#0]
        0x00001e5e:    9902        ..      LDR      r1,[sp,#8]
        0x00001e60:    4008        .@      ANDS     r0,r0,r1
        0x00001e62:    4288        .B      CMP      r0,r1
        0x00001e64:    d009        ..      BEQ      0x1e7a ; CLK_WaitClockReady + 50
        0x00001e66:    e7ff        ..      B        0x1e68 ; CLK_WaitClockReady + 32
        0x00001e68:    9801        ..      LDR      r0,[sp,#4]
        0x00001e6a:    1e40        @.      SUBS     r0,r0,#1
        0x00001e6c:    9001        ..      STR      r0,[sp,#4]
        0x00001e6e:    b918        ..      CBNZ     r0,0x1e78 ; CLK_WaitClockReady + 48
        0x00001e70:    e7ff        ..      B        0x1e72 ; CLK_WaitClockReady + 42
        0x00001e72:    2000        .       MOVS     r0,#0
        0x00001e74:    9000        ..      STR      r0,[sp,#0]
        0x00001e76:    e000        ..      B        0x1e7a ; CLK_WaitClockReady + 50
        0x00001e78:    e7ef        ..      B        0x1e5a ; CLK_WaitClockReady + 18
        0x00001e7a:    9800        ..      LDR      r0,[sp,#0]
        0x00001e7c:    b003        ..      ADD      sp,sp,#0xc
        0x00001e7e:    4770        pG      BX       lr
    $d.23
    __arm_cp.11_0
        0x00001e80:    20000008    ...     DCD    536870920
    __arm_cp.11_1
        0x00001e84:    40000250    P..@    DCD    1073742416
    $t.19
    CRPT_Hex2Reg
        0x00001e88:    b580        ..      PUSH     {r7,lr}
        0x00001e8a:    b082        ..      SUB      sp,sp,#8
        0x00001e8c:    9001        ..      STR      r0,[sp,#4]
        0x00001e8e:    9100        ..      STR      r1,[sp,#0]
        0x00001e90:    9801        ..      LDR      r0,[sp,#4]
        0x00001e92:    9900        ..      LDR      r1,[sp,#0]
        0x00001e94:    f000fc98    ....    BL       Hex2Reg ; 0x27c8
        0x00001e98:    b002        ..      ADD      sp,sp,#8
        0x00001e9a:    bd80        ..      POP      {r7,pc}
    CRPT_IRQHandler
        0x00001e9c:    b580        ..      PUSH     {r7,lr}
        0x00001e9e:    b082        ..      SUB      sp,sp,#8
        0x00001ea0:    480f        .H      LDR      r0,[pc,#60] ; [0x1ee0] = 0x4002f004
        0x00001ea2:    6800        .h      LDR      r0,[r0,#0]
        0x00001ea4:    0340        @.      LSLS     r0,r0,#13
        0x00001ea6:    2800        .(      CMP      r0,#0
        0x00001ea8:    d503        ..      BPL      0x1eb2 ; CRPT_IRQHandler + 22
        0x00001eaa:    e7ff        ..      B        0x1eac ; CRPT_IRQHandler + 16
        0x00001eac:    480e        .H      LDR      r0,[pc,#56] ; [0x1ee8] = 0x50032000
        0x00001eae:    9001        ..      STR      r0,[sp,#4]
        0x00001eb0:    e002        ..      B        0x1eb8 ; CRPT_IRQHandler + 28
        0x00001eb2:    480c        .H      LDR      r0,[pc,#48] ; [0x1ee4] = 0x40032000
        0x00001eb4:    9001        ..      STR      r0,[sp,#4]
        0x00001eb6:    e7ff        ..      B        0x1eb8 ; CRPT_IRQHandler + 28
        0x00001eb8:    480c        .H      LDR      r0,[pc,#48] ; [0x1eec] = 0x40032004
        0x00001eba:    6800        .h      LDR      r0,[r0,#0]
        0x00001ebc:    0180        ..      LSLS     r0,r0,#6
        0x00001ebe:    0f80        ..      LSRS     r0,r0,#30
        0x00001ec0:    b140        @.      CBZ      r0,0x1ed4 ; CRPT_IRQHandler + 56
        0x00001ec2:    e7ff        ..      B        0x1ec4 ; CRPT_IRQHandler + 40
        0x00001ec4:    490a        .I      LDR      r1,[pc,#40] ; [0x1ef0] = 0x20001c40
        0x00001ec6:    2001        .       MOVS     r0,#1
        0x00001ec8:    6008        .`      STR      r0,[r1,#0]
        0x00001eca:    2003        .       MOVS     r0,#3
        0x00001ecc:    0600        ..      LSLS     r0,r0,#24
        0x00001ece:    4907        .I      LDR      r1,[pc,#28] ; [0x1eec] = 0x40032004
        0x00001ed0:    6008        .`      STR      r0,[r1,#0]
        0x00001ed2:    e7ff        ..      B        0x1ed4 ; CRPT_IRQHandler + 56
        0x00001ed4:    9801        ..      LDR      r0,[sp,#4]
        0x00001ed6:    f000f80d    ....    BL       ECC_DriverISR ; 0x1ef4
        0x00001eda:    b002        ..      ADD      sp,sp,#8
        0x00001edc:    bd80        ..      POP      {r7,pc}
        0x00001ede:    46c0        .F      MOV      r8,r8
    $d.1
    __arm_cp.0_0
        0x00001ee0:    4002f004    ...@    DCD    1073934340
    __arm_cp.0_1
        0x00001ee4:    40032000    . .@    DCD    1073946624
    __arm_cp.0_2
        0x00001ee8:    50032000    . .P    DCD    1342382080
    __arm_cp.0_3
        0x00001eec:    40032004    . .@    DCD    1073946628
    __arm_cp.0_4
        0x00001ef0:    20001c40    @..     DCD    536878144
    $t.15
    ECC_DriverISR
        0x00001ef4:    b081        ..      SUB      sp,sp,#4
        0x00001ef6:    9000        ..      STR      r0,[sp,#0]
        0x00001ef8:    9800        ..      LDR      r0,[sp,#0]
        0x00001efa:    6840        @h      LDR      r0,[r0,#4]
        0x00001efc:    0240        @.      LSLS     r0,r0,#9
        0x00001efe:    2800        .(      CMP      r0,#0
        0x00001f00:    d507        ..      BPL      0x1f12 ; ECC_DriverISR + 30
        0x00001f02:    e7ff        ..      B        0x1f04 ; ECC_DriverISR + 16
        0x00001f04:    494b        KI      LDR      r1,[pc,#300] ; [0x2034] = 0x20001c3c
        0x00001f06:    2001        .       MOVS     r0,#1
        0x00001f08:    6008        .`      STR      r0,[r1,#0]
        0x00001f0a:    9900        ..      LDR      r1,[sp,#0]
        0x00001f0c:    0580        ..      LSLS     r0,r0,#22
        0x00001f0e:    6048        H`      STR      r0,[r1,#4]
        0x00001f10:    e7ff        ..      B        0x1f12 ; ECC_DriverISR + 30
        0x00001f12:    9800        ..      LDR      r0,[sp,#0]
        0x00001f14:    6840        @h      LDR      r0,[r0,#4]
        0x00001f16:    0200        ..      LSLS     r0,r0,#8
        0x00001f18:    2800        .(      CMP      r0,#0
        0x00001f1a:    d507        ..      BPL      0x1f2c ; ECC_DriverISR + 56
        0x00001f1c:    e7ff        ..      B        0x1f1e ; ECC_DriverISR + 42
        0x00001f1e:    4944        DI      LDR      r1,[pc,#272] ; [0x2030] = 0x20001c38
        0x00001f20:    2001        .       MOVS     r0,#1
        0x00001f22:    6008        .`      STR      r0,[r1,#0]
        0x00001f24:    9900        ..      LDR      r1,[sp,#0]
        0x00001f26:    05c0        ..      LSLS     r0,r0,#23
        0x00001f28:    6048        H`      STR      r0,[r1,#4]
        0x00001f2a:    e7ff        ..      B        0x1f2c ; ECC_DriverISR + 56
        0x00001f2c:    b001        ..      ADD      sp,sp,#4
        0x00001f2e:    4770        pG      BX       lr
    ECC_GeneratePublicKey_KS
        0x00001f30:    b510        ..      PUSH     {r4,lr}
        0x00001f32:    b088        ..      SUB      sp,sp,#0x20
        0x00001f34:    9c0c        ..      LDR      r4,[sp,#0x30]
        0x00001f36:    9c0b        ..      LDR      r4,[sp,#0x2c]
        0x00001f38:    9c0a        ..      LDR      r4,[sp,#0x28]
        0x00001f3a:    9007        ..      STR      r0,[sp,#0x1c]
        0x00001f3c:    9106        ..      STR      r1,[sp,#0x18]
        0x00001f3e:    9205        ..      STR      r2,[sp,#0x14]
        0x00001f40:    9304        ..      STR      r3,[sp,#0x10]
        0x00001f42:    2000        .       MOVS     r0,#0
        0x00001f44:    9003        ..      STR      r0,[sp,#0xc]
        0x00001f46:    9807        ..      LDR      r0,[sp,#0x1c]
        0x00001f48:    9906        ..      LDR      r1,[sp,#0x18]
        0x00001f4a:    f001fba3    ....    BL       ecc_init_curve ; 0x3694
        0x00001f4e:    b120         .      CBZ      r0,0x1f5a ; ECC_GeneratePublicKey_KS + 42
        0x00001f50:    e7ff        ..      B        0x1f52 ; ECC_GeneratePublicKey_KS + 34
        0x00001f52:    2001        .       MOVS     r0,#1
        0x00001f54:    43c0        .C      MVNS     r0,r0
        0x00001f56:    9003        ..      STR      r0,[sp,#0xc]
        0x00001f58:    e7ff        ..      B        0x1f5a ; ECC_GeneratePublicKey_KS + 42
        0x00001f5a:    9803        ..      LDR      r0,[sp,#0xc]
        0x00001f5c:    2800        .(      CMP      r0,#0
        0x00001f5e:    d14c        L.      BNE      0x1ffa ; ECC_GeneratePublicKey_KS + 202
        0x00001f60:    e7ff        ..      B        0x1f62 ; ECC_GeneratePublicKey_KS + 50
        0x00001f62:    9805        ..      LDR      r0,[sp,#0x14]
        0x00001f64:    0180        ..      LSLS     r0,r0,#6
        0x00001f66:    990c        ..      LDR      r1,[sp,#0x30]
        0x00001f68:    4308        .C      ORRS     r0,r0,r1
        0x00001f6a:    9904        ..      LDR      r1,[sp,#0x10]
        0x00001f6c:    4308        .C      ORRS     r0,r0,r1
        0x00001f6e:    2120         !      MOVS     r1,#0x20
        0x00001f70:    4308        .C      ORRS     r0,r0,r1
        0x00001f72:    9907        ..      LDR      r1,[sp,#0x1c]
        0x00001f74:    f6407240    @.@r    MOVW     r2,#0xf40
        0x00001f78:    5088        .P      STR      r0,[r1,r2]
        0x00001f7a:    48e2        .H      LDR      r0,[pc,#904] ; [0x2304] = 0x20001c44
        0x00001f7c:    6800        .h      LDR      r0,[r0,#0]
        0x00001f7e:    f24031c0    @..1    MOVW     r1,#0x3c0
        0x00001f82:    5840        @X      LDR      r0,[r0,r1]
        0x00001f84:    2801        .(      CMP      r0,#1
        0x00001f86:    d106        ..      BNE      0x1f96 ; ECC_GeneratePublicKey_KS + 102
        0x00001f88:    e7ff        ..      B        0x1f8a ; ECC_GeneratePublicKey_KS + 90
        0x00001f8a:    9907        ..      LDR      r1,[sp,#0x1c]
        0x00001f8c:    f6400200    @...    MOVW     r2,#0x800
        0x00001f90:    2000        .       MOVS     r0,#0
        0x00001f92:    5088        .P      STR      r0,[r1,r2]
        0x00001f94:    e006        ..      B        0x1fa4 ; ECC_GeneratePublicKey_KS + 116
        0x00001f96:    9907        ..      LDR      r1,[sp,#0x1c]
        0x00001f98:    f6400200    @...    MOVW     r2,#0x800
        0x00001f9c:    f2401000    @...    MOVW     r0,#0x100
        0x00001fa0:    5088        .P      STR      r0,[r1,r2]
        0x00001fa2:    e7ff        ..      B        0x1fa4 ; ECC_GeneratePublicKey_KS + 116
        0x00001fa4:    4922        "I      LDR      r1,[pc,#136] ; [0x2030] = 0x20001c38
        0x00001fa6:    2000        .       MOVS     r0,#0
        0x00001fa8:    6008        .`      STR      r0,[r1,#0]
        0x00001faa:    4922        "I      LDR      r1,[pc,#136] ; [0x2034] = 0x20001c3c
        0x00001fac:    6008        .`      STR      r0,[r1,#0]
        0x00001fae:    48d5        .H      LDR      r0,[pc,#852] ; [0x2304] = 0x20001c44
        0x00001fb0:    6800        .h      LDR      r0,[r0,#0]
        0x00001fb2:    f24031b0    @..1    MOVW     r1,#0x3b0
        0x00001fb6:    5840        @X      LDR      r0,[r0,r1]
        0x00001fb8:    0580        ..      LSLS     r0,r0,#22
        0x00001fba:    9907        ..      LDR      r1,[sp,#0x1c]
        0x00001fbc:    f6400200    @...    MOVW     r2,#0x800
        0x00001fc0:    588b        .X      LDR      r3,[r1,r2]
        0x00001fc2:    4318        .C      ORRS     r0,r0,r3
        0x00001fc4:    2301        .#      MOVS     r3,#1
        0x00001fc6:    4318        .C      ORRS     r0,r0,r3
        0x00001fc8:    5088        .P      STR      r0,[r1,r2]
        0x00001fca:    481b        .H      LDR      r0,[pc,#108] ; [0x2038] = 0x20000008
        0x00001fcc:    6800        .h      LDR      r0,[r0,#0]
        0x00001fce:    9002        ..      STR      r0,[sp,#8]
        0x00001fd0:    e7ff        ..      B        0x1fd2 ; ECC_GeneratePublicKey_KS + 162
        0x00001fd2:    4818        .H      LDR      r0,[pc,#96] ; [0x2034] = 0x20001c3c
        0x00001fd4:    6800        .h      LDR      r0,[r0,#0]
        0x00001fd6:    b978        x.      CBNZ     r0,0x1ff8 ; ECC_GeneratePublicKey_KS + 200
        0x00001fd8:    e7ff        ..      B        0x1fda ; ECC_GeneratePublicKey_KS + 170
        0x00001fda:    9802        ..      LDR      r0,[sp,#8]
        0x00001fdc:    1e41        A.      SUBS     r1,r0,#1
        0x00001fde:    9102        ..      STR      r1,[sp,#8]
        0x00001fe0:    2801        .(      CMP      r0,#1
        0x00001fe2:    db04        ..      BLT      0x1fee ; ECC_GeneratePublicKey_KS + 190
        0x00001fe4:    e7ff        ..      B        0x1fe6 ; ECC_GeneratePublicKey_KS + 182
        0x00001fe6:    4812        .H      LDR      r0,[pc,#72] ; [0x2030] = 0x20001c38
        0x00001fe8:    6800        .h      LDR      r0,[r0,#0]
        0x00001fea:    b120         .      CBZ      r0,0x1ff6 ; ECC_GeneratePublicKey_KS + 198
        0x00001fec:    e7ff        ..      B        0x1fee ; ECC_GeneratePublicKey_KS + 190
        0x00001fee:    2000        .       MOVS     r0,#0
        0x00001ff0:    43c0        .C      MVNS     r0,r0
        0x00001ff2:    9003        ..      STR      r0,[sp,#0xc]
        0x00001ff4:    e000        ..      B        0x1ff8 ; ECC_GeneratePublicKey_KS + 200
        0x00001ff6:    e7ec        ..      B        0x1fd2 ; ECC_GeneratePublicKey_KS + 162
        0x00001ff8:    e7ff        ..      B        0x1ffa ; ECC_GeneratePublicKey_KS + 202
        0x00001ffa:    9803        ..      LDR      r0,[sp,#0xc]
        0x00001ffc:    b9a8        ..      CBNZ     r0,0x202a ; ECC_GeneratePublicKey_KS + 250
        0x00001ffe:    e7ff        ..      B        0x2000 ; ECC_GeneratePublicKey_KS + 208
        0x00002000:    48c0        .H      LDR      r0,[pc,#768] ; [0x2304] = 0x20001c44
        0x00002002:    9001        ..      STR      r0,[sp,#4]
        0x00002004:    6800        .h      LDR      r0,[r0,#0]
        0x00002006:    6840        @h      LDR      r0,[r0,#4]
        0x00002008:    9907        ..      LDR      r1,[sp,#0x1c]
        0x0000200a:    4a7d        }J      LDR      r2,[pc,#500] ; [0x2200] = 0x808
        0x0000200c:    1889        ..      ADDS     r1,r1,r2
        0x0000200e:    9a0a        ..      LDR      r2,[sp,#0x28]
        0x00002010:    f001f87c    ..|.    BL       Reg2Hex ; 0x310c
        0x00002014:    9801        ..      LDR      r0,[sp,#4]
        0x00002016:    6800        .h      LDR      r0,[r0,#0]
        0x00002018:    6840        @h      LDR      r0,[r0,#4]
        0x0000201a:    9907        ..      LDR      r1,[sp,#0x1c]
        0x0000201c:    f6400250    @.P.    MOVW     r2,#0x850
        0x00002020:    1889        ..      ADDS     r1,r1,r2
        0x00002022:    9a0b        ..      LDR      r2,[sp,#0x2c]
        0x00002024:    f001f872    ..r.    BL       Reg2Hex ; 0x310c
        0x00002028:    e7ff        ..      B        0x202a ; ECC_GeneratePublicKey_KS + 250
        0x0000202a:    9803        ..      LDR      r0,[sp,#0xc]
        0x0000202c:    b008        ..      ADD      sp,sp,#0x20
        0x0000202e:    bd10        ..      POP      {r4,pc}
    $d.33
    __arm_cp.25_1
        0x00002030:    20001c38    8..     DCD    536878136
    __arm_cp.25_2
        0x00002034:    20001c3c    <..     DCD    536878140
    __arm_cp.25_3
        0x00002038:    20000008    ...     DCD    536870920
    $t.45
    ECC_GenerateSignature_KS
        0x0000203c:    b510        ..      PUSH     {r4,lr}
        0x0000203e:    b0ae        ..      SUB      sp,sp,#0xb8
        0x00002040:    9c34        4.      LDR      r4,[sp,#0xd0]
        0x00002042:    9c33        3.      LDR      r4,[sp,#0xcc]
        0x00002044:    9c32        2.      LDR      r4,[sp,#0xc8]
        0x00002046:    9c31        1.      LDR      r4,[sp,#0xc4]
        0x00002048:    9c30        0.      LDR      r4,[sp,#0xc0]
        0x0000204a:    902d        -.      STR      r0,[sp,#0xb4]
        0x0000204c:    912c        ,.      STR      r1,[sp,#0xb0]
        0x0000204e:    922b        +.      STR      r2,[sp,#0xac]
        0x00002050:    932a        *.      STR      r3,[sp,#0xa8]
        0x00002052:    2000        .       MOVS     r0,#0
        0x00002054:    9004        ..      STR      r0,[sp,#0x10]
        0x00002056:    982d        -.      LDR      r0,[sp,#0xb4]
        0x00002058:    992c        ,.      LDR      r1,[sp,#0xb0]
        0x0000205a:    f001fb1b    ....    BL       ecc_init_curve ; 0x3694
        0x0000205e:    b120         .      CBZ      r0,0x206a ; ECC_GenerateSignature_KS + 46
        0x00002060:    e7ff        ..      B        0x2062 ; ECC_GenerateSignature_KS + 38
        0x00002062:    2000        .       MOVS     r0,#0
        0x00002064:    43c0        .C      MVNS     r0,r0
        0x00002066:    9004        ..      STR      r0,[sp,#0x10]
        0x00002068:    e7ff        ..      B        0x206a ; ECC_GenerateSignature_KS + 46
        0x0000206a:    9804        ..      LDR      r0,[sp,#0x10]
        0x0000206c:    b100        ..      CBZ      r0,0x2070 ; ECC_GenerateSignature_KS + 52
        0x0000206e:    e0bb        ..      B        0x21e8 ; ECC_GenerateSignature_KS + 428
        0x00002070:    495f        _I      LDR      r1,[pc,#380] ; [0x21f0] = 0x40032f40
        0x00002072:    2000        .       MOVS     r0,#0
        0x00002074:    9003        ..      STR      r0,[sp,#0xc]
        0x00002076:    6008        .`      STR      r0,[r1,#0]
        0x00002078:    495e        ^I      LDR      r1,[pc,#376] ; [0x21f4] = 0x40032f48
        0x0000207a:    6008        .`      STR      r0,[r1,#0]
        0x0000207c:    9831        1.      LDR      r0,[sp,#0xc4]
        0x0000207e:    0180        ..      LSLS     r0,r0,#6
        0x00002080:    9932        2.      LDR      r1,[sp,#0xc8]
        0x00002082:    4308        .C      ORRS     r0,r0,r1
        0x00002084:    2120         !      MOVS     r1,#0x20
        0x00002086:    4308        .C      ORRS     r0,r0,r1
        0x00002088:    9a2d        -.      LDR      r2,[sp,#0xb4]
        0x0000208a:    f6407340    @.@s    MOVW     r3,#0xf40
        0x0000208e:    50d0        .P      STR      r0,[r2,r3]
        0x00002090:    982d        -.      LDR      r0,[sp,#0xb4]
        0x00002092:    f002f99f    ....    BL       run_ecc_codec ; 0x43d4
        0x00002096:    982d        -.      LDR      r0,[sp,#0xb4]
        0x00002098:    4957        WI      LDR      r1,[pc,#348] ; [0x21f8] = 0x9b8
        0x0000209a:    9102        ..      STR      r1,[sp,#8]
        0x0000209c:    1840        @.      ADDS     r0,r0,r1
        0x0000209e:    f001fade    ....    BL       clean_reg ; 0x365e
        0x000020a2:    9a02        ..      LDR      r2,[sp,#8]
        0x000020a4:    4897        .H      LDR      r0,[pc,#604] ; [0x2304] = 0x20001c44
        0x000020a6:    6800        .h      LDR      r0,[r0,#0]
        0x000020a8:    f2403100    @..1    MOVW     r1,#0x300
        0x000020ac:    1840        @.      ADDS     r0,r0,r1
        0x000020ae:    992d        -.      LDR      r1,[sp,#0xb4]
        0x000020b0:    1889        ..      ADDS     r1,r1,r2
        0x000020b2:    f000fb89    ....    BL       Hex2Reg ; 0x27c8
        0x000020b6:    982d        -.      LDR      r0,[sp,#0xb4]
        0x000020b8:    f6400150    @.P.    MOVW     r1,#0x850
        0x000020bc:    1840        @.      ADDS     r0,r0,r1
        0x000020be:    f001face    ....    BL       clean_reg ; 0x365e
        0x000020c2:    982d        -.      LDR      r0,[sp,#0xb4]
        0x000020c4:    f2412100    A..!    MOVW     r1,#0x1200
        0x000020c8:    f002f984    ....    BL       run_ecc_codec ; 0x43d4
        0x000020cc:    9803        ..      LDR      r0,[sp,#0xc]
        0x000020ce:    9005        ..      STR      r0,[sp,#0x14]
        0x000020d0:    e7ff        ..      B        0x20d2 ; ECC_GenerateSignature_KS + 150
        0x000020d2:    9805        ..      LDR      r0,[sp,#0x14]
        0x000020d4:    2811        .(      CMP      r0,#0x11
        0x000020d6:    dc0f        ..      BGT      0x20f8 ; ECC_GenerateSignature_KS + 188
        0x000020d8:    e7ff        ..      B        0x20da ; ECC_GenerateSignature_KS + 158
        0x000020da:    982d        -.      LDR      r0,[sp,#0xb4]
        0x000020dc:    9905        ..      LDR      r1,[sp,#0x14]
        0x000020de:    0089        ..      LSLS     r1,r1,#2
        0x000020e0:    1840        @.      ADDS     r0,r0,r1
        0x000020e2:    4947        GI      LDR      r1,[pc,#284] ; [0x2200] = 0x808
        0x000020e4:    5840        @X      LDR      r0,[r0,r1]
        0x000020e6:    9905        ..      LDR      r1,[sp,#0x14]
        0x000020e8:    008a        ..      LSLS     r2,r1,#2
        0x000020ea:    a918        ..      ADD      r1,sp,#0x60
        0x000020ec:    5088        .P      STR      r0,[r1,r2]
        0x000020ee:    e7ff        ..      B        0x20f0 ; ECC_GenerateSignature_KS + 180
        0x000020f0:    9805        ..      LDR      r0,[sp,#0x14]
        0x000020f2:    1c40        @.      ADDS     r0,r0,#1
        0x000020f4:    9005        ..      STR      r0,[sp,#0x14]
        0x000020f6:    e7ec        ..      B        0x20d2 ; ECC_GenerateSignature_KS + 150
        0x000020f8:    4882        .H      LDR      r0,[pc,#520] ; [0x2304] = 0x20001c44
        0x000020fa:    9000        ..      STR      r0,[sp,#0]
        0x000020fc:    6800        .h      LDR      r0,[r0,#0]
        0x000020fe:    6840        @h      LDR      r0,[r0,#4]
        0x00002100:    9a33        3.      LDR      r2,[sp,#0xcc]
        0x00002102:    a918        ..      ADD      r1,sp,#0x60
        0x00002104:    f001f802    ....    BL       Reg2Hex ; 0x310c
        0x00002108:    982d        -.      LDR      r0,[sp,#0xb4]
        0x0000210a:    493b        ;I      LDR      r1,[pc,#236] ; [0x21f8] = 0x9b8
        0x0000210c:    9101        ..      STR      r1,[sp,#4]
        0x0000210e:    1840        @.      ADDS     r0,r0,r1
        0x00002110:    f001faa5    ....    BL       clean_reg ; 0x365e
        0x00002114:    9800        ..      LDR      r0,[sp,#0]
        0x00002116:    9a01        ..      LDR      r2,[sp,#4]
        0x00002118:    6800        .h      LDR      r0,[r0,#0]
        0x0000211a:    f2403100    @..1    MOVW     r1,#0x300
        0x0000211e:    1840        @.      ADDS     r0,r0,r1
        0x00002120:    992d        -.      LDR      r1,[sp,#0xb4]
        0x00002122:    1889        ..      ADDS     r1,r1,r2
        0x00002124:    f000fb50    ..P.    BL       Hex2Reg ; 0x27c8
        0x00002128:    992d        -.      LDR      r1,[sp,#0xb4]
        0x0000212a:    f6400200    @...    MOVW     r2,#0x800
        0x0000212e:    2000        .       MOVS     r0,#0
        0x00002130:    5088        .P      STR      r0,[r1,r2]
        0x00002132:    9931        1.      LDR      r1,[sp,#0xc4]
        0x00002134:    0189        ..      LSLS     r1,r1,#6
        0x00002136:    9a32        2.      LDR      r2,[sp,#0xc8]
        0x00002138:    4311        .C      ORRS     r1,r1,r2
        0x0000213a:    9a2a        *.      LDR      r2,[sp,#0xa8]
        0x0000213c:    0392        ..      LSLS     r2,r2,#14
        0x0000213e:    4311        .C      ORRS     r1,r1,r2
        0x00002140:    9a30        0.      LDR      r2,[sp,#0xc0]
        0x00002142:    0212        ..      LSLS     r2,r2,#8
        0x00002144:    4311        .C      ORRS     r1,r1,r2
        0x00002146:    2220         "      MOVS     r2,#0x20
        0x00002148:    4311        .C      ORRS     r1,r1,r2
        0x0000214a:    9a2d        -.      LDR      r2,[sp,#0xb4]
        0x0000214c:    4b2b        +K      LDR      r3,[pc,#172] ; [0x21fc] = 0xf48
        0x0000214e:    50d1        .P      STR      r1,[r2,r3]
        0x00002150:    9005        ..      STR      r0,[sp,#0x14]
        0x00002152:    e7ff        ..      B        0x2154 ; ECC_GenerateSignature_KS + 280
        0x00002154:    9805        ..      LDR      r0,[sp,#0x14]
        0x00002156:    2811        .(      CMP      r0,#0x11
        0x00002158:    dc17        ..      BGT      0x218a ; ECC_GenerateSignature_KS + 334
        0x0000215a:    e7ff        ..      B        0x215c ; ECC_GenerateSignature_KS + 288
        0x0000215c:    9805        ..      LDR      r0,[sp,#0x14]
        0x0000215e:    0081        ..      LSLS     r1,r0,#2
        0x00002160:    a818        ..      ADD      r0,sp,#0x60
        0x00002162:    5840        @X      LDR      r0,[r0,r1]
        0x00002164:    992d        -.      LDR      r1,[sp,#0xb4]
        0x00002166:    9a05        ..      LDR      r2,[sp,#0x14]
        0x00002168:    0092        ..      LSLS     r2,r2,#2
        0x0000216a:    1889        ..      ADDS     r1,r1,r2
        0x0000216c:    4a25        %J      LDR      r2,[pc,#148] ; [0x2204] = 0x898
        0x0000216e:    5088        .P      STR      r0,[r1,r2]
        0x00002170:    982d        -.      LDR      r0,[sp,#0xb4]
        0x00002172:    9905        ..      LDR      r1,[sp,#0x14]
        0x00002174:    0089        ..      LSLS     r1,r1,#2
        0x00002176:    1841        A.      ADDS     r1,r0,r1
        0x00002178:    f64002e0    @...    MOVW     r2,#0x8e0
        0x0000217c:    2000        .       MOVS     r0,#0
        0x0000217e:    5088        .P      STR      r0,[r1,r2]
        0x00002180:    e7ff        ..      B        0x2182 ; ECC_GenerateSignature_KS + 326
        0x00002182:    9805        ..      LDR      r0,[sp,#0x14]
        0x00002184:    1c40        @.      ADDS     r0,r0,#1
        0x00002186:    9005        ..      STR      r0,[sp,#0x14]
        0x00002188:    e7e4        ..      B        0x2154 ; ECC_GenerateSignature_KS + 280
        0x0000218a:    982b        +.      LDR      r0,[sp,#0xac]
        0x0000218c:    992d        -.      LDR      r1,[sp,#0xb4]
        0x0000218e:    f64002e0    @...    MOVW     r2,#0x8e0
        0x00002192:    1889        ..      ADDS     r1,r1,r2
        0x00002194:    f000fb18    ....    BL       Hex2Reg ; 0x27c8
        0x00002198:    982d        -.      LDR      r0,[sp,#0xb4]
        0x0000219a:    f2402110    @..!    MOVW     r1,#0x210
        0x0000219e:    f002f919    ....    BL       run_ecc_codec ; 0x43d4
        0x000021a2:    2000        .       MOVS     r0,#0
        0x000021a4:    9005        ..      STR      r0,[sp,#0x14]
        0x000021a6:    e7ff        ..      B        0x21a8 ; ECC_GenerateSignature_KS + 364
        0x000021a8:    9805        ..      LDR      r0,[sp,#0x14]
        0x000021aa:    2811        .(      CMP      r0,#0x11
        0x000021ac:    dc0f        ..      BGT      0x21ce ; ECC_GenerateSignature_KS + 402
        0x000021ae:    e7ff        ..      B        0x21b0 ; ECC_GenerateSignature_KS + 372
        0x000021b0:    982d        -.      LDR      r0,[sp,#0xb4]
        0x000021b2:    9905        ..      LDR      r1,[sp,#0x14]
        0x000021b4:    0089        ..      LSLS     r1,r1,#2
        0x000021b6:    1840        @.      ADDS     r0,r0,r1
        0x000021b8:    4911        .I      LDR      r1,[pc,#68] ; [0x2200] = 0x808
        0x000021ba:    5840        @X      LDR      r0,[r0,r1]
        0x000021bc:    9905        ..      LDR      r1,[sp,#0x14]
        0x000021be:    008a        ..      LSLS     r2,r1,#2
        0x000021c0:    a906        ..      ADD      r1,sp,#0x18
        0x000021c2:    5088        .P      STR      r0,[r1,r2]
        0x000021c4:    e7ff        ..      B        0x21c6 ; ECC_GenerateSignature_KS + 394
        0x000021c6:    9805        ..      LDR      r0,[sp,#0x14]
        0x000021c8:    1c40        @.      ADDS     r0,r0,#1
        0x000021ca:    9005        ..      STR      r0,[sp,#0x14]
        0x000021cc:    e7ec        ..      B        0x21a8 ; ECC_GenerateSignature_KS + 364
        0x000021ce:    484d        MH      LDR      r0,[pc,#308] ; [0x2304] = 0x20001c44
        0x000021d0:    6800        .h      LDR      r0,[r0,#0]
        0x000021d2:    6840        @h      LDR      r0,[r0,#4]
        0x000021d4:    9a34        4.      LDR      r2,[sp,#0xd0]
        0x000021d6:    a906        ..      ADD      r1,sp,#0x18
        0x000021d8:    f000ff98    ....    BL       Reg2Hex ; 0x310c
        0x000021dc:    4904        .I      LDR      r1,[pc,#16] ; [0x21f0] = 0x40032f40
        0x000021de:    2000        .       MOVS     r0,#0
        0x000021e0:    6008        .`      STR      r0,[r1,#0]
        0x000021e2:    4904        .I      LDR      r1,[pc,#16] ; [0x21f4] = 0x40032f48
        0x000021e4:    6008        .`      STR      r0,[r1,#0]
        0x000021e6:    e7ff        ..      B        0x21e8 ; ECC_GenerateSignature_KS + 428
        0x000021e8:    9804        ..      LDR      r0,[sp,#0x10]
        0x000021ea:    b02e        ..      ADD      sp,sp,#0xb8
        0x000021ec:    bd10        ..      POP      {r4,pc}
        0x000021ee:    46c0        .F      MOV      r8,r8
    $d.46
    __arm_cp.32_0
        0x000021f0:    40032f40    @/.@    DCD    1073950528
    __arm_cp.32_1
        0x000021f4:    40032f48    H/.@    DCD    1073950536
    __arm_cp.32_2
        0x000021f8:    000009b8    ....    DCD    2488
    __arm_cp.32_4
        0x000021fc:    00000f48    H...    DCD    3912
    __arm_cp.32_5
        0x00002200:    00000808    ....    DCD    2056
    __arm_cp.32_6
        0x00002204:    00000898    ....    DCD    2200
    $t.22
    ECC_IsPrivateKeyValid
        0x00002208:    b580        ..      PUSH     {r7,lr}
        0x0000220a:    b08a        ..      SUB      sp,sp,#0x28
        0x0000220c:    9008        ..      STR      r0,[sp,#0x20]
        0x0000220e:    9107        ..      STR      r1,[sp,#0x1c]
        0x00002210:    9206        ..      STR      r2,[sp,#0x18]
        0x00002212:    9807        ..      LDR      r0,[sp,#0x1c]
        0x00002214:    f001fb7a    ..z.    BL       get_curve ; 0x390c
        0x00002218:    4601        .F      MOV      r1,r0
        0x0000221a:    483a        :H      LDR      r0,[pc,#232] ; [0x2304] = 0x20001c44
        0x0000221c:    6001        .`      STR      r1,[r0,#0]
        0x0000221e:    6800        .h      LDR      r0,[r0,#0]
        0x00002220:    b920         .      CBNZ     r0,0x222c ; ECC_IsPrivateKeyValid + 36
        0x00002222:    e7ff        ..      B        0x2224 ; ECC_IsPrivateKeyValid + 28
        0x00002224:    2000        .       MOVS     r0,#0
        0x00002226:    43c0        .C      MVNS     r0,r0
        0x00002228:    9009        ..      STR      r0,[sp,#0x24]
        0x0000222a:    e068        h.      B        0x22fe ; ECC_IsPrivateKeyValid + 246
        0x0000222c:    9806        ..      LDR      r0,[sp,#0x18]
        0x0000222e:    f7fef872    ..r.    BL       strlen ; 0x316
        0x00002232:    9004        ..      STR      r0,[sp,#0x10]
        0x00002234:    4833        3H      LDR      r0,[pc,#204] ; [0x2304] = 0x20001c44
        0x00002236:    6800        .h      LDR      r0,[r0,#0]
        0x00002238:    f2403100    @..1    MOVW     r1,#0x300
        0x0000223c:    1840        @.      ADDS     r0,r0,r1
        0x0000223e:    f7fef86a    ..j.    BL       strlen ; 0x316
        0x00002242:    4601        .F      MOV      r1,r0
        0x00002244:    9804        ..      LDR      r0,[sp,#0x10]
        0x00002246:    4288        .B      CMP      r0,r1
        0x00002248:    d203        ..      BCS      0x2252 ; ECC_IsPrivateKeyValid + 74
        0x0000224a:    e7ff        ..      B        0x224c ; ECC_IsPrivateKeyValid + 68
        0x0000224c:    2001        .       MOVS     r0,#1
        0x0000224e:    9009        ..      STR      r0,[sp,#0x24]
        0x00002250:    e055        U.      B        0x22fe ; ECC_IsPrivateKeyValid + 246
        0x00002252:    9806        ..      LDR      r0,[sp,#0x18]
        0x00002254:    f7fef85f    .._.    BL       strlen ; 0x316
        0x00002258:    9003        ..      STR      r0,[sp,#0xc]
        0x0000225a:    482a        *H      LDR      r0,[pc,#168] ; [0x2304] = 0x20001c44
        0x0000225c:    6800        .h      LDR      r0,[r0,#0]
        0x0000225e:    f2403100    @..1    MOVW     r1,#0x300
        0x00002262:    1840        @.      ADDS     r0,r0,r1
        0x00002264:    f7fef857    ..W.    BL       strlen ; 0x316
        0x00002268:    4601        .F      MOV      r1,r0
        0x0000226a:    9803        ..      LDR      r0,[sp,#0xc]
        0x0000226c:    4288        .B      CMP      r0,r1
        0x0000226e:    d903        ..      BLS      0x2278 ; ECC_IsPrivateKeyValid + 112
        0x00002270:    e7ff        ..      B        0x2272 ; ECC_IsPrivateKeyValid + 106
        0x00002272:    2000        .       MOVS     r0,#0
        0x00002274:    9009        ..      STR      r0,[sp,#0x24]
        0x00002276:    e042        B.      B        0x22fe ; ECC_IsPrivateKeyValid + 246
        0x00002278:    2000        .       MOVS     r0,#0
        0x0000227a:    9005        ..      STR      r0,[sp,#0x14]
        0x0000227c:    e7ff        ..      B        0x227e ; ECC_IsPrivateKeyValid + 118
        0x0000227e:    9805        ..      LDR      r0,[sp,#0x14]
        0x00002280:    9002        ..      STR      r0,[sp,#8]
        0x00002282:    9806        ..      LDR      r0,[sp,#0x18]
        0x00002284:    f7fef847    ..G.    BL       strlen ; 0x316
        0x00002288:    4601        .F      MOV      r1,r0
        0x0000228a:    9802        ..      LDR      r0,[sp,#8]
        0x0000228c:    4288        .B      CMP      r0,r1
        0x0000228e:    d233        3.      BCS      0x22f8 ; ECC_IsPrivateKeyValid + 240
        0x00002290:    e7ff        ..      B        0x2292 ; ECC_IsPrivateKeyValid + 138
        0x00002292:    9806        ..      LDR      r0,[sp,#0x18]
        0x00002294:    9905        ..      LDR      r1,[sp,#0x14]
        0x00002296:    5c40        @\      LDRB     r0,[r0,r1]
        0x00002298:    f001fb6c    ..l.    BL       get_nibble_value ; 0x3974
        0x0000229c:    9001        ..      STR      r0,[sp,#4]
        0x0000229e:    4819        .H      LDR      r0,[pc,#100] ; [0x2304] = 0x20001c44
        0x000022a0:    6800        .h      LDR      r0,[r0,#0]
        0x000022a2:    9905        ..      LDR      r1,[sp,#0x14]
        0x000022a4:    1840        @.      ADDS     r0,r0,r1
        0x000022a6:    f2403100    @..1    MOVW     r1,#0x300
        0x000022aa:    5c40        @\      LDRB     r0,[r0,r1]
        0x000022ac:    f001fb62    ..b.    BL       get_nibble_value ; 0x3974
        0x000022b0:    4601        .F      MOV      r1,r0
        0x000022b2:    9801        ..      LDR      r0,[sp,#4]
        0x000022b4:    4288        .B      CMP      r0,r1
        0x000022b6:    da03        ..      BGE      0x22c0 ; ECC_IsPrivateKeyValid + 184
        0x000022b8:    e7ff        ..      B        0x22ba ; ECC_IsPrivateKeyValid + 178
        0x000022ba:    2001        .       MOVS     r0,#1
        0x000022bc:    9009        ..      STR      r0,[sp,#0x24]
        0x000022be:    e01e        ..      B        0x22fe ; ECC_IsPrivateKeyValid + 246
        0x000022c0:    9806        ..      LDR      r0,[sp,#0x18]
        0x000022c2:    9905        ..      LDR      r1,[sp,#0x14]
        0x000022c4:    5c40        @\      LDRB     r0,[r0,r1]
        0x000022c6:    f001fb55    ..U.    BL       get_nibble_value ; 0x3974
        0x000022ca:    9000        ..      STR      r0,[sp,#0]
        0x000022cc:    480d        .H      LDR      r0,[pc,#52] ; [0x2304] = 0x20001c44
        0x000022ce:    6800        .h      LDR      r0,[r0,#0]
        0x000022d0:    9905        ..      LDR      r1,[sp,#0x14]
        0x000022d2:    1840        @.      ADDS     r0,r0,r1
        0x000022d4:    f2403100    @..1    MOVW     r1,#0x300
        0x000022d8:    5c40        @\      LDRB     r0,[r0,r1]
        0x000022da:    f001fb4b    ..K.    BL       get_nibble_value ; 0x3974
        0x000022de:    4601        .F      MOV      r1,r0
        0x000022e0:    9800        ..      LDR      r0,[sp,#0]
        0x000022e2:    4288        .B      CMP      r0,r1
        0x000022e4:    dd03        ..      BLE      0x22ee ; ECC_IsPrivateKeyValid + 230
        0x000022e6:    e7ff        ..      B        0x22e8 ; ECC_IsPrivateKeyValid + 224
        0x000022e8:    2000        .       MOVS     r0,#0
        0x000022ea:    9009        ..      STR      r0,[sp,#0x24]
        0x000022ec:    e007        ..      B        0x22fe ; ECC_IsPrivateKeyValid + 246
        0x000022ee:    e7ff        ..      B        0x22f0 ; ECC_IsPrivateKeyValid + 232
        0x000022f0:    9805        ..      LDR      r0,[sp,#0x14]
        0x000022f2:    1c40        @.      ADDS     r0,r0,#1
        0x000022f4:    9005        ..      STR      r0,[sp,#0x14]
        0x000022f6:    e7c2        ..      B        0x227e ; ECC_IsPrivateKeyValid + 118
        0x000022f8:    2000        .       MOVS     r0,#0
        0x000022fa:    9009        ..      STR      r0,[sp,#0x24]
        0x000022fc:    e7ff        ..      B        0x22fe ; ECC_IsPrivateKeyValid + 246
        0x000022fe:    9809        ..      LDR      r0,[sp,#0x24]
        0x00002300:    b00a        ..      ADD      sp,sp,#0x28
        0x00002302:    bd80        ..      POP      {r7,pc}
    $d.23
    __arm_cp.19_0
        0x00002304:    20001c44    D..     DCD    536878148
    $t.51
    ECC_VerifySignature_KS
        0x00002308:    b510        ..      PUSH     {r4,lr}
        0x0000230a:    b0da        ..      SUB      sp,sp,#0x168
        0x0000230c:    9c60        `.      LDR      r4,[sp,#0x180]
        0x0000230e:    9c5f        _.      LDR      r4,[sp,#0x17c]
        0x00002310:    9c5e        ^.      LDR      r4,[sp,#0x178]
        0x00002312:    9c5d        ].      LDR      r4,[sp,#0x174]
        0x00002314:    9c5c        \.      LDR      r4,[sp,#0x170]
        0x00002316:    9059        Y.      STR      r0,[sp,#0x164]
        0x00002318:    9158        X.      STR      r1,[sp,#0x160]
        0x0000231a:    9257        W.      STR      r2,[sp,#0x15c]
        0x0000231c:    9356        V.      STR      r3,[sp,#0x158]
        0x0000231e:    2000        .       MOVS     r0,#0
        0x00002320:    900c        ..      STR      r0,[sp,#0x30]
        0x00002322:    9859        Y.      LDR      r0,[sp,#0x164]
        0x00002324:    9958        X.      LDR      r1,[sp,#0x160]
        0x00002326:    f001f9b5    ....    BL       ecc_init_curve ; 0x3694
        0x0000232a:    b120         .      CBZ      r0,0x2336 ; ECC_VerifySignature_KS + 46
        0x0000232c:    e7ff        ..      B        0x232e ; ECC_VerifySignature_KS + 38
        0x0000232e:    2000        .       MOVS     r0,#0
        0x00002330:    43c0        .C      MVNS     r0,r0
        0x00002332:    900c        ..      STR      r0,[sp,#0x30]
        0x00002334:    e7ff        ..      B        0x2336 ; ECC_VerifySignature_KS + 46
        0x00002336:    980c        ..      LDR      r0,[sp,#0x30]
        0x00002338:    b100        ..      CBZ      r0,0x233c ; ECC_VerifySignature_KS + 52
        0x0000233a:    e235        5.      B        0x27a8 ; ECC_VerifySignature_KS + 1184
        0x0000233c:    9959        Y.      LDR      r1,[sp,#0x164]
        0x0000233e:    f6407240    @.@r    MOVW     r2,#0xf40
        0x00002342:    2000        .       MOVS     r0,#0
        0x00002344:    900b        ..      STR      r0,[sp,#0x2c]
        0x00002346:    5088        .P      STR      r0,[r1,r2]
        0x00002348:    9959        Y.      LDR      r1,[sp,#0x164]
        0x0000234a:    4af9        .J      LDR      r2,[pc,#996] ; [0x2730] = 0xf48
        0x0000234c:    5088        .P      STR      r0,[r1,r2]
        0x0000234e:    9859        Y.      LDR      r0,[sp,#0x164]
        0x00002350:    49f8        .I      LDR      r1,[pc,#992] ; [0x2734] = 0x9b8
        0x00002352:    9108        ..      STR      r1,[sp,#0x20]
        0x00002354:    1840        @.      ADDS     r0,r0,r1
        0x00002356:    f001f982    ....    BL       clean_reg ; 0x365e
        0x0000235a:    9a08        ..      LDR      r2,[sp,#0x20]
        0x0000235c:    48f6        .H      LDR      r0,[pc,#984] ; [0x2738] = 0x20001c44
        0x0000235e:    6800        .h      LDR      r0,[r0,#0]
        0x00002360:    f2403100    @..1    MOVW     r1,#0x300
        0x00002364:    1840        @.      ADDS     r0,r0,r1
        0x00002366:    9959        Y.      LDR      r1,[sp,#0x164]
        0x00002368:    1889        ..      ADDS     r1,r1,r2
        0x0000236a:    f000fa2d    ..-.    BL       Hex2Reg ; 0x27c8
        0x0000236e:    9859        Y.      LDR      r0,[sp,#0x164]
        0x00002370:    f6400150    @.P.    MOVW     r1,#0x850
        0x00002374:    9109        ..      STR      r1,[sp,#0x24]
        0x00002376:    1840        @.      ADDS     r0,r0,r1
        0x00002378:    f001f971    ..q.    BL       clean_reg ; 0x365e
        0x0000237c:    9a09        ..      LDR      r2,[sp,#0x24]
        0x0000237e:    9959        Y.      LDR      r1,[sp,#0x164]
        0x00002380:    2001        .       MOVS     r0,#1
        0x00002382:    5088        .P      STR      r0,[r1,r2]
        0x00002384:    9859        Y.      LDR      r0,[sp,#0x164]
        0x00002386:    49ed        .I      LDR      r1,[pc,#948] ; [0x273c] = 0x808
        0x00002388:    910a        ..      STR      r1,[sp,#0x28]
        0x0000238a:    1840        @.      ADDS     r0,r0,r1
        0x0000238c:    f001f967    ..g.    BL       clean_reg ; 0x365e
        0x00002390:    9a0a        ..      LDR      r2,[sp,#0x28]
        0x00002392:    9860        `.      LDR      r0,[sp,#0x180]
        0x00002394:    9959        Y.      LDR      r1,[sp,#0x164]
        0x00002396:    1889        ..      ADDS     r1,r1,r2
        0x00002398:    f000fa16    ....    BL       Hex2Reg ; 0x27c8
        0x0000239c:    9859        Y.      LDR      r0,[sp,#0x164]
        0x0000239e:    f2402100    @..!    MOVW     r1,#0x200
        0x000023a2:    f002f817    ....    BL       run_ecc_codec ; 0x43d4
        0x000023a6:    980b        ..      LDR      r0,[sp,#0x2c]
        0x000023a8:    900d        ..      STR      r0,[sp,#0x34]
        0x000023aa:    e7ff        ..      B        0x23ac ; ECC_VerifySignature_KS + 164
        0x000023ac:    980d        ..      LDR      r0,[sp,#0x34]
        0x000023ae:    2811        .(      CMP      r0,#0x11
        0x000023b0:    dc0f        ..      BGT      0x23d2 ; ECC_VerifySignature_KS + 202
        0x000023b2:    e7ff        ..      B        0x23b4 ; ECC_VerifySignature_KS + 172
        0x000023b4:    9859        Y.      LDR      r0,[sp,#0x164]
        0x000023b6:    990d        ..      LDR      r1,[sp,#0x34]
        0x000023b8:    0089        ..      LSLS     r1,r1,#2
        0x000023ba:    1840        @.      ADDS     r0,r0,r1
        0x000023bc:    49df        .I      LDR      r1,[pc,#892] ; [0x273c] = 0x808
        0x000023be:    5840        @X      LDR      r0,[r0,r1]
        0x000023c0:    990d        ..      LDR      r1,[sp,#0x34]
        0x000023c2:    008a        ..      LSLS     r2,r1,#2
        0x000023c4:    a932        2.      ADD      r1,sp,#0xc8
        0x000023c6:    5088        .P      STR      r0,[r1,r2]
        0x000023c8:    e7ff        ..      B        0x23ca ; ECC_VerifySignature_KS + 194
        0x000023ca:    980d        ..      LDR      r0,[sp,#0x34]
        0x000023cc:    1c40        @.      ADDS     r0,r0,#1
        0x000023ce:    900d        ..      STR      r0,[sp,#0x34]
        0x000023d0:    e7ec        ..      B        0x23ac ; ECC_VerifySignature_KS + 164
        0x000023d2:    9859        Y.      LDR      r0,[sp,#0x164]
        0x000023d4:    49f7        .I      LDR      r1,[pc,#988] ; [0x27b4] = 0x9b8
        0x000023d6:    9106        ..      STR      r1,[sp,#0x18]
        0x000023d8:    1840        @.      ADDS     r0,r0,r1
        0x000023da:    f001f940    ..@.    BL       clean_reg ; 0x365e
        0x000023de:    9a06        ..      LDR      r2,[sp,#0x18]
        0x000023e0:    48f5        .H      LDR      r0,[pc,#980] ; [0x27b8] = 0x20001c44
        0x000023e2:    6800        .h      LDR      r0,[r0,#0]
        0x000023e4:    f2403100    @..1    MOVW     r1,#0x300
        0x000023e8:    1840        @.      ADDS     r0,r0,r1
        0x000023ea:    9959        Y.      LDR      r1,[sp,#0x164]
        0x000023ec:    1889        ..      ADDS     r1,r1,r2
        0x000023ee:    f000f9eb    ....    BL       Hex2Reg ; 0x27c8
        0x000023f2:    9859        Y.      LDR      r0,[sp,#0x164]
        0x000023f4:    49f1        .I      LDR      r1,[pc,#964] ; [0x27bc] = 0x808
        0x000023f6:    9107        ..      STR      r1,[sp,#0x1c]
        0x000023f8:    1840        @.      ADDS     r0,r0,r1
        0x000023fa:    f001f930    ..0.    BL       clean_reg ; 0x365e
        0x000023fe:    9a07        ..      LDR      r2,[sp,#0x1c]
        0x00002400:    9857        W.      LDR      r0,[sp,#0x15c]
        0x00002402:    9959        Y.      LDR      r1,[sp,#0x164]
        0x00002404:    1889        ..      ADDS     r1,r1,r2
        0x00002406:    f000f9df    ....    BL       Hex2Reg ; 0x27c8
        0x0000240a:    2000        .       MOVS     r0,#0
        0x0000240c:    900d        ..      STR      r0,[sp,#0x34]
        0x0000240e:    e7ff        ..      B        0x2410 ; ECC_VerifySignature_KS + 264
        0x00002410:    980d        ..      LDR      r0,[sp,#0x34]
        0x00002412:    2811        .(      CMP      r0,#0x11
        0x00002414:    dc0e        ..      BGT      0x2434 ; ECC_VerifySignature_KS + 300
        0x00002416:    e7ff        ..      B        0x2418 ; ECC_VerifySignature_KS + 272
        0x00002418:    980d        ..      LDR      r0,[sp,#0x34]
        0x0000241a:    0082        ..      LSLS     r2,r0,#2
        0x0000241c:    a832        2.      ADD      r0,sp,#0xc8
        0x0000241e:    5880        .X      LDR      r0,[r0,r2]
        0x00002420:    9959        Y.      LDR      r1,[sp,#0x164]
        0x00002422:    1889        ..      ADDS     r1,r1,r2
        0x00002424:    f6400250    @.P.    MOVW     r2,#0x850
        0x00002428:    5088        .P      STR      r0,[r1,r2]
        0x0000242a:    e7ff        ..      B        0x242c ; ECC_VerifySignature_KS + 292
        0x0000242c:    980d        ..      LDR      r0,[sp,#0x34]
        0x0000242e:    1c40        @.      ADDS     r0,r0,#1
        0x00002430:    900d        ..      STR      r0,[sp,#0x34]
        0x00002432:    e7ed        ..      B        0x2410 ; ECC_VerifySignature_KS + 264
        0x00002434:    9859        Y.      LDR      r0,[sp,#0x164]
        0x00002436:    f6402100    @..!    MOVW     r1,#0xa00
        0x0000243a:    f001ffcb    ....    BL       run_ecc_codec ; 0x43d4
        0x0000243e:    2000        .       MOVS     r0,#0
        0x00002440:    900d        ..      STR      r0,[sp,#0x34]
        0x00002442:    e7ff        ..      B        0x2444 ; ECC_VerifySignature_KS + 316
        0x00002444:    980d        ..      LDR      r0,[sp,#0x34]
        0x00002446:    2811        .(      CMP      r0,#0x11
        0x00002448:    dc0f        ..      BGT      0x246a ; ECC_VerifySignature_KS + 354
        0x0000244a:    e7ff        ..      B        0x244c ; ECC_VerifySignature_KS + 324
        0x0000244c:    9859        Y.      LDR      r0,[sp,#0x164]
        0x0000244e:    990d        ..      LDR      r1,[sp,#0x34]
        0x00002450:    0089        ..      LSLS     r1,r1,#2
        0x00002452:    1840        @.      ADDS     r0,r0,r1
        0x00002454:    49d9        .I      LDR      r1,[pc,#868] ; [0x27bc] = 0x808
        0x00002456:    5840        @X      LDR      r0,[r0,r1]
        0x00002458:    990d        ..      LDR      r1,[sp,#0x34]
        0x0000245a:    008a        ..      LSLS     r2,r1,#2
        0x0000245c:    a944        D.      ADD      r1,sp,#0x110
        0x0000245e:    5088        .P      STR      r0,[r1,r2]
        0x00002460:    e7ff        ..      B        0x2462 ; ECC_VerifySignature_KS + 346
        0x00002462:    980d        ..      LDR      r0,[sp,#0x34]
        0x00002464:    1c40        @.      ADDS     r0,r0,#1
        0x00002466:    900d        ..      STR      r0,[sp,#0x34]
        0x00002468:    e7ec        ..      B        0x2444 ; ECC_VerifySignature_KS + 316
        0x0000246a:    9859        Y.      LDR      r0,[sp,#0x164]
        0x0000246c:    49d1        .I      LDR      r1,[pc,#836] ; [0x27b4] = 0x9b8
        0x0000246e:    9104        ..      STR      r1,[sp,#0x10]
        0x00002470:    1840        @.      ADDS     r0,r0,r1
        0x00002472:    f001f8f4    ....    BL       clean_reg ; 0x365e
        0x00002476:    9a04        ..      LDR      r2,[sp,#0x10]
        0x00002478:    48cf        .H      LDR      r0,[pc,#828] ; [0x27b8] = 0x20001c44
        0x0000247a:    6800        .h      LDR      r0,[r0,#0]
        0x0000247c:    f2403100    @..1    MOVW     r1,#0x300
        0x00002480:    1840        @.      ADDS     r0,r0,r1
        0x00002482:    9959        Y.      LDR      r1,[sp,#0x164]
        0x00002484:    1889        ..      ADDS     r1,r1,r2
        0x00002486:    f000f99f    ....    BL       Hex2Reg ; 0x27c8
        0x0000248a:    9859        Y.      LDR      r0,[sp,#0x164]
        0x0000248c:    49cb        .I      LDR      r1,[pc,#812] ; [0x27bc] = 0x808
        0x0000248e:    9105        ..      STR      r1,[sp,#0x14]
        0x00002490:    1840        @.      ADDS     r0,r0,r1
        0x00002492:    f001f8e4    ....    BL       clean_reg ; 0x365e
        0x00002496:    9a05        ..      LDR      r2,[sp,#0x14]
        0x00002498:    985f        _.      LDR      r0,[sp,#0x17c]
        0x0000249a:    9959        Y.      LDR      r1,[sp,#0x164]
        0x0000249c:    1889        ..      ADDS     r1,r1,r2
        0x0000249e:    f000f993    ....    BL       Hex2Reg ; 0x27c8
        0x000024a2:    2000        .       MOVS     r0,#0
        0x000024a4:    900d        ..      STR      r0,[sp,#0x34]
        0x000024a6:    e7ff        ..      B        0x24a8 ; ECC_VerifySignature_KS + 416
        0x000024a8:    980d        ..      LDR      r0,[sp,#0x34]
        0x000024aa:    2811        .(      CMP      r0,#0x11
        0x000024ac:    dc0e        ..      BGT      0x24cc ; ECC_VerifySignature_KS + 452
        0x000024ae:    e7ff        ..      B        0x24b0 ; ECC_VerifySignature_KS + 424
        0x000024b0:    980d        ..      LDR      r0,[sp,#0x34]
        0x000024b2:    0082        ..      LSLS     r2,r0,#2
        0x000024b4:    a832        2.      ADD      r0,sp,#0xc8
        0x000024b6:    5880        .X      LDR      r0,[r0,r2]
        0x000024b8:    9959        Y.      LDR      r1,[sp,#0x164]
        0x000024ba:    1889        ..      ADDS     r1,r1,r2
        0x000024bc:    f6400250    @.P.    MOVW     r2,#0x850
        0x000024c0:    5088        .P      STR      r0,[r1,r2]
        0x000024c2:    e7ff        ..      B        0x24c4 ; ECC_VerifySignature_KS + 444
        0x000024c4:    980d        ..      LDR      r0,[sp,#0x34]
        0x000024c6:    1c40        @.      ADDS     r0,r0,#1
        0x000024c8:    900d        ..      STR      r0,[sp,#0x34]
        0x000024ca:    e7ed        ..      B        0x24a8 ; ECC_VerifySignature_KS + 416
        0x000024cc:    9859        Y.      LDR      r0,[sp,#0x164]
        0x000024ce:    f6402100    @..!    MOVW     r1,#0xa00
        0x000024d2:    f001ff7f    ....    BL       run_ecc_codec ; 0x43d4
        0x000024d6:    2000        .       MOVS     r0,#0
        0x000024d8:    900d        ..      STR      r0,[sp,#0x34]
        0x000024da:    e7ff        ..      B        0x24dc ; ECC_VerifySignature_KS + 468
        0x000024dc:    980d        ..      LDR      r0,[sp,#0x34]
        0x000024de:    2811        .(      CMP      r0,#0x11
        0x000024e0:    dc0f        ..      BGT      0x2502 ; ECC_VerifySignature_KS + 506
        0x000024e2:    e7ff        ..      B        0x24e4 ; ECC_VerifySignature_KS + 476
        0x000024e4:    9859        Y.      LDR      r0,[sp,#0x164]
        0x000024e6:    990d        ..      LDR      r1,[sp,#0x34]
        0x000024e8:    0089        ..      LSLS     r1,r1,#2
        0x000024ea:    1840        @.      ADDS     r0,r0,r1
        0x000024ec:    49b3        .I      LDR      r1,[pc,#716] ; [0x27bc] = 0x808
        0x000024ee:    5840        @X      LDR      r0,[r0,r1]
        0x000024f0:    990d        ..      LDR      r1,[sp,#0x34]
        0x000024f2:    008a        ..      LSLS     r2,r1,#2
        0x000024f4:    a932        2.      ADD      r1,sp,#0xc8
        0x000024f6:    5088        .P      STR      r0,[r1,r2]
        0x000024f8:    e7ff        ..      B        0x24fa ; ECC_VerifySignature_KS + 498
        0x000024fa:    980d        ..      LDR      r0,[sp,#0x34]
        0x000024fc:    1c40        @.      ADDS     r0,r0,#1
        0x000024fe:    900d        ..      STR      r0,[sp,#0x34]
        0x00002500:    e7ec        ..      B        0x24dc ; ECC_VerifySignature_KS + 468
        0x00002502:    9859        Y.      LDR      r0,[sp,#0x164]
        0x00002504:    9958        X.      LDR      r1,[sp,#0x160]
        0x00002506:    f001f8c5    ....    BL       ecc_init_curve ; 0x3694
        0x0000250a:    2000        .       MOVS     r0,#0
        0x0000250c:    900d        ..      STR      r0,[sp,#0x34]
        0x0000250e:    e7ff        ..      B        0x2510 ; ECC_VerifySignature_KS + 520
        0x00002510:    980d        ..      LDR      r0,[sp,#0x34]
        0x00002512:    2811        .(      CMP      r0,#0x11
        0x00002514:    dc0e        ..      BGT      0x2534 ; ECC_VerifySignature_KS + 556
        0x00002516:    e7ff        ..      B        0x2518 ; ECC_VerifySignature_KS + 528
        0x00002518:    980d        ..      LDR      r0,[sp,#0x34]
        0x0000251a:    0082        ..      LSLS     r2,r0,#2
        0x0000251c:    a844        D.      ADD      r0,sp,#0x110
        0x0000251e:    5880        .X      LDR      r0,[r0,r2]
        0x00002520:    9959        Y.      LDR      r1,[sp,#0x164]
        0x00002522:    1889        ..      ADDS     r1,r1,r2
        0x00002524:    f6402200    @.."    MOVW     r2,#0xa00
        0x00002528:    5088        .P      STR      r0,[r1,r2]
        0x0000252a:    e7ff        ..      B        0x252c ; ECC_VerifySignature_KS + 548
        0x0000252c:    980d        ..      LDR      r0,[sp,#0x34]
        0x0000252e:    1c40        @.      ADDS     r0,r0,#1
        0x00002530:    900d        ..      STR      r0,[sp,#0x34]
        0x00002532:    e7ed        ..      B        0x2510 ; ECC_VerifySignature_KS + 520
        0x00002534:    9859        Y.      LDR      r0,[sp,#0x164]
        0x00002536:    2100        .!      MOVS     r1,#0
        0x00002538:    9103        ..      STR      r1,[sp,#0xc]
        0x0000253a:    f001ff4b    ..K.    BL       run_ecc_codec ; 0x43d4
        0x0000253e:    9803        ..      LDR      r0,[sp,#0xc]
        0x00002540:    900d        ..      STR      r0,[sp,#0x34]
        0x00002542:    e7ff        ..      B        0x2544 ; ECC_VerifySignature_KS + 572
        0x00002544:    980d        ..      LDR      r0,[sp,#0x34]
        0x00002546:    2811        .(      CMP      r0,#0x11
        0x00002548:    dc1a        ..      BGT      0x2580 ; ECC_VerifySignature_KS + 632
        0x0000254a:    e7ff        ..      B        0x254c ; ECC_VerifySignature_KS + 580
        0x0000254c:    9859        Y.      LDR      r0,[sp,#0x164]
        0x0000254e:    990d        ..      LDR      r1,[sp,#0x34]
        0x00002550:    0089        ..      LSLS     r1,r1,#2
        0x00002552:    1840        @.      ADDS     r0,r0,r1
        0x00002554:    4999        .I      LDR      r1,[pc,#612] ; [0x27bc] = 0x808
        0x00002556:    5840        @X      LDR      r0,[r0,r1]
        0x00002558:    990d        ..      LDR      r1,[sp,#0x34]
        0x0000255a:    008a        ..      LSLS     r2,r1,#2
        0x0000255c:    a920         .      ADD      r1,sp,#0x80
        0x0000255e:    5088        .P      STR      r0,[r1,r2]
        0x00002560:    9859        Y.      LDR      r0,[sp,#0x164]
        0x00002562:    990d        ..      LDR      r1,[sp,#0x34]
        0x00002564:    0089        ..      LSLS     r1,r1,#2
        0x00002566:    1840        @.      ADDS     r0,r0,r1
        0x00002568:    f6400150    @.P.    MOVW     r1,#0x850
        0x0000256c:    5840        @X      LDR      r0,[r0,r1]
        0x0000256e:    990d        ..      LDR      r1,[sp,#0x34]
        0x00002570:    008a        ..      LSLS     r2,r1,#2
        0x00002572:    a90e        ..      ADD      r1,sp,#0x38
        0x00002574:    5088        .P      STR      r0,[r1,r2]
        0x00002576:    e7ff        ..      B        0x2578 ; ECC_VerifySignature_KS + 624
        0x00002578:    980d        ..      LDR      r0,[sp,#0x34]
        0x0000257a:    1c40        @.      ADDS     r0,r0,#1
        0x0000257c:    900d        ..      STR      r0,[sp,#0x34]
        0x0000257e:    e7e1        ..      B        0x2544 ; ECC_VerifySignature_KS + 572
        0x00002580:    9859        Y.      LDR      r0,[sp,#0x164]
        0x00002582:    9958        X.      LDR      r1,[sp,#0x160]
        0x00002584:    f001f886    ....    BL       ecc_init_curve ; 0x3694
        0x00002588:    9859        Y.      LDR      r0,[sp,#0x164]
        0x0000258a:    498c        .I      LDR      r1,[pc,#560] ; [0x27bc] = 0x808
        0x0000258c:    1840        @.      ADDS     r0,r0,r1
        0x0000258e:    f001f866    ..f.    BL       clean_reg ; 0x365e
        0x00002592:    9859        Y.      LDR      r0,[sp,#0x164]
        0x00002594:    f6400150    @.P.    MOVW     r1,#0x850
        0x00002598:    1840        @.      ADDS     r0,r0,r1
        0x0000259a:    f001f860    ..`.    BL       clean_reg ; 0x365e
        0x0000259e:    9959        Y.      LDR      r1,[sp,#0x164]
        0x000025a0:    f6407240    @.@r    MOVW     r2,#0xf40
        0x000025a4:    2000        .       MOVS     r0,#0
        0x000025a6:    5088        .P      STR      r0,[r1,r2]
        0x000025a8:    9956        V.      LDR      r1,[sp,#0x158]
        0x000025aa:    0189        ..      LSLS     r1,r1,#6
        0x000025ac:    9a5c        \.      LDR      r2,[sp,#0x170]
        0x000025ae:    4311        .C      ORRS     r1,r1,r2
        0x000025b0:    9a5d        ].      LDR      r2,[sp,#0x174]
        0x000025b2:    0392        ..      LSLS     r2,r2,#14
        0x000025b4:    4311        .C      ORRS     r1,r1,r2
        0x000025b6:    9a5e        ^.      LDR      r2,[sp,#0x178]
        0x000025b8:    0212        ..      LSLS     r2,r2,#8
        0x000025ba:    4311        .C      ORRS     r1,r1,r2
        0x000025bc:    2220         "      MOVS     r2,#0x20
        0x000025be:    4311        .C      ORRS     r1,r1,r2
        0x000025c0:    9a59        Y.      LDR      r2,[sp,#0x164]
        0x000025c2:    4b7b        {K      LDR      r3,[pc,#492] ; [0x27b0] = 0xf48
        0x000025c4:    50d1        .P      STR      r1,[r2,r3]
        0x000025c6:    900d        ..      STR      r0,[sp,#0x34]
        0x000025c8:    e7ff        ..      B        0x25ca ; ECC_VerifySignature_KS + 706
        0x000025ca:    980d        ..      LDR      r0,[sp,#0x34]
        0x000025cc:    2811        .(      CMP      r0,#0x11
        0x000025ce:    dc0e        ..      BGT      0x25ee ; ECC_VerifySignature_KS + 742
        0x000025d0:    e7ff        ..      B        0x25d2 ; ECC_VerifySignature_KS + 714
        0x000025d2:    980d        ..      LDR      r0,[sp,#0x34]
        0x000025d4:    0082        ..      LSLS     r2,r0,#2
        0x000025d6:    a832        2.      ADD      r0,sp,#0xc8
        0x000025d8:    5880        .X      LDR      r0,[r0,r2]
        0x000025da:    9959        Y.      LDR      r1,[sp,#0x164]
        0x000025dc:    1889        ..      ADDS     r1,r1,r2
        0x000025de:    f6402200    @.."    MOVW     r2,#0xa00
        0x000025e2:    5088        .P      STR      r0,[r1,r2]
        0x000025e4:    e7ff        ..      B        0x25e6 ; ECC_VerifySignature_KS + 734
        0x000025e6:    980d        ..      LDR      r0,[sp,#0x34]
        0x000025e8:    1c40        @.      ADDS     r0,r0,#1
        0x000025ea:    900d        ..      STR      r0,[sp,#0x34]
        0x000025ec:    e7ed        ..      B        0x25ca ; ECC_VerifySignature_KS + 706
        0x000025ee:    9859        Y.      LDR      r0,[sp,#0x164]
        0x000025f0:    2100        .!      MOVS     r1,#0
        0x000025f2:    9102        ..      STR      r1,[sp,#8]
        0x000025f4:    f001feee    ....    BL       run_ecc_codec ; 0x43d4
        0x000025f8:    9802        ..      LDR      r0,[sp,#8]
        0x000025fa:    900d        ..      STR      r0,[sp,#0x34]
        0x000025fc:    e7ff        ..      B        0x25fe ; ECC_VerifySignature_KS + 758
        0x000025fe:    980d        ..      LDR      r0,[sp,#0x34]
        0x00002600:    2811        .(      CMP      r0,#0x11
        0x00002602:    dc1a        ..      BGT      0x263a ; ECC_VerifySignature_KS + 818
        0x00002604:    e7ff        ..      B        0x2606 ; ECC_VerifySignature_KS + 766
        0x00002606:    9859        Y.      LDR      r0,[sp,#0x164]
        0x00002608:    990d        ..      LDR      r1,[sp,#0x34]
        0x0000260a:    0089        ..      LSLS     r1,r1,#2
        0x0000260c:    1840        @.      ADDS     r0,r0,r1
        0x0000260e:    496b        kI      LDR      r1,[pc,#428] ; [0x27bc] = 0x808
        0x00002610:    5840        @X      LDR      r0,[r0,r1]
        0x00002612:    990d        ..      LDR      r1,[sp,#0x34]
        0x00002614:    008a        ..      LSLS     r2,r1,#2
        0x00002616:    a944        D.      ADD      r1,sp,#0x110
        0x00002618:    5088        .P      STR      r0,[r1,r2]
        0x0000261a:    9859        Y.      LDR      r0,[sp,#0x164]
        0x0000261c:    990d        ..      LDR      r1,[sp,#0x34]
        0x0000261e:    0089        ..      LSLS     r1,r1,#2
        0x00002620:    1840        @.      ADDS     r0,r0,r1
        0x00002622:    f6400150    @.P.    MOVW     r1,#0x850
        0x00002626:    5840        @X      LDR      r0,[r0,r1]
        0x00002628:    990d        ..      LDR      r1,[sp,#0x34]
        0x0000262a:    008a        ..      LSLS     r2,r1,#2
        0x0000262c:    a932        2.      ADD      r1,sp,#0xc8
        0x0000262e:    5088        .P      STR      r0,[r1,r2]
        0x00002630:    e7ff        ..      B        0x2632 ; ECC_VerifySignature_KS + 810
        0x00002632:    980d        ..      LDR      r0,[sp,#0x34]
        0x00002634:    1c40        @.      ADDS     r0,r0,#1
        0x00002636:    900d        ..      STR      r0,[sp,#0x34]
        0x00002638:    e7e1        ..      B        0x25fe ; ECC_VerifySignature_KS + 758
        0x0000263a:    9859        Y.      LDR      r0,[sp,#0x164]
        0x0000263c:    9958        X.      LDR      r1,[sp,#0x160]
        0x0000263e:    f001f829    ..).    BL       ecc_init_curve ; 0x3694
        0x00002642:    2000        .       MOVS     r0,#0
        0x00002644:    900d        ..      STR      r0,[sp,#0x34]
        0x00002646:    e7ff        ..      B        0x2648 ; ECC_VerifySignature_KS + 832
        0x00002648:    980d        ..      LDR      r0,[sp,#0x34]
        0x0000264a:    2811        .(      CMP      r0,#0x11
        0x0000264c:    dc16        ..      BGT      0x267c ; ECC_VerifySignature_KS + 884
        0x0000264e:    e7ff        ..      B        0x2650 ; ECC_VerifySignature_KS + 840
        0x00002650:    980d        ..      LDR      r0,[sp,#0x34]
        0x00002652:    0082        ..      LSLS     r2,r0,#2
        0x00002654:    a844        D.      ADD      r0,sp,#0x110
        0x00002656:    5880        .X      LDR      r0,[r0,r2]
        0x00002658:    9959        Y.      LDR      r1,[sp,#0x164]
        0x0000265a:    1889        ..      ADDS     r1,r1,r2
        0x0000265c:    4a57        WJ      LDR      r2,[pc,#348] ; [0x27bc] = 0x808
        0x0000265e:    5088        .P      STR      r0,[r1,r2]
        0x00002660:    980d        ..      LDR      r0,[sp,#0x34]
        0x00002662:    0082        ..      LSLS     r2,r0,#2
        0x00002664:    a832        2.      ADD      r0,sp,#0xc8
        0x00002666:    5880        .X      LDR      r0,[r0,r2]
        0x00002668:    9959        Y.      LDR      r1,[sp,#0x164]
        0x0000266a:    1889        ..      ADDS     r1,r1,r2
        0x0000266c:    f6400250    @.P.    MOVW     r2,#0x850
        0x00002670:    5088        .P      STR      r0,[r1,r2]
        0x00002672:    e7ff        ..      B        0x2674 ; ECC_VerifySignature_KS + 876
        0x00002674:    980d        ..      LDR      r0,[sp,#0x34]
        0x00002676:    1c40        @.      ADDS     r0,r0,#1
        0x00002678:    900d        ..      STR      r0,[sp,#0x34]
        0x0000267a:    e7e5        ..      B        0x2648 ; ECC_VerifySignature_KS + 832
        0x0000267c:    2000        .       MOVS     r0,#0
        0x0000267e:    900d        ..      STR      r0,[sp,#0x34]
        0x00002680:    e7ff        ..      B        0x2682 ; ECC_VerifySignature_KS + 890
        0x00002682:    980d        ..      LDR      r0,[sp,#0x34]
        0x00002684:    2811        .(      CMP      r0,#0x11
        0x00002686:    dc16        ..      BGT      0x26b6 ; ECC_VerifySignature_KS + 942
        0x00002688:    e7ff        ..      B        0x268a ; ECC_VerifySignature_KS + 898
        0x0000268a:    980d        ..      LDR      r0,[sp,#0x34]
        0x0000268c:    0082        ..      LSLS     r2,r0,#2
        0x0000268e:    a820         .      ADD      r0,sp,#0x80
        0x00002690:    5880        .X      LDR      r0,[r0,r2]
        0x00002692:    9959        Y.      LDR      r1,[sp,#0x164]
        0x00002694:    1889        ..      ADDS     r1,r1,r2
        0x00002696:    4a4b        KJ      LDR      r2,[pc,#300] ; [0x27c4] = 0x898
        0x00002698:    5088        .P      STR      r0,[r1,r2]
        0x0000269a:    980d        ..      LDR      r0,[sp,#0x34]
        0x0000269c:    0082        ..      LSLS     r2,r0,#2
        0x0000269e:    a80e        ..      ADD      r0,sp,#0x38
        0x000026a0:    5880        .X      LDR      r0,[r0,r2]
        0x000026a2:    9959        Y.      LDR      r1,[sp,#0x164]
        0x000026a4:    1889        ..      ADDS     r1,r1,r2
        0x000026a6:    f64002e0    @...    MOVW     r2,#0x8e0
        0x000026aa:    5088        .P      STR      r0,[r1,r2]
        0x000026ac:    e7ff        ..      B        0x26ae ; ECC_VerifySignature_KS + 934
        0x000026ae:    980d        ..      LDR      r0,[sp,#0x34]
        0x000026b0:    1c40        @.      ADDS     r0,r0,#1
        0x000026b2:    900d        ..      STR      r0,[sp,#0x34]
        0x000026b4:    e7e5        ..      B        0x2682 ; ECC_VerifySignature_KS + 890
        0x000026b6:    9859        Y.      LDR      r0,[sp,#0x164]
        0x000026b8:    f2404100    @..A    MOVW     r1,#0x400
        0x000026bc:    f001fe8a    ....    BL       run_ecc_codec ; 0x43d4
        0x000026c0:    2000        .       MOVS     r0,#0
        0x000026c2:    900d        ..      STR      r0,[sp,#0x34]
        0x000026c4:    e7ff        ..      B        0x26c6 ; ECC_VerifySignature_KS + 958
        0x000026c6:    980d        ..      LDR      r0,[sp,#0x34]
        0x000026c8:    2811        .(      CMP      r0,#0x11
        0x000026ca:    dc1a        ..      BGT      0x2702 ; ECC_VerifySignature_KS + 1018
        0x000026cc:    e7ff        ..      B        0x26ce ; ECC_VerifySignature_KS + 966
        0x000026ce:    9859        Y.      LDR      r0,[sp,#0x164]
        0x000026d0:    990d        ..      LDR      r1,[sp,#0x34]
        0x000026d2:    0089        ..      LSLS     r1,r1,#2
        0x000026d4:    1840        @.      ADDS     r0,r0,r1
        0x000026d6:    4939        9I      LDR      r1,[pc,#228] ; [0x27bc] = 0x808
        0x000026d8:    5840        @X      LDR      r0,[r0,r1]
        0x000026da:    990d        ..      LDR      r1,[sp,#0x34]
        0x000026dc:    008a        ..      LSLS     r2,r1,#2
        0x000026de:    a920         .      ADD      r1,sp,#0x80
        0x000026e0:    5088        .P      STR      r0,[r1,r2]
        0x000026e2:    9859        Y.      LDR      r0,[sp,#0x164]
        0x000026e4:    990d        ..      LDR      r1,[sp,#0x34]
        0x000026e6:    0089        ..      LSLS     r1,r1,#2
        0x000026e8:    1840        @.      ADDS     r0,r0,r1
        0x000026ea:    f6400150    @.P.    MOVW     r1,#0x850
        0x000026ee:    5840        @X      LDR      r0,[r0,r1]
        0x000026f0:    990d        ..      LDR      r1,[sp,#0x34]
        0x000026f2:    008a        ..      LSLS     r2,r1,#2
        0x000026f4:    a90e        ..      ADD      r1,sp,#0x38
        0x000026f6:    5088        .P      STR      r0,[r1,r2]
        0x000026f8:    e7ff        ..      B        0x26fa ; ECC_VerifySignature_KS + 1010
        0x000026fa:    980d        ..      LDR      r0,[sp,#0x34]
        0x000026fc:    1c40        @.      ADDS     r0,r0,#1
        0x000026fe:    900d        ..      STR      r0,[sp,#0x34]
        0x00002700:    e7e1        ..      B        0x26c6 ; ECC_VerifySignature_KS + 958
        0x00002702:    9859        Y.      LDR      r0,[sp,#0x164]
        0x00002704:    492b        +I      LDR      r1,[pc,#172] ; [0x27b4] = 0x9b8
        0x00002706:    9101        ..      STR      r1,[sp,#4]
        0x00002708:    1840        @.      ADDS     r0,r0,r1
        0x0000270a:    f000ffa8    ....    BL       clean_reg ; 0x365e
        0x0000270e:    9a01        ..      LDR      r2,[sp,#4]
        0x00002710:    4829        )H      LDR      r0,[pc,#164] ; [0x27b8] = 0x20001c44
        0x00002712:    6800        .h      LDR      r0,[r0,#0]
        0x00002714:    f2403100    @..1    MOVW     r1,#0x300
        0x00002718:    1840        @.      ADDS     r0,r0,r1
        0x0000271a:    9959        Y.      LDR      r1,[sp,#0x164]
        0x0000271c:    1889        ..      ADDS     r1,r1,r2
        0x0000271e:    f000f853    ..S.    BL       Hex2Reg ; 0x27c8
        0x00002722:    2000        .       MOVS     r0,#0
        0x00002724:    900d        ..      STR      r0,[sp,#0x34]
        0x00002726:    e7ff        ..      B        0x2728 ; ECC_VerifySignature_KS + 1056
        0x00002728:    980d        ..      LDR      r0,[sp,#0x34]
        0x0000272a:    2811        .(      CMP      r0,#0x11
        0x0000272c:    dc1d        ..      BGT      0x276a ; ECC_VerifySignature_KS + 1122
        0x0000272e:    e007        ..      B        0x2740 ; ECC_VerifySignature_KS + 1080
    $d.52
        0x00002730:    00000f48    H...    DCD    3912
        0x00002734:    000009b8    ....    DCD    2488
        0x00002738:    20001c44    D..     DCD    536878148
        0x0000273c:    00000808    ....    DCD    2056
    $t.53
        0x00002740:    980d        ..      LDR      r0,[sp,#0x34]
        0x00002742:    0082        ..      LSLS     r2,r0,#2
        0x00002744:    a820         .      ADD      r0,sp,#0x80
        0x00002746:    5880        .X      LDR      r0,[r0,r2]
        0x00002748:    9959        Y.      LDR      r1,[sp,#0x164]
        0x0000274a:    1889        ..      ADDS     r1,r1,r2
        0x0000274c:    4a1b        .J      LDR      r2,[pc,#108] ; [0x27bc] = 0x808
        0x0000274e:    5088        .P      STR      r0,[r1,r2]
        0x00002750:    9859        Y.      LDR      r0,[sp,#0x164]
        0x00002752:    990d        ..      LDR      r1,[sp,#0x34]
        0x00002754:    0089        ..      LSLS     r1,r1,#2
        0x00002756:    1841        A.      ADDS     r1,r0,r1
        0x00002758:    f6400250    @.P.    MOVW     r2,#0x850
        0x0000275c:    2000        .       MOVS     r0,#0
        0x0000275e:    5088        .P      STR      r0,[r1,r2]
        0x00002760:    e7ff        ..      B        0x2762 ; ECC_VerifySignature_KS + 1114
        0x00002762:    980d        ..      LDR      r0,[sp,#0x34]
        0x00002764:    1c40        @.      ADDS     r0,r0,#1
        0x00002766:    900d        ..      STR      r0,[sp,#0x34]
        0x00002768:    e7de        ..      B        0x2728 ; ECC_VerifySignature_KS + 1056
        0x0000276a:    9859        Y.      LDR      r0,[sp,#0x164]
        0x0000276c:    f2412100    A..!    MOVW     r1,#0x1200
        0x00002770:    f001fe30    ..0.    BL       run_ecc_codec ; 0x43d4
        0x00002774:    4810        .H      LDR      r0,[pc,#64] ; [0x27b8] = 0x20001c44
        0x00002776:    6800        .h      LDR      r0,[r0,#0]
        0x00002778:    6840        @h      LDR      r0,[r0,#4]
        0x0000277a:    9959        Y.      LDR      r1,[sp,#0x164]
        0x0000277c:    4a0f        .J      LDR      r2,[pc,#60] ; [0x27bc] = 0x808
        0x0000277e:    1889        ..      ADDS     r1,r1,r2
        0x00002780:    4a0f        .J      LDR      r2,[pc,#60] ; [0x27c0] = 0x20001c48
        0x00002782:    f000fcc3    ....    BL       Reg2Hex ; 0x310c
        0x00002786:    e7ff        ..      B        0x2788 ; ECC_VerifySignature_KS + 1152
        0x00002788:    e7ff        ..      B        0x278a ; ECC_VerifySignature_KS + 1154
        0x0000278a:    995f        _.      LDR      r1,[sp,#0x17c]
        0x0000278c:    480c        .H      LDR      r0,[pc,#48] ; [0x27c0] = 0x20001c48
        0x0000278e:    f7fdfdc9    ....    BL       strcasecmp ; 0x324
        0x00002792:    b140        @.      CBZ      r0,0x27a6 ; ECC_VerifySignature_KS + 1182
        0x00002794:    e7ff        ..      B        0x2796 ; ECC_VerifySignature_KS + 1166
        0x00002796:    e7ff        ..      B        0x2798 ; ECC_VerifySignature_KS + 1168
        0x00002798:    e7ff        ..      B        0x279a ; ECC_VerifySignature_KS + 1170
        0x0000279a:    e7ff        ..      B        0x279c ; ECC_VerifySignature_KS + 1172
        0x0000279c:    e7ff        ..      B        0x279e ; ECC_VerifySignature_KS + 1174
        0x0000279e:    2001        .       MOVS     r0,#1
        0x000027a0:    43c0        .C      MVNS     r0,r0
        0x000027a2:    900c        ..      STR      r0,[sp,#0x30]
        0x000027a4:    e7ff        ..      B        0x27a6 ; ECC_VerifySignature_KS + 1182
        0x000027a6:    e7ff        ..      B        0x27a8 ; ECC_VerifySignature_KS + 1184
        0x000027a8:    980c        ..      LDR      r0,[sp,#0x30]
        0x000027aa:    b05a        Z.      ADD      sp,sp,#0x168
        0x000027ac:    bd10        ..      POP      {r4,pc}
        0x000027ae:    46c0        .F      MOV      r8,r8
    $d.54
    __arm_cp.34_0
        0x000027b0:    00000f48    H...    DCD    3912
    __arm_cp.34_1
        0x000027b4:    000009b8    ....    DCD    2488
    __arm_cp.34_2
        0x000027b8:    20001c44    D..     DCD    536878148
    __arm_cp.34_3
        0x000027bc:    00000808    ....    DCD    2056
    __arm_cp.34_4
        0x000027c0:    20001c48    H..     DCD    536878152
    __arm_cp.34_5
        0x000027c4:    00000898    ....    DCD    2200
    $t.20
    Hex2Reg
        0x000027c8:    b580        ..      PUSH     {r7,lr}
        0x000027ca:    b08a        ..      SUB      sp,sp,#0x28
        0x000027cc:    9009        ..      STR      r0,[sp,#0x24]
        0x000027ce:    9108        ..      STR      r1,[sp,#0x20]
        0x000027d0:    9809        ..      LDR      r0,[sp,#0x24]
        0x000027d2:    f7fdfda0    ....    BL       strlen ; 0x316
        0x000027d6:    1e40        @.      SUBS     r0,r0,#1
        0x000027d8:    9006        ..      STR      r0,[sp,#0x18]
        0x000027da:    2000        .       MOVS     r0,#0
        0x000027dc:    9005        ..      STR      r0,[sp,#0x14]
        0x000027de:    e7ff        ..      B        0x27e0 ; Hex2Reg + 24
        0x000027e0:    9806        ..      LDR      r0,[sp,#0x18]
        0x000027e2:    2800        .(      CMP      r0,#0
        0x000027e4:    d439        9.      BMI      0x285a ; Hex2Reg + 146
        0x000027e6:    e7ff        ..      B        0x27e8 ; Hex2Reg + 32
        0x000027e8:    2000        .       MOVS     r0,#0
        0x000027ea:    9003        ..      STR      r0,[sp,#0xc]
        0x000027ec:    9004        ..      STR      r0,[sp,#0x10]
        0x000027ee:    e7ff        ..      B        0x27f0 ; Hex2Reg + 40
        0x000027f0:    9904        ..      LDR      r1,[sp,#0x10]
        0x000027f2:    2000        .       MOVS     r0,#0
        0x000027f4:    2907        .)      CMP      r1,#7
        0x000027f6:    9002        ..      STR      r0,[sp,#8]
        0x000027f8:    d80c        ..      BHI      0x2814 ; Hex2Reg + 76
        0x000027fa:    e7ff        ..      B        0x27fc ; Hex2Reg + 52
        0x000027fc:    9906        ..      LDR      r1,[sp,#0x18]
        0x000027fe:    2001        .       MOVS     r0,#1
        0x00002800:    2200        ."      MOVS     r2,#0
        0x00002802:    9200        ..      STR      r2,[sp,#0]
        0x00002804:    2900        .)      CMP      r1,#0
        0x00002806:    9001        ..      STR      r0,[sp,#4]
        0x00002808:    da01        ..      BGE      0x280e ; Hex2Reg + 70
        0x0000280a:    9800        ..      LDR      r0,[sp,#0]
        0x0000280c:    9001        ..      STR      r0,[sp,#4]
        0x0000280e:    9801        ..      LDR      r0,[sp,#4]
        0x00002810:    9002        ..      STR      r0,[sp,#8]
        0x00002812:    e7ff        ..      B        0x2814 ; Hex2Reg + 76
        0x00002814:    9802        ..      LDR      r0,[sp,#8]
        0x00002816:    07c0        ..      LSLS     r0,r0,#31
        0x00002818:    b1b8        ..      CBZ      r0,0x284a ; Hex2Reg + 130
        0x0000281a:    e7ff        ..      B        0x281c ; Hex2Reg + 84
        0x0000281c:    9809        ..      LDR      r0,[sp,#0x24]
        0x0000281e:    9906        ..      LDR      r1,[sp,#0x18]
        0x00002820:    5c40        @\      LDRB     r0,[r0,r1]
        0x00002822:    f000fef7    ....    BL       ch2hex ; 0x3614
        0x00002826:    4601        .F      MOV      r1,r0
        0x00002828:    a807        ..      ADD      r0,sp,#0x1c
        0x0000282a:    7001        .p      STRB     r1,[r0,#0]
        0x0000282c:    7801        .x      LDRB     r1,[r0,#0]
        0x0000282e:    9804        ..      LDR      r0,[sp,#0x10]
        0x00002830:    0080        ..      LSLS     r0,r0,#2
        0x00002832:    4081        .@      LSLS     r1,r1,r0
        0x00002834:    9803        ..      LDR      r0,[sp,#0xc]
        0x00002836:    4308        .C      ORRS     r0,r0,r1
        0x00002838:    9003        ..      STR      r0,[sp,#0xc]
        0x0000283a:    9806        ..      LDR      r0,[sp,#0x18]
        0x0000283c:    1e40        @.      SUBS     r0,r0,#1
        0x0000283e:    9006        ..      STR      r0,[sp,#0x18]
        0x00002840:    e7ff        ..      B        0x2842 ; Hex2Reg + 122
        0x00002842:    9804        ..      LDR      r0,[sp,#0x10]
        0x00002844:    1c40        @.      ADDS     r0,r0,#1
        0x00002846:    9004        ..      STR      r0,[sp,#0x10]
        0x00002848:    e7d2        ..      B        0x27f0 ; Hex2Reg + 40
        0x0000284a:    9803        ..      LDR      r0,[sp,#0xc]
        0x0000284c:    9908        ..      LDR      r1,[sp,#0x20]
        0x0000284e:    9a05        ..      LDR      r2,[sp,#0x14]
        0x00002850:    1c53        S.      ADDS     r3,r2,#1
        0x00002852:    9305        ..      STR      r3,[sp,#0x14]
        0x00002854:    0092        ..      LSLS     r2,r2,#2
        0x00002856:    5088        .P      STR      r0,[r1,r2]
        0x00002858:    e7c2        ..      B        0x27e0 ; Hex2Reg + 24
        0x0000285a:    b00a        ..      ADD      sp,sp,#0x28
        0x0000285c:    bd80        ..      POP      {r7,pc}
        0x0000285e:    0000        ..      MOVS     r0,r0
    KS_EraseAll
        0x00002860:    b083        ..      SUB      sp,sp,#0xc
        0x00002862:    9001        ..      STR      r0,[sp,#4]
        0x00002864:    48cd        .H      LDR      r0,[pc,#820] ; [0x2b9c] = 0x20000008
        0x00002866:    6800        .h      LDR      r0,[r0,#0]
        0x00002868:    9000        ..      STR      r0,[sp,#0]
        0x0000286a:    48c9        .H      LDR      r0,[pc,#804] ; [0x2b90] = 0x40035008
        0x0000286c:    6800        .h      LDR      r0,[r0,#0]
        0x0000286e:    0740        @.      LSLS     r0,r0,#29
        0x00002870:    2800        .(      CMP      r0,#0
        0x00002872:    d504        ..      BPL      0x287e ; KS_EraseAll + 30
        0x00002874:    e7ff        ..      B        0x2876 ; KS_EraseAll + 22
        0x00002876:    2000        .       MOVS     r0,#0
        0x00002878:    43c0        .C      MVNS     r0,r0
        0x0000287a:    9002        ..      STR      r0,[sp,#8]
        0x0000287c:    e02d        -.      B        0x28da ; KS_EraseAll + 122
        0x0000287e:    49c4        .I      LDR      r1,[pc,#784] ; [0x2b90] = 0x40035008
        0x00002880:    2002        .       MOVS     r0,#2
        0x00002882:    6008        .`      STR      r0,[r1,#0]
        0x00002884:    9801        ..      LDR      r0,[sp,#4]
        0x00002886:    0780        ..      LSLS     r0,r0,#30
        0x00002888:    4ac2        .J      LDR      r2,[pc,#776] ; [0x2b94] = 0x40035004
        0x0000288a:    6010        .`      STR      r0,[r2,#0]
        0x0000288c:    2003        .       MOVS     r0,#3
        0x0000288e:    6008        .`      STR      r0,[r1,#0]
        0x00002890:    49c1        .I      LDR      r1,[pc,#772] ; [0x2b98] = 0x40035000
        0x00002892:    6808        .h      LDR      r0,[r1,#0]
        0x00002894:    f6404200    @..B    MOVW     r2,#0xc00
        0x00002898:    4010        .@      ANDS     r0,r0,r2
        0x0000289a:    1dc0        ..      ADDS     r0,r0,#7
        0x0000289c:    6008        .`      STR      r0,[r1,#0]
        0x0000289e:    e7ff        ..      B        0x28a0 ; KS_EraseAll + 64
        0x000028a0:    48bb        .H      LDR      r0,[pc,#748] ; [0x2b90] = 0x40035008
        0x000028a2:    6800        .h      LDR      r0,[r0,#0]
        0x000028a4:    0740        @.      LSLS     r0,r0,#29
        0x000028a6:    2800        .(      CMP      r0,#0
        0x000028a8:    d50a        ..      BPL      0x28c0 ; KS_EraseAll + 96
        0x000028aa:    e7ff        ..      B        0x28ac ; KS_EraseAll + 76
        0x000028ac:    9800        ..      LDR      r0,[sp,#0]
        0x000028ae:    1e40        @.      SUBS     r0,r0,#1
        0x000028b0:    9000        ..      STR      r0,[sp,#0]
        0x000028b2:    b920         .      CBNZ     r0,0x28be ; KS_EraseAll + 94
        0x000028b4:    e7ff        ..      B        0x28b6 ; KS_EraseAll + 86
        0x000028b6:    2000        .       MOVS     r0,#0
        0x000028b8:    43c0        .C      MVNS     r0,r0
        0x000028ba:    9002        ..      STR      r0,[sp,#8]
        0x000028bc:    e00d        ..      B        0x28da ; KS_EraseAll + 122
        0x000028be:    e7ef        ..      B        0x28a0 ; KS_EraseAll + 64
        0x000028c0:    48b3        .H      LDR      r0,[pc,#716] ; [0x2b90] = 0x40035008
        0x000028c2:    6800        .h      LDR      r0,[r0,#0]
        0x000028c4:    0780        ..      LSLS     r0,r0,#30
        0x000028c6:    2800        .(      CMP      r0,#0
        0x000028c8:    d504        ..      BPL      0x28d4 ; KS_EraseAll + 116
        0x000028ca:    e7ff        ..      B        0x28cc ; KS_EraseAll + 108
        0x000028cc:    2000        .       MOVS     r0,#0
        0x000028ce:    43c0        .C      MVNS     r0,r0
        0x000028d0:    9002        ..      STR      r0,[sp,#8]
        0x000028d2:    e002        ..      B        0x28da ; KS_EraseAll + 122
        0x000028d4:    2000        .       MOVS     r0,#0
        0x000028d6:    9002        ..      STR      r0,[sp,#8]
        0x000028d8:    e7ff        ..      B        0x28da ; KS_EraseAll + 122
        0x000028da:    9802        ..      LDR      r0,[sp,#8]
        0x000028dc:    b003        ..      ADD      sp,sp,#0xc
        0x000028de:    4770        pG      BX       lr
    KS_EraseKey
        0x000028e0:    b083        ..      SUB      sp,sp,#0xc
        0x000028e2:    9001        ..      STR      r0,[sp,#4]
        0x000028e4:    48ad        .H      LDR      r0,[pc,#692] ; [0x2b9c] = 0x20000008
        0x000028e6:    6800        .h      LDR      r0,[r0,#0]
        0x000028e8:    9000        ..      STR      r0,[sp,#0]
        0x000028ea:    48a9        .H      LDR      r0,[pc,#676] ; [0x2b90] = 0x40035008
        0x000028ec:    6800        .h      LDR      r0,[r0,#0]
        0x000028ee:    0740        @.      LSLS     r0,r0,#29
        0x000028f0:    2800        .(      CMP      r0,#0
        0x000028f2:    d504        ..      BPL      0x28fe ; KS_EraseKey + 30
        0x000028f4:    e7ff        ..      B        0x28f6 ; KS_EraseKey + 22
        0x000028f6:    2000        .       MOVS     r0,#0
        0x000028f8:    43c0        .C      MVNS     r0,r0
        0x000028fa:    9002        ..      STR      r0,[sp,#8]
        0x000028fc:    e02e        ..      B        0x295c ; KS_EraseKey + 124
        0x000028fe:    49a4        .I      LDR      r1,[pc,#656] ; [0x2b90] = 0x40035008
        0x00002900:    2002        .       MOVS     r0,#2
        0x00002902:    6008        .`      STR      r0,[r1,#0]
        0x00002904:    9801        ..      LDR      r0,[sp,#4]
        0x00002906:    0680        ..      LSLS     r0,r0,#26
        0x00002908:    0980        ..      LSRS     r0,r0,#6
        0x0000290a:    4aa2        .J      LDR      r2,[pc,#648] ; [0x2b94] = 0x40035004
        0x0000290c:    6010        .`      STR      r0,[r2,#0]
        0x0000290e:    2003        .       MOVS     r0,#3
        0x00002910:    6008        .`      STR      r0,[r1,#0]
        0x00002912:    49a1        .I      LDR      r1,[pc,#644] ; [0x2b98] = 0x40035000
        0x00002914:    6808        .h      LDR      r0,[r1,#0]
        0x00002916:    f6404200    @..B    MOVW     r2,#0xc00
        0x0000291a:    4010        .@      ANDS     r0,r0,r2
        0x0000291c:    1d40        @.      ADDS     r0,r0,#5
        0x0000291e:    6008        .`      STR      r0,[r1,#0]
        0x00002920:    e7ff        ..      B        0x2922 ; KS_EraseKey + 66
        0x00002922:    489b        .H      LDR      r0,[pc,#620] ; [0x2b90] = 0x40035008
        0x00002924:    6800        .h      LDR      r0,[r0,#0]
        0x00002926:    0740        @.      LSLS     r0,r0,#29
        0x00002928:    2800        .(      CMP      r0,#0
        0x0000292a:    d50a        ..      BPL      0x2942 ; KS_EraseKey + 98
        0x0000292c:    e7ff        ..      B        0x292e ; KS_EraseKey + 78
        0x0000292e:    9800        ..      LDR      r0,[sp,#0]
        0x00002930:    1e40        @.      SUBS     r0,r0,#1
        0x00002932:    9000        ..      STR      r0,[sp,#0]
        0x00002934:    b920         .      CBNZ     r0,0x2940 ; KS_EraseKey + 96
        0x00002936:    e7ff        ..      B        0x2938 ; KS_EraseKey + 88
        0x00002938:    2000        .       MOVS     r0,#0
        0x0000293a:    43c0        .C      MVNS     r0,r0
        0x0000293c:    9002        ..      STR      r0,[sp,#8]
        0x0000293e:    e00d        ..      B        0x295c ; KS_EraseKey + 124
        0x00002940:    e7ef        ..      B        0x2922 ; KS_EraseKey + 66
        0x00002942:    4893        .H      LDR      r0,[pc,#588] ; [0x2b90] = 0x40035008
        0x00002944:    6800        .h      LDR      r0,[r0,#0]
        0x00002946:    0780        ..      LSLS     r0,r0,#30
        0x00002948:    2800        .(      CMP      r0,#0
        0x0000294a:    d504        ..      BPL      0x2956 ; KS_EraseKey + 118
        0x0000294c:    e7ff        ..      B        0x294e ; KS_EraseKey + 110
        0x0000294e:    2000        .       MOVS     r0,#0
        0x00002950:    43c0        .C      MVNS     r0,r0
        0x00002952:    9002        ..      STR      r0,[sp,#8]
        0x00002954:    e002        ..      B        0x295c ; KS_EraseKey + 124
        0x00002956:    2000        .       MOVS     r0,#0
        0x00002958:    9002        ..      STR      r0,[sp,#8]
        0x0000295a:    e7ff        ..      B        0x295c ; KS_EraseKey + 124
        0x0000295c:    9802        ..      LDR      r0,[sp,#8]
        0x0000295e:    b003        ..      ADD      sp,sp,#0xc
        0x00002960:    4770        pG      BX       lr
        0x00002962:    46c0        .F      MOV      r8,r8
    KS_GetKeyWordCnt
        0x00002964:    b580        ..      PUSH     {r7,lr}
        0x00002966:    b08e        ..      SUB      sp,sp,#0x38
        0x00002968:    900d        ..      STR      r0,[sp,#0x34]
        0x0000296a:    4907        .I      LDR      r1,[pc,#28] ; [0x2988] = 0x4fd2
        0x0000296c:    a802        ..      ADD      r0,sp,#8
        0x0000296e:    9001        ..      STR      r0,[sp,#4]
        0x00002970:    222a        *"      MOVS     r2,#0x2a
        0x00002972:    f7fdfcac    ....    BL       __aeabi_memcpy ; 0x2ce
        0x00002976:    9801        ..      LDR      r0,[sp,#4]
        0x00002978:    990d        ..      LDR      r1,[sp,#0x34]
        0x0000297a:    f6417200    A..r    MOVW     r2,#0x1f00
        0x0000297e:    4011        .@      ANDS     r1,r1,r2
        0x00002980:    09c9        ..      LSRS     r1,r1,#7
        0x00002982:    5a40        @Z      LDRH     r0,[r0,r1]
        0x00002984:    b00e        ..      ADD      sp,sp,#0x38
        0x00002986:    bd80        ..      POP      {r7,pc}
    $d.5
    __arm_cp.2_0
        0x00002988:    00004fd2    .O..    DCD    20434
    $t.14
    KS_GetRemainSize
        0x0000298c:    b085        ..      SUB      sp,sp,#0x14
        0x0000298e:    9003        ..      STR      r0,[sp,#0xc]
        0x00002990:    480b        .H      LDR      r0,[pc,#44] ; [0x29c0] = 0x4003500c
        0x00002992:    6800        .h      LDR      r0,[r0,#0]
        0x00002994:    9002        ..      STR      r0,[sp,#8]
        0x00002996:    9802        ..      LDR      r0,[sp,#8]
        0x00002998:    490a        .I      LDR      r1,[pc,#40] ; [0x29c4] = 0x1fff
        0x0000299a:    4008        .@      ANDS     r0,r0,r1
        0x0000299c:    9001        ..      STR      r0,[sp,#4]
        0x0000299e:    9802        ..      LDR      r0,[sp,#8]
        0x000029a0:    4909        .I      LDR      r1,[pc,#36] ; [0x29c8] = 0xfff0000
        0x000029a2:    4008        .@      ANDS     r0,r0,r1
        0x000029a4:    0c00        ..      LSRS     r0,r0,#16
        0x000029a6:    9000        ..      STR      r0,[sp,#0]
        0x000029a8:    9803        ..      LDR      r0,[sp,#0xc]
        0x000029aa:    b918        ..      CBNZ     r0,0x29b4 ; KS_GetRemainSize + 40
        0x000029ac:    e7ff        ..      B        0x29ae ; KS_GetRemainSize + 34
        0x000029ae:    9801        ..      LDR      r0,[sp,#4]
        0x000029b0:    9004        ..      STR      r0,[sp,#0x10]
        0x000029b2:    e002        ..      B        0x29ba ; KS_GetRemainSize + 46
        0x000029b4:    9800        ..      LDR      r0,[sp,#0]
        0x000029b6:    9004        ..      STR      r0,[sp,#0x10]
        0x000029b8:    e7ff        ..      B        0x29ba ; KS_GetRemainSize + 46
        0x000029ba:    9804        ..      LDR      r0,[sp,#0x10]
        0x000029bc:    b005        ..      ADD      sp,sp,#0x14
        0x000029be:    4770        pG      BX       lr
    $d.15
    __arm_cp.7_0
        0x000029c0:    4003500c    .P.@    DCD    1073958924
    __arm_cp.7_1
        0x000029c4:    00001fff    ....    DCD    8191
    __arm_cp.7_2
        0x000029c8:    0fff0000    ....    DCD    268369920
    $t.0
    KS_Open
        0x000029cc:    b082        ..      SUB      sp,sp,#8
        0x000029ce:    4870        pH      LDR      r0,[pc,#448] ; [0x2b90] = 0x40035008
        0x000029d0:    6800        .h      LDR      r0,[r0,#0]
        0x000029d2:    0600        ..      LSLS     r0,r0,#24
        0x000029d4:    2800        .(      CMP      r0,#0
        0x000029d6:    d42d        -.      BMI      0x2a34 ; KS_Open + 104
        0x000029d8:    e7ff        ..      B        0x29da ; KS_Open + 14
        0x000029da:    4870        pH      LDR      r0,[pc,#448] ; [0x2b9c] = 0x20000008
        0x000029dc:    6800        .h      LDR      r0,[r0,#0]
        0x000029de:    9000        ..      STR      r0,[sp,#0]
        0x000029e0:    e7ff        ..      B        0x29e2 ; KS_Open + 22
        0x000029e2:    486b        kH      LDR      r0,[pc,#428] ; [0x2b90] = 0x40035008
        0x000029e4:    6800        .h      LDR      r0,[r0,#0]
        0x000029e6:    0740        @.      LSLS     r0,r0,#29
        0x000029e8:    2800        .(      CMP      r0,#0
        0x000029ea:    d50a        ..      BPL      0x2a02 ; KS_Open + 54
        0x000029ec:    e7ff        ..      B        0x29ee ; KS_Open + 34
        0x000029ee:    9800        ..      LDR      r0,[sp,#0]
        0x000029f0:    1e40        @.      SUBS     r0,r0,#1
        0x000029f2:    9000        ..      STR      r0,[sp,#0]
        0x000029f4:    b920         .      CBNZ     r0,0x2a00 ; KS_Open + 52
        0x000029f6:    e7ff        ..      B        0x29f8 ; KS_Open + 44
        0x000029f8:    2001        .       MOVS     r0,#1
        0x000029fa:    43c0        .C      MVNS     r0,r0
        0x000029fc:    9001        ..      STR      r0,[sp,#4]
        0x000029fe:    e030        0.      B        0x2a62 ; KS_Open + 150
        0x00002a00:    e7ef        ..      B        0x29e2 ; KS_Open + 22
        0x00002a02:    4965        eI      LDR      r1,[pc,#404] ; [0x2b98] = 0x40035000
        0x00002a04:    f2401001    @...    MOV      r0,#0x101
        0x00002a08:    6008        .`      STR      r0,[r1,#0]
        0x00002a0a:    4864        dH      LDR      r0,[pc,#400] ; [0x2b9c] = 0x20000008
        0x00002a0c:    6800        .h      LDR      r0,[r0,#0]
        0x00002a0e:    9000        ..      STR      r0,[sp,#0]
        0x00002a10:    e7ff        ..      B        0x2a12 ; KS_Open + 70
        0x00002a12:    485f        _H      LDR      r0,[pc,#380] ; [0x2b90] = 0x40035008
        0x00002a14:    6800        .h      LDR      r0,[r0,#0]
        0x00002a16:    0600        ..      LSLS     r0,r0,#24
        0x00002a18:    2800        .(      CMP      r0,#0
        0x00002a1a:    d40a        ..      BMI      0x2a32 ; KS_Open + 102
        0x00002a1c:    e7ff        ..      B        0x2a1e ; KS_Open + 82
        0x00002a1e:    9800        ..      LDR      r0,[sp,#0]
        0x00002a20:    1e40        @.      SUBS     r0,r0,#1
        0x00002a22:    9000        ..      STR      r0,[sp,#0]
        0x00002a24:    b920         .      CBNZ     r0,0x2a30 ; KS_Open + 100
        0x00002a26:    e7ff        ..      B        0x2a28 ; KS_Open + 92
        0x00002a28:    2001        .       MOVS     r0,#1
        0x00002a2a:    43c0        .C      MVNS     r0,r0
        0x00002a2c:    9001        ..      STR      r0,[sp,#4]
        0x00002a2e:    e018        ..      B        0x2a62 ; KS_Open + 150
        0x00002a30:    e7ef        ..      B        0x2a12 ; KS_Open + 70
        0x00002a32:    e7ff        ..      B        0x2a34 ; KS_Open + 104
        0x00002a34:    4859        YH      LDR      r0,[pc,#356] ; [0x2b9c] = 0x20000008
        0x00002a36:    6800        .h      LDR      r0,[r0,#0]
        0x00002a38:    9000        ..      STR      r0,[sp,#0]
        0x00002a3a:    e7ff        ..      B        0x2a3c ; KS_Open + 112
        0x00002a3c:    4854        TH      LDR      r0,[pc,#336] ; [0x2b90] = 0x40035008
        0x00002a3e:    6800        .h      LDR      r0,[r0,#0]
        0x00002a40:    0740        @.      LSLS     r0,r0,#29
        0x00002a42:    2800        .(      CMP      r0,#0
        0x00002a44:    d50a        ..      BPL      0x2a5c ; KS_Open + 144
        0x00002a46:    e7ff        ..      B        0x2a48 ; KS_Open + 124
        0x00002a48:    9800        ..      LDR      r0,[sp,#0]
        0x00002a4a:    1e40        @.      SUBS     r0,r0,#1
        0x00002a4c:    9000        ..      STR      r0,[sp,#0]
        0x00002a4e:    b920         .      CBNZ     r0,0x2a5a ; KS_Open + 142
        0x00002a50:    e7ff        ..      B        0x2a52 ; KS_Open + 134
        0x00002a52:    2001        .       MOVS     r0,#1
        0x00002a54:    43c0        .C      MVNS     r0,r0
        0x00002a56:    9001        ..      STR      r0,[sp,#4]
        0x00002a58:    e003        ..      B        0x2a62 ; KS_Open + 150
        0x00002a5a:    e7ef        ..      B        0x2a3c ; KS_Open + 112
        0x00002a5c:    2000        .       MOVS     r0,#0
        0x00002a5e:    9001        ..      STR      r0,[sp,#4]
        0x00002a60:    e7ff        ..      B        0x2a62 ; KS_Open + 150
        0x00002a62:    9801        ..      LDR      r0,[sp,#4]
        0x00002a64:    b002        ..      ADD      sp,sp,#8
        0x00002a66:    4770        pG      BX       lr
    KS_Write
        0x00002a68:    b510        ..      PUSH     {r4,lr}
        0x00002a6a:    b08a        ..      SUB      sp,sp,#0x28
        0x00002a6c:    9008        ..      STR      r0,[sp,#0x20]
        0x00002a6e:    9107        ..      STR      r1,[sp,#0x1c]
        0x00002a70:    9206        ..      STR      r2,[sp,#0x18]
        0x00002a72:    4847        GH      LDR      r0,[pc,#284] ; [0x2b90] = 0x40035008
        0x00002a74:    6800        .h      LDR      r0,[r0,#0]
        0x00002a76:    0740        @.      LSLS     r0,r0,#29
        0x00002a78:    2800        .(      CMP      r0,#0
        0x00002a7a:    d504        ..      BPL      0x2a86 ; KS_Write + 30
        0x00002a7c:    e7ff        ..      B        0x2a7e ; KS_Write + 22
        0x00002a7e:    2000        .       MOVS     r0,#0
        0x00002a80:    43c0        .C      MVNS     r0,r0
        0x00002a82:    9009        ..      STR      r0,[sp,#0x24]
        0x00002a84:    e081        ..      B        0x2b8a ; KS_Write + 290
        0x00002a86:    9808        ..      LDR      r0,[sp,#0x20]
        0x00002a88:    0780        ..      LSLS     r0,r0,#30
        0x00002a8a:    9907        ..      LDR      r1,[sp,#0x1c]
        0x00002a8c:    4308        .C      ORRS     r0,r0,r1
        0x00002a8e:    4941        AI      LDR      r1,[pc,#260] ; [0x2b94] = 0x40035004
        0x00002a90:    6008        .`      STR      r0,[r1,#0]
        0x00002a92:    9807        ..      LDR      r0,[sp,#0x1c]
        0x00002a94:    f7ffff66    ..f.    BL       KS_GetKeyWordCnt ; 0x2964
        0x00002a98:    9005        ..      STR      r0,[sp,#0x14]
        0x00002a9a:    9805        ..      LDR      r0,[sp,#0x14]
        0x00002a9c:    b920         .      CBNZ     r0,0x2aa8 ; KS_Write + 64
        0x00002a9e:    e7ff        ..      B        0x2aa0 ; KS_Write + 56
        0x00002aa0:    2000        .       MOVS     r0,#0
        0x00002aa2:    43c0        .C      MVNS     r0,r0
        0x00002aa4:    9009        ..      STR      r0,[sp,#0x24]
        0x00002aa6:    e070        p.      B        0x2b8a ; KS_Write + 290
        0x00002aa8:    9808        ..      LDR      r0,[sp,#0x20]
        0x00002aaa:    2802        .(      CMP      r0,#2
        0x00002aac:    d108        ..      BNE      0x2ac0 ; KS_Write + 88
        0x00002aae:    e7ff        ..      B        0x2ab0 ; KS_Write + 72
        0x00002ab0:    9805        ..      LDR      r0,[sp,#0x14]
        0x00002ab2:    2809        .(      CMP      r0,#9
        0x00002ab4:    db04        ..      BLT      0x2ac0 ; KS_Write + 88
        0x00002ab6:    e7ff        ..      B        0x2ab8 ; KS_Write + 80
        0x00002ab8:    2000        .       MOVS     r0,#0
        0x00002aba:    43c0        .C      MVNS     r0,r0
        0x00002abc:    9009        ..      STR      r0,[sp,#0x24]
        0x00002abe:    e064        d.      B        0x2b8a ; KS_Write + 290
        0x00002ac0:    4933        3I      LDR      r1,[pc,#204] ; [0x2b90] = 0x40035008
        0x00002ac2:    2002        .       MOVS     r0,#2
        0x00002ac4:    6008        .`      STR      r0,[r1,#0]
        0x00002ac6:    2000        .       MOVS     r0,#0
        0x00002ac8:    9001        ..      STR      r0,[sp,#4]
        0x00002aca:    9004        ..      STR      r0,[sp,#0x10]
        0x00002acc:    e7ff        ..      B        0x2ace ; KS_Write + 102
        0x00002ace:    9805        ..      LDR      r0,[sp,#0x14]
        0x00002ad0:    9002        ..      STR      r0,[sp,#8]
        0x00002ad2:    9802        ..      LDR      r0,[sp,#8]
        0x00002ad4:    2809        .(      CMP      r0,#9
        0x00002ad6:    db03        ..      BLT      0x2ae0 ; KS_Write + 120
        0x00002ad8:    e7ff        ..      B        0x2ada ; KS_Write + 114
        0x00002ada:    2008        .       MOVS     r0,#8
        0x00002adc:    9002        ..      STR      r0,[sp,#8]
        0x00002ade:    e7ff        ..      B        0x2ae0 ; KS_Write + 120
        0x00002ae0:    2000        .       MOVS     r0,#0
        0x00002ae2:    9003        ..      STR      r0,[sp,#0xc]
        0x00002ae4:    e7ff        ..      B        0x2ae6 ; KS_Write + 126
        0x00002ae6:    9803        ..      LDR      r0,[sp,#0xc]
        0x00002ae8:    9902        ..      LDR      r1,[sp,#8]
        0x00002aea:    4288        .B      CMP      r0,r1
        0x00002aec:    da0e        ..      BGE      0x2b0c ; KS_Write + 164
        0x00002aee:    e7ff        ..      B        0x2af0 ; KS_Write + 136
        0x00002af0:    9806        ..      LDR      r0,[sp,#0x18]
        0x00002af2:    9a01        ..      LDR      r2,[sp,#4]
        0x00002af4:    9903        ..      LDR      r1,[sp,#0xc]
        0x00002af6:    1852        R.      ADDS     r2,r2,r1
        0x00002af8:    0092        ..      LSLS     r2,r2,#2
        0x00002afa:    5880        .X      LDR      r0,[r0,r2]
        0x00002afc:    0089        ..      LSLS     r1,r1,#2
        0x00002afe:    4a28        (J      LDR      r2,[pc,#160] ; [0x2ba0] = 0x40035020
        0x00002b00:    5088        .P      STR      r0,[r1,r2]
        0x00002b02:    e7ff        ..      B        0x2b04 ; KS_Write + 156
        0x00002b04:    9803        ..      LDR      r0,[sp,#0xc]
        0x00002b06:    1c40        @.      ADDS     r0,r0,#1
        0x00002b08:    9003        ..      STR      r0,[sp,#0xc]
        0x00002b0a:    e7ec        ..      B        0x2ae6 ; KS_Write + 126
        0x00002b0c:    4820         H      LDR      r0,[pc,#128] ; [0x2b90] = 0x40035008
        0x00002b0e:    2203        ."      MOVS     r2,#3
        0x00002b10:    6002        .`      STR      r2,[r0,#0]
        0x00002b12:    9804        ..      LDR      r0,[sp,#0x10]
        0x00002b14:    4920         I      LDR      r1,[pc,#128] ; [0x2b98] = 0x40035000
        0x00002b16:    680b        .h      LDR      r3,[r1,#0]
        0x00002b18:    f6404400    @..D    MOVW     r4,#0xc00
        0x00002b1c:    4023        #@      ANDS     r3,r3,r4
        0x00002b1e:    4318        .C      ORRS     r0,r0,r3
        0x00002b20:    4310        .C      ORRS     r0,r0,r2
        0x00002b22:    6008        .`      STR      r0,[r1,#0]
        0x00002b24:    2080        .       MOVS     r0,#0x80
        0x00002b26:    9004        ..      STR      r0,[sp,#0x10]
        0x00002b28:    9805        ..      LDR      r0,[sp,#0x14]
        0x00002b2a:    3808        .8      SUBS     r0,r0,#8
        0x00002b2c:    9005        ..      STR      r0,[sp,#0x14]
        0x00002b2e:    9801        ..      LDR      r0,[sp,#4]
        0x00002b30:    3008        .0      ADDS     r0,r0,#8
        0x00002b32:    9001        ..      STR      r0,[sp,#4]
        0x00002b34:    4819        .H      LDR      r0,[pc,#100] ; [0x2b9c] = 0x20000008
        0x00002b36:    6800        .h      LDR      r0,[r0,#0]
        0x00002b38:    9000        ..      STR      r0,[sp,#0]
        0x00002b3a:    e7ff        ..      B        0x2b3c ; KS_Write + 212
        0x00002b3c:    4814        .H      LDR      r0,[pc,#80] ; [0x2b90] = 0x40035008
        0x00002b3e:    6800        .h      LDR      r0,[r0,#0]
        0x00002b40:    0740        @.      LSLS     r0,r0,#29
        0x00002b42:    2800        .(      CMP      r0,#0
        0x00002b44:    d50a        ..      BPL      0x2b5c ; KS_Write + 244
        0x00002b46:    e7ff        ..      B        0x2b48 ; KS_Write + 224
        0x00002b48:    9800        ..      LDR      r0,[sp,#0]
        0x00002b4a:    1e40        @.      SUBS     r0,r0,#1
        0x00002b4c:    9000        ..      STR      r0,[sp,#0]
        0x00002b4e:    b920         .      CBNZ     r0,0x2b5a ; KS_Write + 242
        0x00002b50:    e7ff        ..      B        0x2b52 ; KS_Write + 234
        0x00002b52:    2000        .       MOVS     r0,#0
        0x00002b54:    43c0        .C      MVNS     r0,r0
        0x00002b56:    9009        ..      STR      r0,[sp,#0x24]
        0x00002b58:    e017        ..      B        0x2b8a ; KS_Write + 290
        0x00002b5a:    e7ef        ..      B        0x2b3c ; KS_Write + 212
        0x00002b5c:    e7ff        ..      B        0x2b5e ; KS_Write + 246
        0x00002b5e:    9805        ..      LDR      r0,[sp,#0x14]
        0x00002b60:    2800        .(      CMP      r0,#0
        0x00002b62:    dcb4        ..      BGT      0x2ace ; KS_Write + 102
        0x00002b64:    e7ff        ..      B        0x2b66 ; KS_Write + 254
        0x00002b66:    480a        .H      LDR      r0,[pc,#40] ; [0x2b90] = 0x40035008
        0x00002b68:    6800        .h      LDR      r0,[r0,#0]
        0x00002b6a:    0780        ..      LSLS     r0,r0,#30
        0x00002b6c:    2800        .(      CMP      r0,#0
        0x00002b6e:    d504        ..      BPL      0x2b7a ; KS_Write + 274
        0x00002b70:    e7ff        ..      B        0x2b72 ; KS_Write + 266
        0x00002b72:    2000        .       MOVS     r0,#0
        0x00002b74:    43c0        .C      MVNS     r0,r0
        0x00002b76:    9009        ..      STR      r0,[sp,#0x24]
        0x00002b78:    e007        ..      B        0x2b8a ; KS_Write + 290
        0x00002b7a:    4806        .H      LDR      r0,[pc,#24] ; [0x2b94] = 0x40035004
        0x00002b7c:    6800        .h      LDR      r0,[r0,#0]
        0x00002b7e:    213f        ?!      MOVS     r1,#0x3f
        0x00002b80:    0509        ..      LSLS     r1,r1,#20
        0x00002b82:    4008        .@      ANDS     r0,r0,r1
        0x00002b84:    0d00        ..      LSRS     r0,r0,#20
        0x00002b86:    9009        ..      STR      r0,[sp,#0x24]
        0x00002b88:    e7ff        ..      B        0x2b8a ; KS_Write + 290
        0x00002b8a:    9809        ..      LDR      r0,[sp,#0x24]
        0x00002b8c:    b00a        ..      ADD      sp,sp,#0x28
        0x00002b8e:    bd10        ..      POP      {r4,pc}
    $d.7
    __arm_cp.3_0
        0x00002b90:    40035008    .P.@    DCD    1073958920
    __arm_cp.3_1
        0x00002b94:    40035004    .P.@    DCD    1073958916
    __arm_cp.3_2
        0x00002b98:    40035000    .P.@    DCD    1073958912
    __arm_cp.3_3
        0x00002b9c:    20000008    ...     DCD    536870920
    __arm_cp.3_4
        0x00002ba0:    40035020     P.@    DCD    1073958944
    $t.3
    ProcessHardFault
        0x00002ba4:    b5b0        ..      PUSH     {r4,r5,r7,lr}
        0x00002ba6:    b0ca        ..      SUB      sp,sp,#0x128
        0x00002ba8:    9049        I.      STR      r0,[sp,#0x124]
        0x00002baa:    9148        H.      STR      r1,[sp,#0x120]
        0x00002bac:    9247        G.      STR      r2,[sp,#0x11c]
        0x00002bae:    2000        .       MOVS     r0,#0
        0x00002bb0:    9046        F.      STR      r0,[sp,#0x118]
        0x00002bb2:    9849        I.      LDR      r0,[sp,#0x124]
        0x00002bb4:    2140        @!      MOVS     r1,#0x40
        0x00002bb6:    4008        .@      ANDS     r0,r0,r1
        0x00002bb8:    0980        ..      LSRS     r0,r0,#6
        0x00002bba:    903f        ?.      STR      r0,[sp,#0xfc]
        0x00002bbc:    983f        ?.      LDR      r0,[sp,#0xfc]
        0x00002bbe:    b168        h.      CBZ      r0,0x2bdc ; ProcessHardFault + 56
        0x00002bc0:    e7ff        ..      B        0x2bc2 ; ProcessHardFault + 30
        0x00002bc2:    a849        I.      ADD      r0,sp,#0x124
        0x00002bc4:    7800        .x      LDRB     r0,[r0,#0]
        0x00002bc6:    0740        @.      LSLS     r0,r0,#29
        0x00002bc8:    2800        .(      CMP      r0,#0
        0x00002bca:    d503        ..      BPL      0x2bd4 ; ProcessHardFault + 48
        0x00002bcc:    e7ff        ..      B        0x2bce ; ProcessHardFault + 42
        0x00002bce:    9847        G.      LDR      r0,[sp,#0x11c]
        0x00002bd0:    9046        F.      STR      r0,[sp,#0x118]
        0x00002bd2:    e002        ..      B        0x2bda ; ProcessHardFault + 54
        0x00002bd4:    9848        H.      LDR      r0,[sp,#0x120]
        0x00002bd6:    9046        F.      STR      r0,[sp,#0x118]
        0x00002bd8:    e7ff        ..      B        0x2bda ; ProcessHardFault + 54
        0x00002bda:    e7ff        ..      B        0x2bdc ; ProcessHardFault + 56
        0x00002bdc:    9846        F.      LDR      r0,[sp,#0x118]
        0x00002bde:    6981        .i      LDR      r1,[r0,#0x18]
        0x00002be0:    48b3        .H      LDR      r0,[pc,#716] ; [0x2eb0] = 0xac43
        0x00002be2:    f001fd29    ..).    BL       __0printf ; 0x4638
        0x00002be6:    9846        F.      LDR      r0,[sp,#0x118]
        0x00002be8:    b138        8.      CBZ      r0,0x2bfa ; ProcessHardFault + 86
        0x00002bea:    e7ff        ..      B        0x2bec ; ProcessHardFault + 72
        0x00002bec:    9846        F.      LDR      r0,[sp,#0x118]
        0x00002bee:    6980        .i      LDR      r0,[r0,#0x18]
        0x00002bf0:    9042        B.      STR      r0,[sp,#0x108]
        0x00002bf2:    9842        B.      LDR      r0,[sp,#0x108]
        0x00002bf4:    8800        ..      LDRH     r0,[r0,#0]
        0x00002bf6:    9043        C.      STR      r0,[sp,#0x10c]
        0x00002bf8:    e7ff        ..      B        0x2bfa ; ProcessHardFault + 86
        0x00002bfa:    48ae        .H      LDR      r0,[pc,#696] ; [0x2eb4] = 0xab14
        0x00002bfc:    f001fd1c    ....    BL       __0printf ; 0x4638
        0x00002c00:    9943        C.      LDR      r1,[sp,#0x10c]
        0x00002c02:    48ad        .H      LDR      r0,[pc,#692] ; [0x2eb8] = 0xabbc
        0x00002c04:    f001fd18    ....    BL       __0printf ; 0x4638
        0x00002c08:    983f        ?.      LDR      r0,[sp,#0xfc]
        0x00002c0a:    b950        P.      CBNZ     r0,0x2c22 ; ProcessHardFault + 126
        0x00002c0c:    e7ff        ..      B        0x2c0e ; ProcessHardFault + 106
        0x00002c0e:    a842        B.      ADD      r0,sp,#0x108
        0x00002c10:    78c0        .x      LDRB     r0,[r0,#3]
        0x00002c12:    06c0        ..      LSLS     r0,r0,#27
        0x00002c14:    2800        .(      CMP      r0,#0
        0x00002c16:    d404        ..      BMI      0x2c22 ; ProcessHardFault + 126
        0x00002c18:    e7ff        ..      B        0x2c1a ; ProcessHardFault + 118
        0x00002c1a:    48a8        .H      LDR      r0,[pc,#672] ; [0x2ebc] = 0xab6d
        0x00002c1c:    f001fd0c    ....    BL       __0printf ; 0x4638
        0x00002c20:    e0f7        ..      B        0x2e12 ; ProcessHardFault + 622
        0x00002c22:    9843        C.      LDR      r0,[sp,#0x10c]
        0x00002c24:    49a6        .I      LDR      r1,[pc,#664] ; [0x2ec0] = 0xbeab
        0x00002c26:    4288        .B      CMP      r0,r1
        0x00002c28:    d104        ..      BNE      0x2c34 ; ProcessHardFault + 144
        0x00002c2a:    e7ff        ..      B        0x2c2c ; ProcessHardFault + 136
        0x00002c2c:    48ad        .H      LDR      r0,[pc,#692] ; [0x2ee4] = 0xab49
        0x00002c2e:    f001fd03    ....    BL       __0printf ; 0x4638
        0x00002c32:    e0ed        ..      B        0x2e10 ; ProcessHardFault + 620
        0x00002c34:    9843        C.      LDR      r0,[sp,#0x10c]
        0x00002c36:    0b00        ..      LSRS     r0,r0,#12
        0x00002c38:    2805        .(      CMP      r0,#5
        0x00002c3a:    d138        8.      BNE      0x2cae ; ProcessHardFault + 266
        0x00002c3c:    e7ff        ..      B        0x2c3e ; ProcessHardFault + 154
        0x00002c3e:    9843        C.      LDR      r0,[sp,#0x10c]
        0x00002c40:    05c0        ..      LSLS     r0,r0,#23
        0x00002c42:    0f40        @.      LSRS     r0,r0,#29
        0x00002c44:    903e        >.      STR      r0,[sp,#0xf8]
        0x00002c46:    9843        C.      LDR      r0,[sp,#0x10c]
        0x00002c48:    0680        ..      LSLS     r0,r0,#26
        0x00002c4a:    0f40        @.      LSRS     r0,r0,#29
        0x00002c4c:    903d        =.      STR      r0,[sp,#0xf4]
        0x00002c4e:    9843        C.      LDR      r0,[sp,#0x10c]
        0x00002c50:    2107        .!      MOVS     r1,#7
        0x00002c52:    4008        .@      ANDS     r0,r0,r1
        0x00002c54:    903c        <.      STR      r0,[sp,#0xf0]
        0x00002c56:    993c        <.      LDR      r1,[sp,#0xf0]
        0x00002c58:    9a3e        >.      LDR      r2,[sp,#0xf8]
        0x00002c5a:    9b3d        =.      LDR      r3,[sp,#0xf4]
        0x00002c5c:    48a0        .H      LDR      r0,[pc,#640] ; [0x2ee0] = 0xac28
        0x00002c5e:    f001fceb    ....    BL       __0printf ; 0x4638
        0x00002c62:    9946        F.      LDR      r1,[sp,#0x118]
        0x00002c64:    983d        =.      LDR      r0,[sp,#0xf4]
        0x00002c66:    0080        ..      LSLS     r0,r0,#2
        0x00002c68:    5808        .X      LDR      r0,[r1,r0]
        0x00002c6a:    9a3e        >.      LDR      r2,[sp,#0xf8]
        0x00002c6c:    0092        ..      LSLS     r2,r2,#2
        0x00002c6e:    5889        .X      LDR      r1,[r1,r2]
        0x00002c70:    1840        @.      ADDS     r0,r0,r1
        0x00002c72:    9041        A.      STR      r0,[sp,#0x104]
        0x00002c74:    9846        F.      LDR      r0,[sp,#0x118]
        0x00002c76:    993c        <.      LDR      r1,[sp,#0xf0]
        0x00002c78:    0089        ..      LSLS     r1,r1,#2
        0x00002c7a:    5840        @X      LDR      r0,[r0,r1]
        0x00002c7c:    9040        @.      STR      r0,[sp,#0x100]
        0x00002c7e:    9842        B.      LDR      r0,[sp,#0x108]
        0x00002c80:    900f        ..      STR      r0,[sp,#0x3c]
        0x00002c82:    9843        C.      LDR      r0,[sp,#0x10c]
        0x00002c84:    9010        ..      STR      r0,[sp,#0x40]
        0x00002c86:    0501        ..      LSLS     r1,r0,#20
        0x00002c88:    4890        .H      LDR      r0,[pc,#576] ; [0x2ecc] = 0xacb8
        0x00002c8a:    4a91        .J      LDR      r2,[pc,#580] ; [0x2ed0] = 0xacbc
        0x00002c8c:    9211        ..      STR      r2,[sp,#0x44]
        0x00002c8e:    2900        .)      CMP      r1,#0
        0x00002c90:    9012        ..      STR      r0,[sp,#0x48]
        0x00002c92:    d401        ..      BMI      0x2c98 ; ProcessHardFault + 244
        0x00002c94:    9811        ..      LDR      r0,[sp,#0x44]
        0x00002c96:    9012        ..      STR      r0,[sp,#0x48]
        0x00002c98:    9a10        ..      LDR      r2,[sp,#0x40]
        0x00002c9a:    990f        ..      LDR      r1,[sp,#0x3c]
        0x00002c9c:    9b12        ..      LDR      r3,[sp,#0x48]
        0x00002c9e:    9840        @.      LDR      r0,[sp,#0x100]
        0x00002ca0:    9c41        A.      LDR      r4,[sp,#0x104]
        0x00002ca2:    9401        ..      STR      r4,[sp,#4]
        0x00002ca4:    9000        ..      STR      r0,[sp,#0]
        0x00002ca6:    488b        .H      LDR      r0,[pc,#556] ; [0x2ed4] = 0xab29
        0x00002ca8:    f001fcc6    ....    BL       __0printf ; 0x4638
        0x00002cac:    e0af        ..      B        0x2e0e ; ProcessHardFault + 618
        0x00002cae:    9843        C.      LDR      r0,[sp,#0x10c]
        0x00002cb0:    0b40        @.      LSRS     r0,r0,#13
        0x00002cb2:    2803        .(      CMP      r0,#3
        0x00002cb4:    d136        6.      BNE      0x2d24 ; ProcessHardFault + 384
        0x00002cb6:    e7ff        ..      B        0x2cb8 ; ProcessHardFault + 276
        0x00002cb8:    9843        C.      LDR      r0,[sp,#0x10c]
        0x00002cba:    0540        @.      LSLS     r0,r0,#21
        0x00002cbc:    0ec0        ..      LSRS     r0,r0,#27
        0x00002cbe:    903b        ;.      STR      r0,[sp,#0xec]
        0x00002cc0:    9843        C.      LDR      r0,[sp,#0x10c]
        0x00002cc2:    0680        ..      LSLS     r0,r0,#26
        0x00002cc4:    0f40        @.      LSRS     r0,r0,#29
        0x00002cc6:    903d        =.      STR      r0,[sp,#0xf4]
        0x00002cc8:    9843        C.      LDR      r0,[sp,#0x10c]
        0x00002cca:    2107        .!      MOVS     r1,#7
        0x00002ccc:    4008        .@      ANDS     r0,r0,r1
        0x00002cce:    903c        <.      STR      r0,[sp,#0xf0]
        0x00002cd0:    993c        <.      LDR      r1,[sp,#0xf0]
        0x00002cd2:    9a3d        =.      LDR      r2,[sp,#0xf4]
        0x00002cd4:    9b3b        ;.      LDR      r3,[sp,#0xec]
        0x00002cd6:    4881        .H      LDR      r0,[pc,#516] ; [0x2edc] = 0xabf2
        0x00002cd8:    f001fcae    ....    BL       __0printf ; 0x4638
        0x00002cdc:    9846        F.      LDR      r0,[sp,#0x118]
        0x00002cde:    993d        =.      LDR      r1,[sp,#0xf4]
        0x00002ce0:    0089        ..      LSLS     r1,r1,#2
        0x00002ce2:    5840        @X      LDR      r0,[r0,r1]
        0x00002ce4:    993b        ;.      LDR      r1,[sp,#0xec]
        0x00002ce6:    1840        @.      ADDS     r0,r0,r1
        0x00002ce8:    9041        A.      STR      r0,[sp,#0x104]
        0x00002cea:    9846        F.      LDR      r0,[sp,#0x118]
        0x00002cec:    993c        <.      LDR      r1,[sp,#0xf0]
        0x00002cee:    0089        ..      LSLS     r1,r1,#2
        0x00002cf0:    5840        @X      LDR      r0,[r0,r1]
        0x00002cf2:    9040        @.      STR      r0,[sp,#0x100]
        0x00002cf4:    9842        B.      LDR      r0,[sp,#0x108]
        0x00002cf6:    900b        ..      STR      r0,[sp,#0x2c]
        0x00002cf8:    9843        C.      LDR      r0,[sp,#0x10c]
        0x00002cfa:    900c        ..      STR      r0,[sp,#0x30]
        0x00002cfc:    0501        ..      LSLS     r1,r0,#20
        0x00002cfe:    4873        sH      LDR      r0,[pc,#460] ; [0x2ecc] = 0xacb8
        0x00002d00:    4a73        sJ      LDR      r2,[pc,#460] ; [0x2ed0] = 0xacbc
        0x00002d02:    920d        ..      STR      r2,[sp,#0x34]
        0x00002d04:    2900        .)      CMP      r1,#0
        0x00002d06:    900e        ..      STR      r0,[sp,#0x38]
        0x00002d08:    d401        ..      BMI      0x2d0e ; ProcessHardFault + 362
        0x00002d0a:    980d        ..      LDR      r0,[sp,#0x34]
        0x00002d0c:    900e        ..      STR      r0,[sp,#0x38]
        0x00002d0e:    9a0c        ..      LDR      r2,[sp,#0x30]
        0x00002d10:    990b        ..      LDR      r1,[sp,#0x2c]
        0x00002d12:    9b0e        ..      LDR      r3,[sp,#0x38]
        0x00002d14:    9840        @.      LDR      r0,[sp,#0x100]
        0x00002d16:    9c41        A.      LDR      r4,[sp,#0x104]
        0x00002d18:    9401        ..      STR      r4,[sp,#4]
        0x00002d1a:    9000        ..      STR      r0,[sp,#0]
        0x00002d1c:    486d        mH      LDR      r0,[pc,#436] ; [0x2ed4] = 0xab29
        0x00002d1e:    f001fc8b    ....    BL       __0printf ; 0x4638
        0x00002d22:    e073        s.      B        0x2e0c ; ProcessHardFault + 616
        0x00002d24:    9843        C.      LDR      r0,[sp,#0x10c]
        0x00002d26:    0b00        ..      LSRS     r0,r0,#12
        0x00002d28:    2808        .(      CMP      r0,#8
        0x00002d2a:    d136        6.      BNE      0x2d9a ; ProcessHardFault + 502
        0x00002d2c:    e7ff        ..      B        0x2d2e ; ProcessHardFault + 394
        0x00002d2e:    9843        C.      LDR      r0,[sp,#0x10c]
        0x00002d30:    0540        @.      LSLS     r0,r0,#21
        0x00002d32:    0ec0        ..      LSRS     r0,r0,#27
        0x00002d34:    903b        ;.      STR      r0,[sp,#0xec]
        0x00002d36:    9843        C.      LDR      r0,[sp,#0x10c]
        0x00002d38:    0680        ..      LSLS     r0,r0,#26
        0x00002d3a:    0f40        @.      LSRS     r0,r0,#29
        0x00002d3c:    903d        =.      STR      r0,[sp,#0xf4]
        0x00002d3e:    9843        C.      LDR      r0,[sp,#0x10c]
        0x00002d40:    2107        .!      MOVS     r1,#7
        0x00002d42:    4008        .@      ANDS     r0,r0,r1
        0x00002d44:    903c        <.      STR      r0,[sp,#0xf0]
        0x00002d46:    993c        <.      LDR      r1,[sp,#0xf0]
        0x00002d48:    9a3d        =.      LDR      r2,[sp,#0xf4]
        0x00002d4a:    9b3b        ;.      LDR      r3,[sp,#0xec]
        0x00002d4c:    4862        bH      LDR      r0,[pc,#392] ; [0x2ed8] = 0xabd3
        0x00002d4e:    f001fc73    ..s.    BL       __0printf ; 0x4638
        0x00002d52:    9846        F.      LDR      r0,[sp,#0x118]
        0x00002d54:    993d        =.      LDR      r1,[sp,#0xf4]
        0x00002d56:    0089        ..      LSLS     r1,r1,#2
        0x00002d58:    5840        @X      LDR      r0,[r0,r1]
        0x00002d5a:    993b        ;.      LDR      r1,[sp,#0xec]
        0x00002d5c:    1840        @.      ADDS     r0,r0,r1
        0x00002d5e:    9041        A.      STR      r0,[sp,#0x104]
        0x00002d60:    9846        F.      LDR      r0,[sp,#0x118]
        0x00002d62:    993c        <.      LDR      r1,[sp,#0xf0]
        0x00002d64:    0089        ..      LSLS     r1,r1,#2
        0x00002d66:    5840        @X      LDR      r0,[r0,r1]
        0x00002d68:    9040        @.      STR      r0,[sp,#0x100]
        0x00002d6a:    9842        B.      LDR      r0,[sp,#0x108]
        0x00002d6c:    9007        ..      STR      r0,[sp,#0x1c]
        0x00002d6e:    9843        C.      LDR      r0,[sp,#0x10c]
        0x00002d70:    9008        ..      STR      r0,[sp,#0x20]
        0x00002d72:    0501        ..      LSLS     r1,r0,#20
        0x00002d74:    4855        UH      LDR      r0,[pc,#340] ; [0x2ecc] = 0xacb8
        0x00002d76:    4a56        VJ      LDR      r2,[pc,#344] ; [0x2ed0] = 0xacbc
        0x00002d78:    9209        ..      STR      r2,[sp,#0x24]
        0x00002d7a:    2900        .)      CMP      r1,#0
        0x00002d7c:    900a        ..      STR      r0,[sp,#0x28]
        0x00002d7e:    d401        ..      BMI      0x2d84 ; ProcessHardFault + 480
        0x00002d80:    9809        ..      LDR      r0,[sp,#0x24]
        0x00002d82:    900a        ..      STR      r0,[sp,#0x28]
        0x00002d84:    9a08        ..      LDR      r2,[sp,#0x20]
        0x00002d86:    9907        ..      LDR      r1,[sp,#0x1c]
        0x00002d88:    9b0a        ..      LDR      r3,[sp,#0x28]
        0x00002d8a:    9840        @.      LDR      r0,[sp,#0x100]
        0x00002d8c:    9c41        A.      LDR      r4,[sp,#0x104]
        0x00002d8e:    9401        ..      STR      r4,[sp,#4]
        0x00002d90:    9000        ..      STR      r0,[sp,#0]
        0x00002d92:    4850        PH      LDR      r0,[pc,#320] ; [0x2ed4] = 0xab29
        0x00002d94:    f001fc50    ..P.    BL       __0printf ; 0x4638
        0x00002d98:    e037        7.      B        0x2e0a ; ProcessHardFault + 614
        0x00002d9a:    9843        C.      LDR      r0,[sp,#0x10c]
        0x00002d9c:    0b00        ..      LSRS     r0,r0,#12
        0x00002d9e:    2809        .(      CMP      r0,#9
        0x00002da0:    d12e        ..      BNE      0x2e00 ; ProcessHardFault + 604
        0x00002da2:    e7ff        ..      B        0x2da4 ; ProcessHardFault + 512
        0x00002da4:    a843        C.      ADD      r0,sp,#0x10c
        0x00002da6:    7800        .x      LDRB     r0,[r0,#0]
        0x00002da8:    903a        :.      STR      r0,[sp,#0xe8]
        0x00002daa:    9843        C.      LDR      r0,[sp,#0x10c]
        0x00002dac:    0540        @.      LSLS     r0,r0,#21
        0x00002dae:    0f40        @.      LSRS     r0,r0,#29
        0x00002db0:    903c        <.      STR      r0,[sp,#0xf0]
        0x00002db2:    993c        <.      LDR      r1,[sp,#0xf0]
        0x00002db4:    9a3a        :.      LDR      r2,[sp,#0xe8]
        0x00002db6:    4844        DH      LDR      r0,[pc,#272] ; [0x2ec8] = 0xac0f
        0x00002db8:    f001fc3e    ..>.    BL       __0printf ; 0x4638
        0x00002dbc:    9846        F.      LDR      r0,[sp,#0x118]
        0x00002dbe:    6980        .i      LDR      r0,[r0,#0x18]
        0x00002dc0:    993a        :.      LDR      r1,[sp,#0xe8]
        0x00002dc2:    1840        @.      ADDS     r0,r0,r1
        0x00002dc4:    9041        A.      STR      r0,[sp,#0x104]
        0x00002dc6:    9846        F.      LDR      r0,[sp,#0x118]
        0x00002dc8:    993c        <.      LDR      r1,[sp,#0xf0]
        0x00002dca:    0089        ..      LSLS     r1,r1,#2
        0x00002dcc:    5840        @X      LDR      r0,[r0,r1]
        0x00002dce:    9040        @.      STR      r0,[sp,#0x100]
        0x00002dd0:    9842        B.      LDR      r0,[sp,#0x108]
        0x00002dd2:    9003        ..      STR      r0,[sp,#0xc]
        0x00002dd4:    9843        C.      LDR      r0,[sp,#0x10c]
        0x00002dd6:    9004        ..      STR      r0,[sp,#0x10]
        0x00002dd8:    0501        ..      LSLS     r1,r0,#20
        0x00002dda:    483c        <H      LDR      r0,[pc,#240] ; [0x2ecc] = 0xacb8
        0x00002ddc:    4a3c        <J      LDR      r2,[pc,#240] ; [0x2ed0] = 0xacbc
        0x00002dde:    9205        ..      STR      r2,[sp,#0x14]
        0x00002de0:    2900        .)      CMP      r1,#0
        0x00002de2:    9006        ..      STR      r0,[sp,#0x18]
        0x00002de4:    d401        ..      BMI      0x2dea ; ProcessHardFault + 582
        0x00002de6:    9805        ..      LDR      r0,[sp,#0x14]
        0x00002de8:    9006        ..      STR      r0,[sp,#0x18]
        0x00002dea:    9a04        ..      LDR      r2,[sp,#0x10]
        0x00002dec:    9903        ..      LDR      r1,[sp,#0xc]
        0x00002dee:    9b06        ..      LDR      r3,[sp,#0x18]
        0x00002df0:    9840        @.      LDR      r0,[sp,#0x100]
        0x00002df2:    9c41        A.      LDR      r4,[sp,#0x104]
        0x00002df4:    9401        ..      STR      r4,[sp,#4]
        0x00002df6:    9000        ..      STR      r0,[sp,#0]
        0x00002df8:    4836        6H      LDR      r0,[pc,#216] ; [0x2ed4] = 0xab29
        0x00002dfa:    f001fc1d    ....    BL       __0printf ; 0x4638
        0x00002dfe:    e003        ..      B        0x2e08 ; ProcessHardFault + 612
        0x00002e00:    4830        0H      LDR      r0,[pc,#192] ; [0x2ec4] = 0xab96
        0x00002e02:    f001fc19    ....    BL       __0printf ; 0x4638
        0x00002e06:    e7ff        ..      B        0x2e08 ; ProcessHardFault + 612
        0x00002e08:    e7ff        ..      B        0x2e0a ; ProcessHardFault + 614
        0x00002e0a:    e7ff        ..      B        0x2e0c ; ProcessHardFault + 616
        0x00002e0c:    e7ff        ..      B        0x2e0e ; ProcessHardFault + 618
        0x00002e0e:    e7ff        ..      B        0x2e10 ; ProcessHardFault + 620
        0x00002e10:    e7ff        ..      B        0x2e12 ; ProcessHardFault + 622
        0x00002e12:    4835        5H      LDR      r0,[pc,#212] ; [0x2ee8] = 0x4002f130
        0x00002e14:    6800        .h      LDR      r0,[r0,#0]
        0x00002e16:    9044        D.      STR      r0,[sp,#0x110]
        0x00002e18:    9844        D.      LDR      r0,[sp,#0x110]
        0x00002e1a:    b3e8        ..      CBZ      r0,0x2e98 ; ProcessHardFault + 756
        0x00002e1c:    e7ff        ..      B        0x2e1e ; ProcessHardFault + 634
        0x00002e1e:    4933        3I      LDR      r1,[pc,#204] ; [0x2eec] = 0x5068
        0x00002e20:    a82e        ..      ADD      r0,sp,#0xb8
        0x00002e22:    c93c        <.      LDM      r1!,{r2-r5}
        0x00002e24:    c03c        <.      STM      r0!,{r2-r5}
        0x00002e26:    c93c        <.      LDM      r1!,{r2-r5}
        0x00002e28:    c03c        <.      STM      r0!,{r2-r5}
        0x00002e2a:    c93c        <.      LDM      r1!,{r2-r5}
        0x00002e2c:    c03c        <.      STM      r0!,{r2-r5}
        0x00002e2e:    4930        0I      LDR      r1,[pc,#192] ; [0x2ef0] = 0x5014
        0x00002e30:    a819        ..      ADD      r0,sp,#0x64
        0x00002e32:    2254        T"      MOVS     r2,#0x54
        0x00002e34:    f7fdfa4b    ..K.    BL       __aeabi_memcpy ; 0x2ce
        0x00002e38:    492e        .I      LDR      r1,[pc,#184] ; [0x2ef4] = 0x4ffc
        0x00002e3a:    a813        ..      ADD      r0,sp,#0x4c
        0x00002e3c:    2215        ."      MOVS     r2,#0x15
        0x00002e3e:    f7fdfa46    ..F.    BL       __aeabi_memcpy ; 0x2ce
        0x00002e42:    2000        .       MOVS     r0,#0
        0x00002e44:    9045        E.      STR      r0,[sp,#0x114]
        0x00002e46:    e7ff        ..      B        0x2e48 ; ProcessHardFault + 676
        0x00002e48:    9845        E.      LDR      r0,[sp,#0x114]
        0x00002e4a:    2853        S(      CMP      r0,#0x53
        0x00002e4c:    d823        #.      BHI      0x2e96 ; ProcessHardFault + 754
        0x00002e4e:    e7ff        ..      B        0x2e50 ; ProcessHardFault + 684
        0x00002e50:    9844        D.      LDR      r0,[sp,#0x110]
        0x00002e52:    9945        E.      LDR      r1,[sp,#0x114]
        0x00002e54:    40c8        .@      LSRS     r0,r0,r1
        0x00002e56:    07c0        ..      LSLS     r0,r0,#31
        0x00002e58:    b1c0        ..      CBZ      r0,0x2e8c ; ProcessHardFault + 744
        0x00002e5a:    e7ff        ..      B        0x2e5c ; ProcessHardFault + 696
        0x00002e5c:    9a45        E.      LDR      r2,[sp,#0x114]
        0x00002e5e:    0091        ..      LSLS     r1,r2,#2
        0x00002e60:    a819        ..      ADD      r0,sp,#0x64
        0x00002e62:    5841        AX      LDR      r1,[r0,r1]
        0x00002e64:    a813        ..      ADD      r0,sp,#0x4c
        0x00002e66:    9002        ..      STR      r0,[sp,#8]
        0x00002e68:    5c80        .\      LDRB     r0,[r0,r2]
        0x00002e6a:    4a23        #J      LDR      r2,[pc,#140] ; [0x2ef8] = 0x4002f004
        0x00002e6c:    5882        .X      LDR      r2,[r0,r2]
        0x00002e6e:    4823        #H      LDR      r0,[pc,#140] ; [0x2efc] = 0xac57
        0x00002e70:    f001fbe2    ....    BL       __0printf ; 0x4638
        0x00002e74:    9802        ..      LDR      r0,[sp,#8]
        0x00002e76:    9945        E.      LDR      r1,[sp,#0x114]
        0x00002e78:    5c40        @\      LDRB     r0,[r0,r1]
        0x00002e7a:    4921        !I      LDR      r1,[pc,#132] ; [0x2f00] = 0x4002f000
        0x00002e7c:    5840        @X      LDR      r0,[r0,r1]
        0x00002e7e:    0081        ..      LSLS     r1,r0,#2
        0x00002e80:    a82e        ..      ADD      r0,sp,#0xb8
        0x00002e82:    5841        AX      LDR      r1,[r0,r1]
        0x00002e84:    481f        .H      LDR      r0,[pc,#124] ; [0x2f04] = 0xabae
        0x00002e86:    f001fbd7    ....    BL       __0printf ; 0x4638
        0x00002e8a:    e004        ..      B        0x2e96 ; ProcessHardFault + 754
        0x00002e8c:    e7ff        ..      B        0x2e8e ; ProcessHardFault + 746
        0x00002e8e:    9845        E.      LDR      r0,[sp,#0x114]
        0x00002e90:    1c40        @.      ADDS     r0,r0,#1
        0x00002e92:    9045        E.      STR      r0,[sp,#0x114]
        0x00002e94:    e7d8        ..      B        0x2e48 ; ProcessHardFault + 676
        0x00002e96:    e7ff        ..      B        0x2e98 ; ProcessHardFault + 756
        0x00002e98:    e7ff        ..      B        0x2e9a ; ProcessHardFault + 758
        0x00002e9a:    9846        F.      LDR      r0,[sp,#0x118]
        0x00002e9c:    6800        .h      LDR      r0,[r0,#0]
        0x00002e9e:    2101        .!      MOVS     r1,#1
        0x00002ea0:    4308        .C      ORRS     r0,r0,r1
        0x00002ea2:    b108        ..      CBZ      r0,0x2ea8 ; ProcessHardFault + 772
        0x00002ea4:    e7ff        ..      B        0x2ea6 ; ProcessHardFault + 770
        0x00002ea6:    e7f8        ..      B        0x2e9a ; ProcessHardFault + 758
        0x00002ea8:    9849        I.      LDR      r0,[sp,#0x124]
        0x00002eaa:    b04a        J.      ADD      sp,sp,#0x128
        0x00002eac:    bdb0        ..      POP      {r4,r5,r7,pc}
        0x00002eae:    46c0        .F      MOV      r8,r8
    $d.4
    __arm_cp.2_0
        0x00002eb0:    0000ac43    C...    DCD    44099
    __arm_cp.2_1
        0x00002eb4:    0000ab14    ....    DCD    43796
    __arm_cp.2_2
        0x00002eb8:    0000abbc    ....    DCD    43964
    __arm_cp.2_3
        0x00002ebc:    0000ab6d    m...    DCD    43885
    __arm_cp.2_4
        0x00002ec0:    0000beab    ....    DCD    48811
    __arm_cp.2_5
        0x00002ec4:    0000ab96    ....    DCD    43926
    __arm_cp.2_6
        0x00002ec8:    0000ac0f    ....    DCD    44047
    __arm_cp.2_7
        0x00002ecc:    0000acb8    ....    DCD    44216
    __arm_cp.2_8
        0x00002ed0:    0000acbc    ....    DCD    44220
    __arm_cp.2_9
        0x00002ed4:    0000ab29    )...    DCD    43817
    __arm_cp.2_10
        0x00002ed8:    0000abd3    ....    DCD    43987
    __arm_cp.2_11
        0x00002edc:    0000abf2    ....    DCD    44018
    __arm_cp.2_12
        0x00002ee0:    0000ac28    (...    DCD    44072
    __arm_cp.2_13
        0x00002ee4:    0000ab49    I...    DCD    43849
    __arm_cp.2_14
        0x00002ee8:    4002f130    0..@    DCD    1073934640
    __arm_cp.2_15
        0x00002eec:    00005068    hP..    DCD    20584
    __arm_cp.2_16
        0x00002ef0:    00005014    .P..    DCD    20500
    __arm_cp.2_17
        0x00002ef4:    00004ffc    .O..    DCD    20476
    __arm_cp.2_18
        0x00002ef8:    4002f004    ...@    DCD    1073934340
    __arm_cp.2_19
        0x00002efc:    0000ac57    W...    DCD    44119
    __arm_cp.2_20
        0x00002f00:    4002f000    ...@    DCD    1073934336
    __arm_cp.2_21
        0x00002f04:    0000abae    ....    DCD    43950
    $t.6
    RNG_ECDSA
        0x00002f08:    b084        ..      SUB      sp,sp,#0x10
        0x00002f0a:    9002        ..      STR      r0,[sp,#8]
        0x00002f0c:    9802        ..      LDR      r0,[sp,#8]
        0x00002f0e:    0080        ..      LSLS     r0,r0,#2
        0x00002f10:    21c1        .!      MOVS     r1,#0xc1
        0x00002f12:    4308        .C      ORRS     r0,r0,r1
        0x00002f14:    497a        zI      LDR      r1,[pc,#488] ; [0x3100] = 0x40032008
        0x00002f16:    6008        .`      STR      r0,[r1,#0]
        0x00002f18:    2001        .       MOVS     r0,#1
        0x00002f1a:    0400        ..      LSLS     r0,r0,#16
        0x00002f1c:    9001        ..      STR      r0,[sp,#4]
        0x00002f1e:    2000        .       MOVS     r0,#0
        0x00002f20:    9000        ..      STR      r0,[sp,#0]
        0x00002f22:    e7ff        ..      B        0x2f24 ; RNG_ECDSA + 28
        0x00002f24:    4876        vH      LDR      r0,[pc,#472] ; [0x3100] = 0x40032008
        0x00002f26:    6800        .h      LDR      r0,[r0,#0]
        0x00002f28:    05c0        ..      LSLS     r0,r0,#23
        0x00002f2a:    2800        .(      CMP      r0,#0
        0x00002f2c:    d50c        ..      BPL      0x2f48 ; RNG_ECDSA + 64
        0x00002f2e:    e7ff        ..      B        0x2f30 ; RNG_ECDSA + 40
        0x00002f30:    9800        ..      LDR      r0,[sp,#0]
        0x00002f32:    1c41        A.      ADDS     r1,r0,#1
        0x00002f34:    9100        ..      STR      r1,[sp,#0]
        0x00002f36:    9901        ..      LDR      r1,[sp,#4]
        0x00002f38:    4288        .B      CMP      r0,r1
        0x00002f3a:    dd04        ..      BLE      0x2f46 ; RNG_ECDSA + 62
        0x00002f3c:    e7ff        ..      B        0x2f3e ; RNG_ECDSA + 54
        0x00002f3e:    2000        .       MOVS     r0,#0
        0x00002f40:    43c0        .C      MVNS     r0,r0
        0x00002f42:    9003        ..      STR      r0,[sp,#0xc]
        0x00002f44:    e010        ..      B        0x2f68 ; RNG_ECDSA + 96
        0x00002f46:    e7ed        ..      B        0x2f24 ; RNG_ECDSA + 28
        0x00002f48:    4809        .H      LDR      r0,[pc,#36] ; [0x2f70] = 0x40032f04
        0x00002f4a:    6800        .h      LDR      r0,[r0,#0]
        0x00002f4c:    03c0        ..      LSLS     r0,r0,#15
        0x00002f4e:    2800        .(      CMP      r0,#0
        0x00002f50:    d504        ..      BPL      0x2f5c ; RNG_ECDSA + 84
        0x00002f52:    e7ff        ..      B        0x2f54 ; RNG_ECDSA + 76
        0x00002f54:    2000        .       MOVS     r0,#0
        0x00002f56:    43c0        .C      MVNS     r0,r0
        0x00002f58:    9003        ..      STR      r0,[sp,#0xc]
        0x00002f5a:    e005        ..      B        0x2f68 ; RNG_ECDSA + 96
        0x00002f5c:    4804        .H      LDR      r0,[pc,#16] ; [0x2f70] = 0x40032f04
        0x00002f5e:    6800        .h      LDR      r0,[r0,#0]
        0x00002f60:    211f        .!      MOVS     r1,#0x1f
        0x00002f62:    4008        .@      ANDS     r0,r0,r1
        0x00002f64:    9003        ..      STR      r0,[sp,#0xc]
        0x00002f66:    e7ff        ..      B        0x2f68 ; RNG_ECDSA + 96
        0x00002f68:    9803        ..      LDR      r0,[sp,#0xc]
        0x00002f6a:    b004        ..      ADD      sp,sp,#0x10
        0x00002f6c:    4770        pG      BX       lr
        0x00002f6e:    46c0        .F      MOV      r8,r8
    $d.7
    __arm_cp.3_1
        0x00002f70:    40032f04    ./.@    DCD    1073950468
    $t.4
    RNG_ECDSA_Init
        0x00002f74:    b085        ..      SUB      sp,sp,#0x14
        0x00002f76:    9003        ..      STR      r0,[sp,#0xc]
        0x00002f78:    9102        ..      STR      r1,[sp,#8]
        0x00002f7a:    2201        ."      MOVS     r2,#1
        0x00002f7c:    0610        ..      LSLS     r0,r2,#24
        0x00002f7e:    9000        ..      STR      r0,[sp,#0]
        0x00002f80:    49f9        .I      LDR      r1,[pc,#996] ; [0x3368] = 0x40000204
        0x00002f82:    6808        .h      LDR      r0,[r1,#0]
        0x00002f84:    f2410300    A...    MOVW     r3,#0x1000
        0x00002f88:    4318        .C      ORRS     r0,r0,r3
        0x00002f8a:    6008        .`      STR      r0,[r1,#0]
        0x00002f8c:    4957        WI      LDR      r1,[pc,#348] ; [0x30ec] = 0x4000020c
        0x00002f8e:    6808        .h      LDR      r0,[r1,#0]
        0x00002f90:    0652        R.      LSLS     r2,r2,#25
        0x00002f92:    4310        .C      ORRS     r0,r0,r2
        0x00002f94:    6008        .`      STR      r0,[r1,#0]
        0x00002f96:    4956        VI      LDR      r1,[pc,#344] ; [0x30f0] = 0x40000208
        0x00002f98:    6808        .h      LDR      r0,[r1,#0]
        0x00002f9a:    2202        ."      MOVS     r2,#2
        0x00002f9c:    4310        .C      ORRS     r0,r0,r2
        0x00002f9e:    6008        .`      STR      r0,[r1,#0]
        0x00002fa0:    4954        TI      LDR      r1,[pc,#336] ; [0x30f4] = 0x40041100
        0x00002fa2:    6808        .h      LDR      r0,[r1,#0]
        0x00002fa4:    2241        A"      MOVS     r2,#0x41
        0x00002fa6:    4310        .C      ORRS     r0,r0,r2
        0x00002fa8:    6008        .`      STR      r0,[r1,#0]
        0x00002faa:    4953        SI      LDR      r1,[pc,#332] ; [0x30f8] = 0x400b900c
        0x00002fac:    6808        .h      LDR      r0,[r1,#0]
        0x00002fae:    2280        ."      MOVS     r2,#0x80
        0x00002fb0:    4310        .C      ORRS     r0,r0,r2
        0x00002fb2:    6008        .`      STR      r0,[r1,#0]
        0x00002fb4:    2000        .       MOVS     r0,#0
        0x00002fb6:    9001        ..      STR      r0,[sp,#4]
        0x00002fb8:    e7ff        ..      B        0x2fba ; RNG_ECDSA_Init + 70
        0x00002fba:    4850        PH      LDR      r0,[pc,#320] ; [0x30fc] = 0x400b9000
        0x00002fbc:    6800        .h      LDR      r0,[r0,#0]
        0x00002fbe:    0600        ..      LSLS     r0,r0,#24
        0x00002fc0:    2800        .(      CMP      r0,#0
        0x00002fc2:    d40c        ..      BMI      0x2fde ; RNG_ECDSA_Init + 106
        0x00002fc4:    e7ff        ..      B        0x2fc6 ; RNG_ECDSA_Init + 82
        0x00002fc6:    9801        ..      LDR      r0,[sp,#4]
        0x00002fc8:    1c41        A.      ADDS     r1,r0,#1
        0x00002fca:    9101        ..      STR      r1,[sp,#4]
        0x00002fcc:    9900        ..      LDR      r1,[sp,#0]
        0x00002fce:    4288        .B      CMP      r0,r1
        0x00002fd0:    dd04        ..      BLE      0x2fdc ; RNG_ECDSA_Init + 104
        0x00002fd2:    e7ff        ..      B        0x2fd4 ; RNG_ECDSA_Init + 96
        0x00002fd4:    2000        .       MOVS     r0,#0
        0x00002fd6:    43c0        .C      MVNS     r0,r0
        0x00002fd8:    9004        ..      STR      r0,[sp,#0x10]
        0x00002fda:    e083        ..      B        0x30e4 ; RNG_ECDSA_Init + 368
        0x00002fdc:    e7ed        ..      B        0x2fba ; RNG_ECDSA_Init + 70
        0x00002fde:    4a47        GJ      LDR      r2,[pc,#284] ; [0x30fc] = 0x400b9000
        0x00002fe0:    2000        .       MOVS     r0,#0
        0x00002fe2:    6010        .`      STR      r0,[r2,#0]
        0x00002fe4:    4946        FI      LDR      r1,[pc,#280] ; [0x3100] = 0x40032008
        0x00002fe6:    6008        .`      STR      r0,[r1,#0]
        0x00002fe8:    6811        .h      LDR      r1,[r2,#0]
        0x00002fea:    f2401300    @...    MOVW     r3,#0x100
        0x00002fee:    4319        .C      ORRS     r1,r1,r3
        0x00002ff0:    6011        .`      STR      r1,[r2,#0]
        0x00002ff2:    9001        ..      STR      r0,[sp,#4]
        0x00002ff4:    e7ff        ..      B        0x2ff6 ; RNG_ECDSA_Init + 130
        0x00002ff6:    4841        AH      LDR      r0,[pc,#260] ; [0x30fc] = 0x400b9000
        0x00002ff8:    6800        .h      LDR      r0,[r0,#0]
        0x00002ffa:    0580        ..      LSLS     r0,r0,#22
        0x00002ffc:    2800        .(      CMP      r0,#0
        0x00002ffe:    d40c        ..      BMI      0x301a ; RNG_ECDSA_Init + 166
        0x00003000:    e7ff        ..      B        0x3002 ; RNG_ECDSA_Init + 142
        0x00003002:    9801        ..      LDR      r0,[sp,#4]
        0x00003004:    1c41        A.      ADDS     r1,r0,#1
        0x00003006:    9101        ..      STR      r1,[sp,#4]
        0x00003008:    9900        ..      LDR      r1,[sp,#0]
        0x0000300a:    4288        .B      CMP      r0,r1
        0x0000300c:    dd04        ..      BLE      0x3018 ; RNG_ECDSA_Init + 164
        0x0000300e:    e7ff        ..      B        0x3010 ; RNG_ECDSA_Init + 156
        0x00003010:    2000        .       MOVS     r0,#0
        0x00003012:    43c0        .C      MVNS     r0,r0
        0x00003014:    9004        ..      STR      r0,[sp,#0x10]
        0x00003016:    e065        e.      B        0x30e4 ; RNG_ECDSA_Init + 368
        0x00003018:    e7ed        ..      B        0x2ff6 ; RNG_ECDSA_Init + 130
        0x0000301a:    2000        .       MOVS     r0,#0
        0x0000301c:    9001        ..      STR      r0,[sp,#4]
        0x0000301e:    e7ff        ..      B        0x3020 ; RNG_ECDSA_Init + 172
        0x00003020:    4837        7H      LDR      r0,[pc,#220] ; [0x3100] = 0x40032008
        0x00003022:    6800        .h      LDR      r0,[r0,#0]
        0x00003024:    05c0        ..      LSLS     r0,r0,#23
        0x00003026:    2800        .(      CMP      r0,#0
        0x00003028:    d50c        ..      BPL      0x3044 ; RNG_ECDSA_Init + 208
        0x0000302a:    e7ff        ..      B        0x302c ; RNG_ECDSA_Init + 184
        0x0000302c:    9801        ..      LDR      r0,[sp,#4]
        0x0000302e:    1c41        A.      ADDS     r1,r0,#1
        0x00003030:    9101        ..      STR      r1,[sp,#4]
        0x00003032:    9900        ..      LDR      r1,[sp,#0]
        0x00003034:    4288        .B      CMP      r0,r1
        0x00003036:    dd04        ..      BLE      0x3042 ; RNG_ECDSA_Init + 206
        0x00003038:    e7ff        ..      B        0x303a ; RNG_ECDSA_Init + 198
        0x0000303a:    2000        .       MOVS     r0,#0
        0x0000303c:    43c0        .C      MVNS     r0,r0
        0x0000303e:    9004        ..      STR      r0,[sp,#0x10]
        0x00003040:    e050        P.      B        0x30e4 ; RNG_ECDSA_Init + 368
        0x00003042:    e7ed        ..      B        0x3020 ; RNG_ECDSA_Init + 172
        0x00003044:    492e        .I      LDR      r1,[pc,#184] ; [0x3100] = 0x40032008
        0x00003046:    2040        @       MOVS     r0,#0x40
        0x00003048:    6008        .`      STR      r0,[r1,#0]
        0x0000304a:    2000        .       MOVS     r0,#0
        0x0000304c:    9001        ..      STR      r0,[sp,#4]
        0x0000304e:    e7ff        ..      B        0x3050 ; RNG_ECDSA_Init + 220
        0x00003050:    482b        +H      LDR      r0,[pc,#172] ; [0x3100] = 0x40032008
        0x00003052:    6800        .h      LDR      r0,[r0,#0]
        0x00003054:    0600        ..      LSLS     r0,r0,#24
        0x00003056:    2800        .(      CMP      r0,#0
        0x00003058:    d40c        ..      BMI      0x3074 ; RNG_ECDSA_Init + 256
        0x0000305a:    e7ff        ..      B        0x305c ; RNG_ECDSA_Init + 232
        0x0000305c:    9801        ..      LDR      r0,[sp,#4]
        0x0000305e:    1c41        A.      ADDS     r1,r0,#1
        0x00003060:    9101        ..      STR      r1,[sp,#4]
        0x00003062:    9900        ..      LDR      r1,[sp,#0]
        0x00003064:    4288        .B      CMP      r0,r1
        0x00003066:    dd04        ..      BLE      0x3072 ; RNG_ECDSA_Init + 254
        0x00003068:    e7ff        ..      B        0x306a ; RNG_ECDSA_Init + 246
        0x0000306a:    2000        .       MOVS     r0,#0
        0x0000306c:    43c0        .C      MVNS     r0,r0
        0x0000306e:    9004        ..      STR      r0,[sp,#0x10]
        0x00003070:    e038        8.      B        0x30e4 ; RNG_ECDSA_Init + 368
        0x00003072:    e7ed        ..      B        0x3050 ; RNG_ECDSA_Init + 220
        0x00003074:    2000        .       MOVS     r0,#0
        0x00003076:    9001        ..      STR      r0,[sp,#4]
        0x00003078:    e7ff        ..      B        0x307a ; RNG_ECDSA_Init + 262
        0x0000307a:    9801        ..      LDR      r0,[sp,#4]
        0x0000307c:    2811        .(      CMP      r0,#0x11
        0x0000307e:    dc0b        ..      BGT      0x3098 ; RNG_ECDSA_Init + 292
        0x00003080:    e7ff        ..      B        0x3082 ; RNG_ECDSA_Init + 270
        0x00003082:    9802        ..      LDR      r0,[sp,#8]
        0x00003084:    9901        ..      LDR      r1,[sp,#4]
        0x00003086:    0089        ..      LSLS     r1,r1,#2
        0x00003088:    5840        @X      LDR      r0,[r0,r1]
        0x0000308a:    4a1f        .J      LDR      r2,[pc,#124] ; [0x3108] = 0x400329b8
        0x0000308c:    5088        .P      STR      r0,[r1,r2]
        0x0000308e:    e7ff        ..      B        0x3090 ; RNG_ECDSA_Init + 284
        0x00003090:    9801        ..      LDR      r0,[sp,#4]
        0x00003092:    1c40        @.      ADDS     r0,r0,#1
        0x00003094:    9001        ..      STR      r0,[sp,#4]
        0x00003096:    e7f0        ..      B        0x307a ; RNG_ECDSA_Init + 262
        0x00003098:    491a        .I      LDR      r1,[pc,#104] ; [0x3104] = 0x40032f00
        0x0000309a:    2000        .       MOVS     r0,#0
        0x0000309c:    6008        .`      STR      r0,[r1,#0]
        0x0000309e:    9903        ..      LDR      r1,[sp,#0xc]
        0x000030a0:    0089        ..      LSLS     r1,r1,#2
        0x000030a2:    4a17        .J      LDR      r2,[pc,#92] ; [0x3100] = 0x40032008
        0x000030a4:    6813        .h      LDR      r3,[r2,#0]
        0x000030a6:    4319        .C      ORRS     r1,r1,r3
        0x000030a8:    2303        .#      MOVS     r3,#3
        0x000030aa:    4319        .C      ORRS     r1,r1,r3
        0x000030ac:    6011        .`      STR      r1,[r2,#0]
        0x000030ae:    9001        ..      STR      r0,[sp,#4]
        0x000030b0:    e7ff        ..      B        0x30b2 ; RNG_ECDSA_Init + 318
        0x000030b2:    4813        .H      LDR      r0,[pc,#76] ; [0x3100] = 0x40032008
        0x000030b4:    6800        .h      LDR      r0,[r0,#0]
        0x000030b6:    05c0        ..      LSLS     r0,r0,#23
        0x000030b8:    2800        .(      CMP      r0,#0
        0x000030ba:    d50c        ..      BPL      0x30d6 ; RNG_ECDSA_Init + 354
        0x000030bc:    e7ff        ..      B        0x30be ; RNG_ECDSA_Init + 330
        0x000030be:    9801        ..      LDR      r0,[sp,#4]
        0x000030c0:    1c41        A.      ADDS     r1,r0,#1
        0x000030c2:    9101        ..      STR      r1,[sp,#4]
        0x000030c4:    9900        ..      LDR      r1,[sp,#0]
        0x000030c6:    4288        .B      CMP      r0,r1
        0x000030c8:    dd04        ..      BLE      0x30d4 ; RNG_ECDSA_Init + 352
        0x000030ca:    e7ff        ..      B        0x30cc ; RNG_ECDSA_Init + 344
        0x000030cc:    2000        .       MOVS     r0,#0
        0x000030ce:    43c0        .C      MVNS     r0,r0
        0x000030d0:    9004        ..      STR      r0,[sp,#0x10]
        0x000030d2:    e007        ..      B        0x30e4 ; RNG_ECDSA_Init + 368
        0x000030d4:    e7ed        ..      B        0x30b2 ; RNG_ECDSA_Init + 318
        0x000030d6:    2043        C       MOVS     r0,#0x43
        0x000030d8:    0500        ..      LSLS     r0,r0,#20
        0x000030da:    490a        .I      LDR      r1,[pc,#40] ; [0x3104] = 0x40032f00
        0x000030dc:    6008        .`      STR      r0,[r1,#0]
        0x000030de:    2000        .       MOVS     r0,#0
        0x000030e0:    9004        ..      STR      r0,[sp,#0x10]
        0x000030e2:    e7ff        ..      B        0x30e4 ; RNG_ECDSA_Init + 368
        0x000030e4:    9804        ..      LDR      r0,[sp,#0x10]
        0x000030e6:    b005        ..      ADD      sp,sp,#0x14
        0x000030e8:    4770        pG      BX       lr
        0x000030ea:    46c0        .F      MOV      r8,r8
    $d.5
    __arm_cp.2_1
        0x000030ec:    4000020c    ...@    DCD    1073742348
    __arm_cp.2_2
        0x000030f0:    40000208    ...@    DCD    1073742344
    __arm_cp.2_3
        0x000030f4:    40041100    ...@    DCD    1074008320
    __arm_cp.2_4
        0x000030f8:    400b900c    ...@    DCD    1074499596
    __arm_cp.2_5
        0x000030fc:    400b9000    ...@    DCD    1074499584
    __arm_cp.2_6
        0x00003100:    40032008    . .@    DCD    1073946632
    __arm_cp.2_7
        0x00003104:    40032f00    ./.@    DCD    1073950464
    __arm_cp.2_8
        0x00003108:    400329b8    .).@    DCD    1073949112
    $t.18
    Reg2Hex
        0x0000310c:    b580        ..      PUSH     {r7,lr}
        0x0000310e:    b08a        ..      SUB      sp,sp,#0x28
        0x00003110:    9009        ..      STR      r0,[sp,#0x24]
        0x00003112:    9108        ..      STR      r1,[sp,#0x20]
        0x00003114:    9207        ..      STR      r2,[sp,#0x1c]
        0x00003116:    9907        ..      LDR      r1,[sp,#0x1c]
        0x00003118:    9a09        ..      LDR      r2,[sp,#0x24]
        0x0000311a:    2000        .       MOVS     r0,#0
        0x0000311c:    5488        .T      STRB     r0,[r1,r2]
        0x0000311e:    9909        ..      LDR      r1,[sp,#0x24]
        0x00003120:    1e49        I.      SUBS     r1,r1,#1
        0x00003122:    9106        ..      STR      r1,[sp,#0x18]
        0x00003124:    9005        ..      STR      r0,[sp,#0x14]
        0x00003126:    e7ff        ..      B        0x3128 ; Reg2Hex + 28
        0x00003128:    9806        ..      LDR      r0,[sp,#0x18]
        0x0000312a:    2800        .(      CMP      r0,#0
        0x0000312c:    d430        0.      BMI      0x3190 ; Reg2Hex + 132
        0x0000312e:    e7ff        ..      B        0x3130 ; Reg2Hex + 36
        0x00003130:    2000        .       MOVS     r0,#0
        0x00003132:    9004        ..      STR      r0,[sp,#0x10]
        0x00003134:    e7ff        ..      B        0x3136 ; Reg2Hex + 42
        0x00003136:    9904        ..      LDR      r1,[sp,#0x10]
        0x00003138:    2000        .       MOVS     r0,#0
        0x0000313a:    2907        .)      CMP      r1,#7
        0x0000313c:    9003        ..      STR      r0,[sp,#0xc]
        0x0000313e:    d80c        ..      BHI      0x315a ; Reg2Hex + 78
        0x00003140:    e7ff        ..      B        0x3142 ; Reg2Hex + 54
        0x00003142:    9906        ..      LDR      r1,[sp,#0x18]
        0x00003144:    2001        .       MOVS     r0,#1
        0x00003146:    2200        ."      MOVS     r2,#0
        0x00003148:    9201        ..      STR      r2,[sp,#4]
        0x0000314a:    2900        .)      CMP      r1,#0
        0x0000314c:    9002        ..      STR      r0,[sp,#8]
        0x0000314e:    da01        ..      BGE      0x3154 ; Reg2Hex + 72
        0x00003150:    9801        ..      LDR      r0,[sp,#4]
        0x00003152:    9002        ..      STR      r0,[sp,#8]
        0x00003154:    9802        ..      LDR      r0,[sp,#8]
        0x00003156:    9003        ..      STR      r0,[sp,#0xc]
        0x00003158:    e7ff        ..      B        0x315a ; Reg2Hex + 78
        0x0000315a:    9803        ..      LDR      r0,[sp,#0xc]
        0x0000315c:    07c0        ..      LSLS     r0,r0,#31
        0x0000315e:    b190        ..      CBZ      r0,0x3186 ; Reg2Hex + 122
        0x00003160:    e7ff        ..      B        0x3162 ; Reg2Hex + 86
        0x00003162:    9808        ..      LDR      r0,[sp,#0x20]
        0x00003164:    9905        ..      LDR      r1,[sp,#0x14]
        0x00003166:    0089        ..      LSLS     r1,r1,#2
        0x00003168:    5840        @X      LDR      r0,[r0,r1]
        0x0000316a:    9904        ..      LDR      r1,[sp,#0x10]
        0x0000316c:    f000fbbe    ....    BL       get_Nth_nibble_char ; 0x38ec
        0x00003170:    9907        ..      LDR      r1,[sp,#0x1c]
        0x00003172:    9a06        ..      LDR      r2,[sp,#0x18]
        0x00003174:    5488        .T      STRB     r0,[r1,r2]
        0x00003176:    9806        ..      LDR      r0,[sp,#0x18]
        0x00003178:    1e40        @.      SUBS     r0,r0,#1
        0x0000317a:    9006        ..      STR      r0,[sp,#0x18]
        0x0000317c:    e7ff        ..      B        0x317e ; Reg2Hex + 114
        0x0000317e:    9804        ..      LDR      r0,[sp,#0x10]
        0x00003180:    1c40        @.      ADDS     r0,r0,#1
        0x00003182:    9004        ..      STR      r0,[sp,#0x10]
        0x00003184:    e7d7        ..      B        0x3136 ; Reg2Hex + 42
        0x00003186:    e7ff        ..      B        0x3188 ; Reg2Hex + 124
        0x00003188:    9805        ..      LDR      r0,[sp,#0x14]
        0x0000318a:    1c40        @.      ADDS     r0,r0,#1
        0x0000318c:    9005        ..      STR      r0,[sp,#0x14]
        0x0000318e:    e7cb        ..      B        0x3128 ; Reg2Hex + 28
        0x00003190:    b00a        ..      ADD      sp,sp,#0x28
        0x00003192:    bd80        ..      POP      {r7,pc}
    SCU_IRQHandler
        0x00003194:    e7ff        ..      B        0x3196 ; SCU_IRQHandler + 2
        0x00003196:    e7fe        ..      B        0x3196 ; SCU_IRQHandler + 2
    SH_Return
        0x00003198:    b083        ..      SUB      sp,sp,#0xc
        0x0000319a:    9002        ..      STR      r0,[sp,#8]
        0x0000319c:    9101        ..      STR      r1,[sp,#4]
        0x0000319e:    9200        ..      STR      r2,[sp,#0]
        0x000031a0:    2000        .       MOVS     r0,#0
        0x000031a2:    b003        ..      ADD      sp,sp,#0xc
        0x000031a4:    4770        pG      BX       lr
        0x000031a6:    0000        ..      MOVS     r0,r0
    SYS_Init
        0x000031a8:    b580        ..      PUSH     {r7,lr}
        0x000031aa:    b082        ..      SUB      sp,sp,#8
        0x000031ac:    2004        .       MOVS     r0,#4
        0x000031ae:    f7fefa8b    ....    BL       CLK_EnableXtalRC ; 0x16c8
        0x000031b2:    2010        .       MOVS     r0,#0x10
        0x000031b4:    f7fefe48    ..H.    BL       CLK_WaitClockReady ; 0x1e48
        0x000031b8:    480f        .H      LDR      r0,[pc,#60] ; [0x31f8] = 0x5b8d800
        0x000031ba:    f7fefc5f    .._.    BL       CLK_SetCoreClock ; 0x1a7c
        0x000031be:    480f        .H      LDR      r0,[pc,#60] ; [0x31fc] = 0x6f003d10
        0x000031c0:    9001        ..      STR      r0,[sp,#4]
        0x000031c2:    f7fef979    ..y.    BL       CLK_EnableModuleClock ; 0x14b8
        0x000031c6:    200c        .       MOVS     r0,#0xc
        0x000031c8:    f7fef976    ..v.    BL       CLK_EnableModuleClock ; 0x14b8
        0x000031cc:    200d        .       MOVS     r0,#0xd
        0x000031ce:    f7fef973    ..s.    BL       CLK_EnableModuleClock ; 0x14b8
        0x000031d2:    9801        ..      LDR      r0,[sp,#4]
        0x000031d4:    2103        .!      MOVS     r1,#3
        0x000031d6:    0409        ..      LSLS     r1,r1,#16
        0x000031d8:    2200        ."      MOVS     r2,#0
        0x000031da:    f7fefdb9    ....    BL       CLK_SetModuleClock ; 0x1d50
        0x000031de:    f000f87d    ..}.    BL       SystemCoreClockUpdate ; 0x32dc
        0x000031e2:    4907        .I      LDR      r1,[pc,#28] ; [0x3200] = 0x40000030
        0x000031e4:    6808        .h      LDR      r0,[r1,#0]
        0x000031e6:    22ff        ."      MOVS     r2,#0xff
        0x000031e8:    0612        ..      LSLS     r2,r2,#24
        0x000031ea:    4390        .C      BICS     r0,r0,r2
        0x000031ec:    2277        w"      MOVS     r2,#0x77
        0x000031ee:    0612        ..      LSLS     r2,r2,#24
        0x000031f0:    1880        ..      ADDS     r0,r0,r2
        0x000031f2:    6008        .`      STR      r0,[r1,#0]
        0x000031f4:    b002        ..      ADD      sp,sp,#8
        0x000031f6:    bd80        ..      POP      {r7,pc}
    $d.5
    __arm_cp.2_0
        0x000031f8:    05b8d800    ....    DCD    96000000
    __arm_cp.2_1
        0x000031fc:    6f003d10    .=.o    DCD    1862286608
    __arm_cp.2_2
        0x00003200:    40000030    0..@    DCD    1073741872
    $t.13
    SYS_ResetModule
        0x00003204:    b510        ..      PUSH     {r4,lr}
        0x00003206:    b083        ..      SUB      sp,sp,#0xc
        0x00003208:    9002        ..      STR      r0,[sp,#8]
        0x0000320a:    2000        .       MOVS     r0,#0
        0x0000320c:    9001        ..      STR      r0,[sp,#4]
        0x0000320e:    9000        ..      STR      r0,[sp,#0]
        0x00003210:    9b02        ..      LDR      r3,[sp,#8]
        0x00003212:    4a0e        .J      LDR      r2,[pc,#56] ; [0x324c] = 0xffffff
        0x00003214:    4013        .@      ANDS     r3,r3,r2
        0x00003216:    2001        .       MOVS     r0,#1
        0x00003218:    4601        .F      MOV      r1,r0
        0x0000321a:    4099        .@      LSLS     r1,r1,r3
        0x0000321c:    9101        ..      STR      r1,[sp,#4]
        0x0000321e:    a902        ..      ADD      r1,sp,#8
        0x00003220:    78c9        .x      LDRB     r1,[r1,#3]
        0x00003222:    4b0b        .K      LDR      r3,[pc,#44] ; [0x3250] = 0x40000008
        0x00003224:    18c9        ..      ADDS     r1,r1,r3
        0x00003226:    9100        ..      STR      r1,[sp,#0]
        0x00003228:    9c01        ..      LDR      r4,[sp,#4]
        0x0000322a:    9b00        ..      LDR      r3,[sp,#0]
        0x0000322c:    6819        .h      LDR      r1,[r3,#0]
        0x0000322e:    4321        !C      ORRS     r1,r1,r4
        0x00003230:    6019        .`      STR      r1,[r3,#0]
        0x00003232:    9902        ..      LDR      r1,[sp,#8]
        0x00003234:    4011        .@      ANDS     r1,r1,r2
        0x00003236:    4088        .@      LSLS     r0,r0,r1
        0x00003238:    43c0        .C      MVNS     r0,r0
        0x0000323a:    9001        ..      STR      r0,[sp,#4]
        0x0000323c:    9a01        ..      LDR      r2,[sp,#4]
        0x0000323e:    9900        ..      LDR      r1,[sp,#0]
        0x00003240:    6808        .h      LDR      r0,[r1,#0]
        0x00003242:    4010        .@      ANDS     r0,r0,r2
        0x00003244:    6008        .`      STR      r0,[r1,#0]
        0x00003246:    b003        ..      ADD      sp,sp,#0xc
        0x00003248:    bd10        ..      POP      {r4,pc}
        0x0000324a:    46c0        .F      MOV      r8,r8
    $d.14
    __arm_cp.7_0
        0x0000324c:    00ffffff    ....    DCD    16777215
    __arm_cp.7_1
        0x00003250:    40000008    ...@    DCD    1073741832
    $t.14
    SYS_UnlockReg
        0x00003254:    b081        ..      SUB      sp,sp,#4
        0x00003256:    482c        ,H      LDR      r0,[pc,#176] ; [0x3308] = 0x20000008
        0x00003258:    6800        .h      LDR      r0,[r0,#0]
        0x0000325a:    9000        ..      STR      r0,[sp,#0]
        0x0000325c:    e7ff        ..      B        0x325e ; SYS_UnlockReg + 10
        0x0000325e:    4940        @I      LDR      r1,[pc,#256] ; [0x3360] = 0x40000100
        0x00003260:    2059        Y       MOVS     r0,#0x59
        0x00003262:    6008        .`      STR      r0,[r1,#0]
        0x00003264:    2016        .       MOVS     r0,#0x16
        0x00003266:    6008        .`      STR      r0,[r1,#0]
        0x00003268:    2088        .       MOVS     r0,#0x88
        0x0000326a:    6008        .`      STR      r0,[r1,#0]
        0x0000326c:    9800        ..      LDR      r0,[sp,#0]
        0x0000326e:    1e40        @.      SUBS     r0,r0,#1
        0x00003270:    9000        ..      STR      r0,[sp,#0]
        0x00003272:    b908        ..      CBNZ     r0,0x3278 ; SYS_UnlockReg + 36
        0x00003274:    e7ff        ..      B        0x3276 ; SYS_UnlockReg + 34
        0x00003276:    e005        ..      B        0x3284 ; SYS_UnlockReg + 48
        0x00003278:    e7ff        ..      B        0x327a ; SYS_UnlockReg + 38
        0x0000327a:    4839        9H      LDR      r0,[pc,#228] ; [0x3360] = 0x40000100
        0x0000327c:    6800        .h      LDR      r0,[r0,#0]
        0x0000327e:    2800        .(      CMP      r0,#0
        0x00003280:    d0ed        ..      BEQ      0x325e ; SYS_UnlockReg + 10
        0x00003282:    e7ff        ..      B        0x3284 ; SYS_UnlockReg + 48
        0x00003284:    b001        ..      ADD      sp,sp,#4
        0x00003286:    4770        pG      BX       lr
    SendChar
        0x00003288:    b580        ..      PUSH     {r7,lr}
        0x0000328a:    b082        ..      SUB      sp,sp,#8
        0x0000328c:    9001        ..      STR      r0,[sp,#4]
        0x0000328e:    9801        ..      LDR      r0,[sp,#4]
        0x00003290:    f000f802    ....    BL       SendChar_ToUART ; 0x3298
        0x00003294:    b002        ..      ADD      sp,sp,#8
        0x00003296:    bd80        ..      POP      {r7,pc}
    SendChar_ToUART
        0x00003298:    b081        ..      SUB      sp,sp,#4
        0x0000329a:    9000        ..      STR      r0,[sp,#0]
        0x0000329c:    4668        hF      MOV      r0,sp
        0x0000329e:    7800        .x      LDRB     r0,[r0,#0]
        0x000032a0:    280a        .(      CMP      r0,#0xa
        0x000032a2:    d10c        ..      BNE      0x32be ; SendChar_ToUART + 38
        0x000032a4:    e7ff        ..      B        0x32a6 ; SendChar_ToUART + 14
        0x000032a6:    e7ff        ..      B        0x32a8 ; SendChar_ToUART + 16
        0x000032a8:    480b        .H      LDR      r0,[pc,#44] ; [0x32d8] = 0x40070018
        0x000032aa:    6800        .h      LDR      r0,[r0,#0]
        0x000032ac:    0200        ..      LSLS     r0,r0,#8
        0x000032ae:    2800        .(      CMP      r0,#0
        0x000032b0:    d501        ..      BPL      0x32b6 ; SendChar_ToUART + 30
        0x000032b2:    e7ff        ..      B        0x32b4 ; SendChar_ToUART + 28
        0x000032b4:    e7f8        ..      B        0x32a8 ; SendChar_ToUART + 16
        0x000032b6:    49b9        .I      LDR      r1,[pc,#740] ; [0x359c] = 0x40070000
        0x000032b8:    200d        .       MOVS     r0,#0xd
        0x000032ba:    6008        .`      STR      r0,[r1,#0]
        0x000032bc:    e7ff        ..      B        0x32be ; SendChar_ToUART + 38
        0x000032be:    e7ff        ..      B        0x32c0 ; SendChar_ToUART + 40
        0x000032c0:    4805        .H      LDR      r0,[pc,#20] ; [0x32d8] = 0x40070018
        0x000032c2:    6800        .h      LDR      r0,[r0,#0]
        0x000032c4:    0200        ..      LSLS     r0,r0,#8
        0x000032c6:    2800        .(      CMP      r0,#0
        0x000032c8:    d501        ..      BPL      0x32ce ; SendChar_ToUART + 54
        0x000032ca:    e7ff        ..      B        0x32cc ; SendChar_ToUART + 52
        0x000032cc:    e7f8        ..      B        0x32c0 ; SendChar_ToUART + 40
        0x000032ce:    9800        ..      LDR      r0,[sp,#0]
        0x000032d0:    49b2        .I      LDR      r1,[pc,#712] ; [0x359c] = 0x40070000
        0x000032d2:    6008        .`      STR      r0,[r1,#0]
        0x000032d4:    b001        ..      ADD      sp,sp,#4
        0x000032d6:    4770        pG      BX       lr
    $d.7
    __arm_cp.4_0
        0x000032d8:    40070018    ...@    DCD    1074200600
    $t.1
    SystemCoreClockUpdate
        0x000032dc:    b580        ..      PUSH     {r7,lr}
        0x000032de:    f7fefb7b    ..{.    BL       CLK_GetPLLClockFreq ; 0x19d8
        0x000032e2:    4908        .I      LDR      r1,[pc,#32] ; [0x3304] = 0x20000004
        0x000032e4:    6008        .`      STR      r0,[r1,#0]
        0x000032e6:    f7fef9fb    ....    BL       CLK_GetCPUFreq ; 0x16e0
        0x000032ea:    4601        .F      MOV      r1,r0
        0x000032ec:    4806        .H      LDR      r0,[pc,#24] ; [0x3308] = 0x20000008
        0x000032ee:    6001        .`      STR      r1,[r0,#0]
        0x000032f0:    6800        .h      LDR      r0,[r0,#0]
        0x000032f2:    4906        .I      LDR      r1,[pc,#24] ; [0x330c] = 0x7a120
        0x000032f4:    1840        @.      ADDS     r0,r0,r1
        0x000032f6:    4906        .I      LDR      r1,[pc,#24] ; [0x3310] = 0xf4240
        0x000032f8:    fbb0f0f1    ....    UDIV     r0,r0,r1
        0x000032fc:    4905        .I      LDR      r1,[pc,#20] ; [0x3314] = 0x20000000
        0x000032fe:    6008        .`      STR      r0,[r1,#0]
        0x00003300:    bd80        ..      POP      {r7,pc}
        0x00003302:    46c0        .F      MOV      r8,r8
    $d.2
    __arm_cp.1_0
        0x00003304:    20000004    ...     DCD    536870916
    __arm_cp.1_1
        0x00003308:    20000008    ...     DCD    536870920
    __arm_cp.1_2
        0x0000330c:    0007a120     ...    DCD    500000
    __arm_cp.1_3
        0x00003310:    000f4240    @B..    DCD    1000000
    __arm_cp.1_4
        0x00003314:    20000000    ...     DCD    536870912
    $t.3
    SystemInit
        0x00003318:    b580        ..      PUSH     {r7,lr}
        0x0000331a:    f7fcff9a    ....    BL       __PC ; 0x252
        0x0000331e:    00c0        ..      LSLS     r0,r0,#3
        0x00003320:    2800        .(      CMP      r0,#0
        0x00003322:    d418        ..      BMI      0x3356 ; SystemInit + 62
        0x00003324:    e7ff        ..      B        0x3326 ; SystemInit + 14
        0x00003326:    e7ff        ..      B        0x3328 ; SystemInit + 16
        0x00003328:    490d        .I      LDR      r1,[pc,#52] ; [0x3360] = 0x40000100
        0x0000332a:    2059        Y       MOVS     r0,#0x59
        0x0000332c:    6008        .`      STR      r0,[r1,#0]
        0x0000332e:    2016        .       MOVS     r0,#0x16
        0x00003330:    6008        .`      STR      r0,[r1,#0]
        0x00003332:    2088        .       MOVS     r0,#0x88
        0x00003334:    6008        .`      STR      r0,[r1,#0]
        0x00003336:    e7ff        ..      B        0x3338 ; SystemInit + 32
        0x00003338:    4809        .H      LDR      r0,[pc,#36] ; [0x3360] = 0x40000100
        0x0000333a:    6800        .h      LDR      r0,[r0,#0]
        0x0000333c:    2800        .(      CMP      r0,#0
        0x0000333e:    d0f3        ..      BEQ      0x3328 ; SystemInit + 16
        0x00003340:    e7ff        ..      B        0x3342 ; SystemInit + 42
        0x00003342:    4908        .I      LDR      r1,[pc,#32] ; [0x3364] = 0x400001f4
        0x00003344:    f2410000    A...    MOVW     r0,#0x1000
        0x00003348:    6008        .`      STR      r0,[r1,#0]
        0x0000334a:    4907        .I      LDR      r1,[pc,#28] ; [0x3368] = 0x40000204
        0x0000334c:    6808        .h      LDR      r0,[r1,#0]
        0x0000334e:    4a07        .J      LDR      r2,[pc,#28] ; [0x336c] = 0xfff04000
        0x00003350:    4310        .C      ORRS     r0,r0,r2
        0x00003352:    6008        .`      STR      r0,[r1,#0]
        0x00003354:    e7ff        ..      B        0x3356 ; SystemInit + 62
        0x00003356:    4806        .H      LDR      r0,[pc,#24] ; [0x3370] = 0
        0x00003358:    4906        .I      LDR      r1,[pc,#24] ; [0x3374] = 0xe000ed08
        0x0000335a:    6008        .`      STR      r0,[r1,#0]
        0x0000335c:    bd80        ..      POP      {r7,pc}
        0x0000335e:    46c0        .F      MOV      r8,r8
    $d.4
    __arm_cp.2_0
        0x00003360:    40000100    ...@    DCD    1073742080
    __arm_cp.2_1
        0x00003364:    400001f4    ...@    DCD    1073742324
    __arm_cp.2_2
        0x00003368:    40000204    ...@    DCD    1073742340
    __arm_cp.2_3
        0x0000336c:    fff04000    .@..    DCD    4293935104
    __arm_cp.2_4
        0x00003370:    00000000    ....    DCD    0
    __arm_cp.2_5
        0x00003374:    e000ed08    ....    DCD    3758157064
    $t.6
    UART_Init
        0x00003378:    b580        ..      PUSH     {r7,lr}
        0x0000337a:    4804        .H      LDR      r0,[pc,#16] ; [0x338c] = 0x4000010
        0x0000337c:    f7ffff42    ..B.    BL       SYS_ResetModule ; 0x3204
        0x00003380:    20e1        .       MOVS     r0,#0xe1
        0x00003382:    0241        A.      LSLS     r1,r0,#9
        0x00003384:    4885        .H      LDR      r0,[pc,#532] ; [0x359c] = 0x40070000
        0x00003386:    f000f803    ....    BL       UART_Open ; 0x3390
        0x0000338a:    bd80        ..      POP      {r7,pc}
    $d.7
    __arm_cp.3_0
        0x0000338c:    04000010    ....    DCD    67108880
    $t.7
    UART_Open
        0x00003390:    b5b0        ..      PUSH     {r4,r5,r7,lr}
        0x00003392:    b094        ..      SUB      sp,sp,#0x50
        0x00003394:    9013        ..      STR      r0,[sp,#0x4c]
        0x00003396:    9112        ..      STR      r1,[sp,#0x48]
        0x00003398:    497f        .I      LDR      r1,[pc,#508] ; [0x3598] = 0xa79c
        0x0000339a:    a808        ..      ADD      r0,sp,#0x20
        0x0000339c:    c93c        <.      LDM      r1!,{r2-r5}
        0x0000339e:    c03c        <.      STM      r0!,{r2-r5}
        0x000033a0:    c93c        <.      LDM      r1!,{r2-r5}
        0x000033a2:    c03c        <.      STM      r0!,{r2-r5}
        0x000033a4:    2000        .       MOVS     r0,#0
        0x000033a6:    9007        ..      STR      r0,[sp,#0x1c]
        0x000033a8:    9813        ..      LDR      r0,[sp,#0x4c]
        0x000033aa:    9006        ..      STR      r0,[sp,#0x18]
        0x000033ac:    497b        {I      LDR      r1,[pc,#492] ; [0x359c] = 0x40070000
        0x000033ae:    4288        .B      CMP      r0,r1
        0x000033b0:    d037        7.      BEQ      0x3422 ; UART_Open + 146
        0x000033b2:    e7ff        ..      B        0x33b4 ; UART_Open + 36
        0x000033b4:    9806        ..      LDR      r0,[sp,#0x18]
        0x000033b6:    497a        zI      LDR      r1,[pc,#488] ; [0x35a0] = 0x40071000
        0x000033b8:    4288        .B      CMP      r0,r1
        0x000033ba:    d045        E.      BEQ      0x3448 ; UART_Open + 184
        0x000033bc:    e7ff        ..      B        0x33be ; UART_Open + 46
        0x000033be:    9806        ..      LDR      r0,[sp,#0x18]
        0x000033c0:    4978        xI      LDR      r1,[pc,#480] ; [0x35a4] = 0x40072000
        0x000033c2:    4288        .B      CMP      r0,r1
        0x000033c4:    d053        S.      BEQ      0x346e ; UART_Open + 222
        0x000033c6:    e7ff        ..      B        0x33c8 ; UART_Open + 56
        0x000033c8:    9806        ..      LDR      r0,[sp,#0x18]
        0x000033ca:    4977        wI      LDR      r1,[pc,#476] ; [0x35a8] = 0x40073000
        0x000033cc:    4288        .B      CMP      r0,r1
        0x000033ce:    d061        a.      BEQ      0x3494 ; UART_Open + 260
        0x000033d0:    e7ff        ..      B        0x33d2 ; UART_Open + 66
        0x000033d2:    9806        ..      LDR      r0,[sp,#0x18]
        0x000033d4:    4975        uI      LDR      r1,[pc,#468] ; [0x35ac] = 0x40074000
        0x000033d6:    4288        .B      CMP      r0,r1
        0x000033d8:    d06f        o.      BEQ      0x34ba ; UART_Open + 298
        0x000033da:    e7ff        ..      B        0x33dc ; UART_Open + 76
        0x000033dc:    9806        ..      LDR      r0,[sp,#0x18]
        0x000033de:    4974        tI      LDR      r1,[pc,#464] ; [0x35b0] = 0x40075000
        0x000033e0:    4288        .B      CMP      r0,r1
        0x000033e2:    d07d        }.      BEQ      0x34e0 ; UART_Open + 336
        0x000033e4:    e7ff        ..      B        0x33e6 ; UART_Open + 86
        0x000033e6:    9806        ..      LDR      r0,[sp,#0x18]
        0x000033e8:    4972        rI      LDR      r1,[pc,#456] ; [0x35b4] = 0x50070000
        0x000033ea:    4288        .B      CMP      r0,r1
        0x000033ec:    d019        ..      BEQ      0x3422 ; UART_Open + 146
        0x000033ee:    e7ff        ..      B        0x33f0 ; UART_Open + 96
        0x000033f0:    9806        ..      LDR      r0,[sp,#0x18]
        0x000033f2:    4971        qI      LDR      r1,[pc,#452] ; [0x35b8] = 0x50071000
        0x000033f4:    4288        .B      CMP      r0,r1
        0x000033f6:    d027        '.      BEQ      0x3448 ; UART_Open + 184
        0x000033f8:    e7ff        ..      B        0x33fa ; UART_Open + 106
        0x000033fa:    9806        ..      LDR      r0,[sp,#0x18]
        0x000033fc:    496f        oI      LDR      r1,[pc,#444] ; [0x35bc] = 0x50072000
        0x000033fe:    4288        .B      CMP      r0,r1
        0x00003400:    d035        5.      BEQ      0x346e ; UART_Open + 222
        0x00003402:    e7ff        ..      B        0x3404 ; UART_Open + 116
        0x00003404:    9806        ..      LDR      r0,[sp,#0x18]
        0x00003406:    496e        nI      LDR      r1,[pc,#440] ; [0x35c0] = 0x50073000
        0x00003408:    4288        .B      CMP      r0,r1
        0x0000340a:    d043        C.      BEQ      0x3494 ; UART_Open + 260
        0x0000340c:    e7ff        ..      B        0x340e ; UART_Open + 126
        0x0000340e:    9806        ..      LDR      r0,[sp,#0x18]
        0x00003410:    496c        lI      LDR      r1,[pc,#432] ; [0x35c4] = 0x50074000
        0x00003412:    4288        .B      CMP      r0,r1
        0x00003414:    d051        Q.      BEQ      0x34ba ; UART_Open + 298
        0x00003416:    e7ff        ..      B        0x3418 ; UART_Open + 136
        0x00003418:    9806        ..      LDR      r0,[sp,#0x18]
        0x0000341a:    496b        kI      LDR      r1,[pc,#428] ; [0x35c8] = 0x50075000
        0x0000341c:    4288        .B      CMP      r0,r1
        0x0000341e:    d05f        _.      BEQ      0x34e0 ; UART_Open + 336
        0x00003420:    e071        q.      B        0x3506 ; UART_Open + 374
        0x00003422:    486f        oH      LDR      r0,[pc,#444] ; [0x35e0] = 0x6f003d10
        0x00003424:    9005        ..      STR      r0,[sp,#0x14]
        0x00003426:    f7fefa37    ..7.    BL       CLK_GetModuleClockSource ; 0x1898
        0x0000342a:    4601        .F      MOV      r1,r0
        0x0000342c:    9805        ..      LDR      r0,[sp,#0x14]
        0x0000342e:    9111        ..      STR      r1,[sp,#0x44]
        0x00003430:    f7fefa08    ....    BL       CLK_GetModuleClockDivider ; 0x1844
        0x00003434:    9010        ..      STR      r0,[sp,#0x40]
        0x00003436:    9811        ..      LDR      r0,[sp,#0x44]
        0x00003438:    2804        .(      CMP      r0,#4
        0x0000343a:    d104        ..      BNE      0x3446 ; UART_Open + 182
        0x0000343c:    e7ff        ..      B        0x343e ; UART_Open + 174
        0x0000343e:    f7fefabd    ....    BL       CLK_GetPCLK0Freq ; 0x19bc
        0x00003442:    900c        ..      STR      r0,[sp,#0x30]
        0x00003444:    e7ff        ..      B        0x3446 ; UART_Open + 182
        0x00003446:    e05f        _.      B        0x3508 ; UART_Open + 376
        0x00003448:    4864        dH      LDR      r0,[pc,#400] ; [0x35dc] = 0x6f403d91
        0x0000344a:    9004        ..      STR      r0,[sp,#0x10]
        0x0000344c:    f7fefa24    ..$.    BL       CLK_GetModuleClockSource ; 0x1898
        0x00003450:    4601        .F      MOV      r1,r0
        0x00003452:    9804        ..      LDR      r0,[sp,#0x10]
        0x00003454:    9111        ..      STR      r1,[sp,#0x44]
        0x00003456:    f7fef9f5    ....    BL       CLK_GetModuleClockDivider ; 0x1844
        0x0000345a:    9010        ..      STR      r0,[sp,#0x40]
        0x0000345c:    9811        ..      LDR      r0,[sp,#0x44]
        0x0000345e:    2804        .(      CMP      r0,#4
        0x00003460:    d104        ..      BNE      0x346c ; UART_Open + 220
        0x00003462:    e7ff        ..      B        0x3464 ; UART_Open + 212
        0x00003464:    f7fefab0    ....    BL       CLK_GetPCLK1Freq ; 0x19c8
        0x00003468:    900c        ..      STR      r0,[sp,#0x30]
        0x0000346a:    e7ff        ..      B        0x346c ; UART_Open + 220
        0x0000346c:    e04c        L.      B        0x3508 ; UART_Open + 376
        0x0000346e:    485a        ZH      LDR      r0,[pc,#360] ; [0x35d8] = 0x6f8c3c12
        0x00003470:    9003        ..      STR      r0,[sp,#0xc]
        0x00003472:    f7fefa11    ....    BL       CLK_GetModuleClockSource ; 0x1898
        0x00003476:    4601        .F      MOV      r1,r0
        0x00003478:    9803        ..      LDR      r0,[sp,#0xc]
        0x0000347a:    9111        ..      STR      r1,[sp,#0x44]
        0x0000347c:    f7fef9e2    ....    BL       CLK_GetModuleClockDivider ; 0x1844
        0x00003480:    9010        ..      STR      r0,[sp,#0x40]
        0x00003482:    9811        ..      LDR      r0,[sp,#0x44]
        0x00003484:    2804        .(      CMP      r0,#4
        0x00003486:    d104        ..      BNE      0x3492 ; UART_Open + 258
        0x00003488:    e7ff        ..      B        0x348a ; UART_Open + 250
        0x0000348a:    f7fefa97    ....    BL       CLK_GetPCLK0Freq ; 0x19bc
        0x0000348e:    900c        ..      STR      r0,[sp,#0x30]
        0x00003490:    e7ff        ..      B        0x3492 ; UART_Open + 258
        0x00003492:    e039        9.      B        0x3508 ; UART_Open + 376
        0x00003494:    484f        OH      LDR      r0,[pc,#316] ; [0x35d4] = 0x6fcc3c93
        0x00003496:    9002        ..      STR      r0,[sp,#8]
        0x00003498:    f7fef9fe    ....    BL       CLK_GetModuleClockSource ; 0x1898
        0x0000349c:    4601        .F      MOV      r1,r0
        0x0000349e:    9802        ..      LDR      r0,[sp,#8]
        0x000034a0:    9111        ..      STR      r1,[sp,#0x44]
        0x000034a2:    f7fef9cf    ....    BL       CLK_GetModuleClockDivider ; 0x1844
        0x000034a6:    9010        ..      STR      r0,[sp,#0x40]
        0x000034a8:    9811        ..      LDR      r0,[sp,#0x44]
        0x000034aa:    2804        .(      CMP      r0,#4
        0x000034ac:    d104        ..      BNE      0x34b8 ; UART_Open + 296
        0x000034ae:    e7ff        ..      B        0x34b0 ; UART_Open + 288
        0x000034b0:    f7fefa8a    ....    BL       CLK_GetPCLK1Freq ; 0x19c8
        0x000034b4:    900c        ..      STR      r0,[sp,#0x30]
        0x000034b6:    e7ff        ..      B        0x34b8 ; UART_Open + 296
        0x000034b8:    e026        &.      B        0x3508 ; UART_Open + 376
        0x000034ba:    4845        EH      LDR      r0,[pc,#276] ; [0x35d0] = 0x7f8c3d14
        0x000034bc:    9001        ..      STR      r0,[sp,#4]
        0x000034be:    f7fef9eb    ....    BL       CLK_GetModuleClockSource ; 0x1898
        0x000034c2:    4601        .F      MOV      r1,r0
        0x000034c4:    9801        ..      LDR      r0,[sp,#4]
        0x000034c6:    9111        ..      STR      r1,[sp,#0x44]
        0x000034c8:    f7fef9bc    ....    BL       CLK_GetModuleClockDivider ; 0x1844
        0x000034cc:    9010        ..      STR      r0,[sp,#0x40]
        0x000034ce:    9811        ..      LDR      r0,[sp,#0x44]
        0x000034d0:    2804        .(      CMP      r0,#4
        0x000034d2:    d104        ..      BNE      0x34de ; UART_Open + 334
        0x000034d4:    e7ff        ..      B        0x34d6 ; UART_Open + 326
        0x000034d6:    f7fefa71    ..q.    BL       CLK_GetPCLK0Freq ; 0x19bc
        0x000034da:    900c        ..      STR      r0,[sp,#0x30]
        0x000034dc:    e7ff        ..      B        0x34de ; UART_Open + 334
        0x000034de:    e013        ..      B        0x3508 ; UART_Open + 376
        0x000034e0:    483a        :H      LDR      r0,[pc,#232] ; [0x35cc] = 0x7fcc3d95
        0x000034e2:    9000        ..      STR      r0,[sp,#0]
        0x000034e4:    f7fef9d8    ....    BL       CLK_GetModuleClockSource ; 0x1898
        0x000034e8:    4601        .F      MOV      r1,r0
        0x000034ea:    9800        ..      LDR      r0,[sp,#0]
        0x000034ec:    9111        ..      STR      r1,[sp,#0x44]
        0x000034ee:    f7fef9a9    ....    BL       CLK_GetModuleClockDivider ; 0x1844
        0x000034f2:    9010        ..      STR      r0,[sp,#0x40]
        0x000034f4:    9811        ..      LDR      r0,[sp,#0x44]
        0x000034f6:    2804        .(      CMP      r0,#4
        0x000034f8:    d104        ..      BNE      0x3504 ; UART_Open + 372
        0x000034fa:    e7ff        ..      B        0x34fc ; UART_Open + 364
        0x000034fc:    f7fefa64    ..d.    BL       CLK_GetPCLK1Freq ; 0x19c8
        0x00003500:    900c        ..      STR      r0,[sp,#0x30]
        0x00003502:    e7ff        ..      B        0x3504 ; UART_Open + 372
        0x00003504:    e000        ..      B        0x3508 ; UART_Open + 376
        0x00003506:    e045        E.      B        0x3594 ; UART_Open + 516
        0x00003508:    9913        ..      LDR      r1,[sp,#0x4c]
        0x0000350a:    2000        .       MOVS     r0,#0
        0x0000350c:    6308        .c      STR      r0,[r1,#0x30]
        0x0000350e:    9913        ..      LDR      r1,[sp,#0x4c]
        0x00003510:    2003        .       MOVS     r0,#3
        0x00003512:    60c8        .`      STR      r0,[r1,#0xc]
        0x00003514:    9913        ..      LDR      r1,[sp,#0x4c]
        0x00003516:    6888        .h      LDR      r0,[r1,#8]
        0x00003518:    4a32        2J      LDR      r2,[pc,#200] ; [0x35e4] = 0xfff0ff0f
        0x0000351a:    4010        .@      ANDS     r0,r0,r2
        0x0000351c:    6088        .`      STR      r0,[r1,#8]
        0x0000351e:    9811        ..      LDR      r0,[sp,#0x44]
        0x00003520:    2801        .(      CMP      r0,#1
        0x00003522:    d107        ..      BNE      0x3534 ; UART_Open + 420
        0x00003524:    e7ff        ..      B        0x3526 ; UART_Open + 406
        0x00003526:    f7fefa57    ..W.    BL       CLK_GetPLLClockFreq ; 0x19d8
        0x0000352a:    9911        ..      LDR      r1,[sp,#0x44]
        0x0000352c:    008a        ..      LSLS     r2,r1,#2
        0x0000352e:    a908        ..      ADD      r1,sp,#0x20
        0x00003530:    5088        .P      STR      r0,[r1,r2]
        0x00003532:    e7ff        ..      B        0x3534 ; UART_Open + 420
        0x00003534:    9812        ..      LDR      r0,[sp,#0x48]
        0x00003536:    b368        h.      CBZ      r0,0x3594 ; UART_Open + 516
        0x00003538:    e7ff        ..      B        0x353a ; UART_Open + 426
        0x0000353a:    9811        ..      LDR      r0,[sp,#0x44]
        0x0000353c:    0081        ..      LSLS     r1,r0,#2
        0x0000353e:    a808        ..      ADD      r0,sp,#0x20
        0x00003540:    5840        @X      LDR      r0,[r0,r1]
        0x00003542:    9910        ..      LDR      r1,[sp,#0x40]
        0x00003544:    1c49        I.      ADDS     r1,r1,#1
        0x00003546:    fbb0f0f1    ....    UDIV     r0,r0,r1
        0x0000354a:    9912        ..      LDR      r1,[sp,#0x48]
        0x0000354c:    084a        J.      LSRS     r2,r1,#1
        0x0000354e:    1880        ..      ADDS     r0,r0,r2
        0x00003550:    fbb0f0f1    ....    UDIV     r0,r0,r1
        0x00003554:    1e80        ..      SUBS     r0,r0,#2
        0x00003556:    9007        ..      STR      r0,[sp,#0x1c]
        0x00003558:    a807        ..      ADD      r0,sp,#0x1c
        0x0000355a:    8840        @.      LDRH     r0,[r0,#2]
        0x0000355c:    b190        ..      CBZ      r0,0x3584 ; UART_Open + 500
        0x0000355e:    e7ff        ..      B        0x3560 ; UART_Open + 464
        0x00003560:    9811        ..      LDR      r0,[sp,#0x44]
        0x00003562:    0081        ..      LSLS     r1,r0,#2
        0x00003564:    a808        ..      ADD      r0,sp,#0x20
        0x00003566:    5840        @X      LDR      r0,[r0,r1]
        0x00003568:    9910        ..      LDR      r1,[sp,#0x40]
        0x0000356a:    1c49        I.      ADDS     r1,r1,#1
        0x0000356c:    fbb0f0f1    ....    UDIV     r0,r0,r1
        0x00003570:    9912        ..      LDR      r1,[sp,#0x48]
        0x00003572:    00ca        ..      LSLS     r2,r1,#3
        0x00003574:    1880        ..      ADDS     r0,r0,r2
        0x00003576:    fbb0f0f1    ....    UDIV     r0,r0,r1
        0x0000357a:    0900        ..      LSRS     r0,r0,#4
        0x0000357c:    1e80        ..      SUBS     r0,r0,#2
        0x0000357e:    9913        ..      LDR      r1,[sp,#0x4c]
        0x00003580:    6248        Hb      STR      r0,[r1,#0x24]
        0x00003582:    e006        ..      B        0x3592 ; UART_Open + 514
        0x00003584:    9807        ..      LDR      r0,[sp,#0x1c]
        0x00003586:    2103        .!      MOVS     r1,#3
        0x00003588:    0709        ..      LSLS     r1,r1,#28
        0x0000358a:    4308        .C      ORRS     r0,r0,r1
        0x0000358c:    9913        ..      LDR      r1,[sp,#0x4c]
        0x0000358e:    6248        Hb      STR      r0,[r1,#0x24]
        0x00003590:    e7ff        ..      B        0x3592 ; UART_Open + 514
        0x00003592:    e7ff        ..      B        0x3594 ; UART_Open + 516
        0x00003594:    b014        ..      ADD      sp,sp,#0x50
        0x00003596:    bdb0        ..      POP      {r4,r5,r7,pc}
    $d.8
    __arm_cp.6_0
        0x00003598:    0000a79c    ....    DCD    42908
    __arm_cp.6_1
        0x0000359c:    40070000    ...@    DCD    1074200576
    __arm_cp.6_2
        0x000035a0:    40071000    ...@    DCD    1074204672
    __arm_cp.6_3
        0x000035a4:    40072000    . .@    DCD    1074208768
    __arm_cp.6_4
        0x000035a8:    40073000    .0.@    DCD    1074212864
    __arm_cp.6_5
        0x000035ac:    40074000    .@.@    DCD    1074216960
    __arm_cp.6_6
        0x000035b0:    40075000    .P.@    DCD    1074221056
    __arm_cp.6_7
        0x000035b4:    50070000    ...P    DCD    1342636032
    __arm_cp.6_8
        0x000035b8:    50071000    ...P    DCD    1342640128
    __arm_cp.6_9
        0x000035bc:    50072000    . .P    DCD    1342644224
    __arm_cp.6_10
        0x000035c0:    50073000    .0.P    DCD    1342648320
    __arm_cp.6_11
        0x000035c4:    50074000    .@.P    DCD    1342652416
    __arm_cp.6_12
        0x000035c8:    50075000    .P.P    DCD    1342656512
    __arm_cp.6_13
        0x000035cc:    7fcc3d95    .=..    DCD    2144091541
    __arm_cp.6_14
        0x000035d0:    7f8c3d14    .=..    DCD    2139897108
    __arm_cp.6_15
        0x000035d4:    6fcc3c93    .<.o    DCD    1875655827
    __arm_cp.6_16
        0x000035d8:    6f8c3c12    .<.o    DCD    1871461394
    __arm_cp.6_17
        0x000035dc:    6f403d91    .=@o    DCD    1866481041
    __arm_cp.6_18
        0x000035e0:    6f003d10    .=.o    DCD    1862286608
    __arm_cp.6_19
        0x000035e4:    fff0ff0f    ....    DCD    4293984015
    $t.16
    __NVIC_EnableIRQ
        0x000035e8:    b081        ..      SUB      sp,sp,#4
        0x000035ea:    9000        ..      STR      r0,[sp,#0]
        0x000035ec:    9800        ..      LDR      r0,[sp,#0]
        0x000035ee:    2800        .(      CMP      r0,#0
        0x000035f0:    d40b        ..      BMI      0x360a ; __NVIC_EnableIRQ + 34
        0x000035f2:    e7ff        ..      B        0x35f4 ; __NVIC_EnableIRQ + 12
        0x000035f4:    9900        ..      LDR      r1,[sp,#0]
        0x000035f6:    201f        .       MOVS     r0,#0x1f
        0x000035f8:    460a        .F      MOV      r2,r1
        0x000035fa:    4002        .@      ANDS     r2,r2,r0
        0x000035fc:    2001        .       MOVS     r0,#1
        0x000035fe:    4090        .@      LSLS     r0,r0,r2
        0x00003600:    0949        I.      LSRS     r1,r1,#5
        0x00003602:    0089        ..      LSLS     r1,r1,#2
        0x00003604:    4a02        .J      LDR      r2,[pc,#8] ; [0x3610] = 0xe000e100
        0x00003606:    5088        .P      STR      r0,[r1,r2]
        0x00003608:    e7ff        ..      B        0x360a ; __NVIC_EnableIRQ + 34
        0x0000360a:    b001        ..      ADD      sp,sp,#4
        0x0000360c:    4770        pG      BX       lr
        0x0000360e:    46c0        .F      MOV      r8,r8
    $d.17
    __arm_cp.8_0
        0x00003610:    e000e100    ....    DCD    3758153984
    $t.84
    ch2hex
        0x00003614:    b082        ..      SUB      sp,sp,#8
        0x00003616:    4601        .F      MOV      r1,r0
        0x00003618:    4668        hF      MOV      r0,sp
        0x0000361a:    7001        .p      STRB     r1,[r0,#0]
        0x0000361c:    7800        .x      LDRB     r0,[r0,#0]
        0x0000361e:    2839        9(      CMP      r0,#0x39
        0x00003620:    dc05        ..      BGT      0x362e ; ch2hex + 26
        0x00003622:    e7ff        ..      B        0x3624 ; ch2hex + 16
        0x00003624:    9800        ..      LDR      r0,[sp,#0]
        0x00003626:    3830        08      SUBS     r0,r0,#0x30
        0x00003628:    a901        ..      ADD      r1,sp,#4
        0x0000362a:    7008        .p      STRB     r0,[r1,#0]
        0x0000362c:    e013        ..      B        0x3656 ; ch2hex + 66
        0x0000362e:    4668        hF      MOV      r0,sp
        0x00003630:    7800        .x      LDRB     r0,[r0,#0]
        0x00003632:    287a        z(      CMP      r0,#0x7a
        0x00003634:    dc0a        ..      BGT      0x364c ; ch2hex + 56
        0x00003636:    e7ff        ..      B        0x3638 ; ch2hex + 36
        0x00003638:    4668        hF      MOV      r0,sp
        0x0000363a:    7800        .x      LDRB     r0,[r0,#0]
        0x0000363c:    2861        a(      CMP      r0,#0x61
        0x0000363e:    db05        ..      BLT      0x364c ; ch2hex + 56
        0x00003640:    e7ff        ..      B        0x3642 ; ch2hex + 46
        0x00003642:    9800        ..      LDR      r0,[sp,#0]
        0x00003644:    3857        W8      SUBS     r0,r0,#0x57
        0x00003646:    a901        ..      ADD      r1,sp,#4
        0x00003648:    7008        .p      STRB     r0,[r1,#0]
        0x0000364a:    e004        ..      B        0x3656 ; ch2hex + 66
        0x0000364c:    9800        ..      LDR      r0,[sp,#0]
        0x0000364e:    3837        78      SUBS     r0,r0,#0x37
        0x00003650:    a901        ..      ADD      r1,sp,#4
        0x00003652:    7008        .p      STRB     r0,[r1,#0]
        0x00003654:    e7ff        ..      B        0x3656 ; ch2hex + 66
        0x00003656:    a801        ..      ADD      r0,sp,#4
        0x00003658:    7800        .x      LDRB     r0,[r0,#0]
        0x0000365a:    b002        ..      ADD      sp,sp,#8
        0x0000365c:    4770        pG      BX       lr
    clean_reg
        0x0000365e:    b082        ..      SUB      sp,sp,#8
        0x00003660:    9001        ..      STR      r0,[sp,#4]
        0x00003662:    2000        .       MOVS     r0,#0
        0x00003664:    9000        ..      STR      r0,[sp,#0]
        0x00003666:    e7ff        ..      B        0x3668 ; clean_reg + 10
        0x00003668:    9800        ..      LDR      r0,[sp,#0]
        0x0000366a:    2811        .(      CMP      r0,#0x11
        0x0000366c:    dc0a        ..      BGT      0x3684 ; clean_reg + 38
        0x0000366e:    e7ff        ..      B        0x3670 ; clean_reg + 18
        0x00003670:    9901        ..      LDR      r1,[sp,#4]
        0x00003672:    9800        ..      LDR      r0,[sp,#0]
        0x00003674:    0082        ..      LSLS     r2,r0,#2
        0x00003676:    2000        .       MOVS     r0,#0
        0x00003678:    5088        .P      STR      r0,[r1,r2]
        0x0000367a:    e7ff        ..      B        0x367c ; clean_reg + 30
        0x0000367c:    9800        ..      LDR      r0,[sp,#0]
        0x0000367e:    1c40        @.      ADDS     r0,r0,#1
        0x00003680:    9000        ..      STR      r0,[sp,#0]
        0x00003682:    e7f1        ..      B        0x3668 ; clean_reg + 10
        0x00003684:    b002        ..      ADD      sp,sp,#8
        0x00003686:    4770        pG      BX       lr
    dump_ecc_reg
        0x00003688:    b083        ..      SUB      sp,sp,#0xc
        0x0000368a:    9002        ..      STR      r0,[sp,#8]
        0x0000368c:    9101        ..      STR      r1,[sp,#4]
        0x0000368e:    9200        ..      STR      r2,[sp,#0]
        0x00003690:    b003        ..      ADD      sp,sp,#0xc
        0x00003692:    4770        pG      BX       lr
    ecc_init_curve
        0x00003694:    b570        p.      PUSH     {r4-r6,lr}
        0x00003696:    b088        ..      SUB      sp,sp,#0x20
        0x00003698:    9007        ..      STR      r0,[sp,#0x1c]
        0x0000369a:    9106        ..      STR      r1,[sp,#0x18]
        0x0000369c:    2000        .       MOVS     r0,#0
        0x0000369e:    9004        ..      STR      r0,[sp,#0x10]
        0x000036a0:    9806        ..      LDR      r0,[sp,#0x18]
        0x000036a2:    f000f933    ..3.    BL       get_curve ; 0x390c
        0x000036a6:    4601        .F      MOV      r1,r0
        0x000036a8:    487a        zH      LDR      r0,[pc,#488] ; [0x3894] = 0x20001c44
        0x000036aa:    6001        .`      STR      r1,[r0,#0]
        0x000036ac:    6800        .h      LDR      r0,[r0,#0]
        0x000036ae:    b930        0.      CBNZ     r0,0x36be ; ecc_init_curve + 42
        0x000036b0:    e7ff        ..      B        0x36b2 ; ecc_init_curve + 30
        0x000036b2:    e7ff        ..      B        0x36b4 ; ecc_init_curve + 32
        0x000036b4:    e7ff        ..      B        0x36b6 ; ecc_init_curve + 34
        0x000036b6:    2000        .       MOVS     r0,#0
        0x000036b8:    43c0        .C      MVNS     r0,r0
        0x000036ba:    9004        ..      STR      r0,[sp,#0x10]
        0x000036bc:    e7ff        ..      B        0x36be ; ecc_init_curve + 42
        0x000036be:    9804        ..      LDR      r0,[sp,#0x10]
        0x000036c0:    b100        ..      CBZ      r0,0x36c4 ; ecc_init_curve + 48
        0x000036c2:    e0dc        ..      B        0x387e ; ecc_init_curve + 490
        0x000036c4:    2000        .       MOVS     r0,#0
        0x000036c6:    9005        ..      STR      r0,[sp,#0x14]
        0x000036c8:    e7ff        ..      B        0x36ca ; ecc_init_curve + 54
        0x000036ca:    9805        ..      LDR      r0,[sp,#0x14]
        0x000036cc:    2811        .(      CMP      r0,#0x11
        0x000036ce:    dc26        &.      BGT      0x371e ; ecc_init_curve + 138
        0x000036d0:    e7ff        ..      B        0x36d2 ; ecc_init_curve + 62
        0x000036d2:    9807        ..      LDR      r0,[sp,#0x1c]
        0x000036d4:    9905        ..      LDR      r1,[sp,#0x14]
        0x000036d6:    0089        ..      LSLS     r1,r1,#2
        0x000036d8:    1841        A.      ADDS     r1,r0,r1
        0x000036da:    4a6f        oJ      LDR      r2,[pc,#444] ; [0x3898] = 0x928
        0x000036dc:    2000        .       MOVS     r0,#0
        0x000036de:    5088        .P      STR      r0,[r1,r2]
        0x000036e0:    9907        ..      LDR      r1,[sp,#0x1c]
        0x000036e2:    9a05        ..      LDR      r2,[sp,#0x14]
        0x000036e4:    0092        ..      LSLS     r2,r2,#2
        0x000036e6:    1889        ..      ADDS     r1,r1,r2
        0x000036e8:    f6401270    @.p.    MOVW     r2,#0x970
        0x000036ec:    5088        .P      STR      r0,[r1,r2]
        0x000036ee:    9907        ..      LDR      r1,[sp,#0x1c]
        0x000036f0:    9a05        ..      LDR      r2,[sp,#0x14]
        0x000036f2:    0092        ..      LSLS     r2,r2,#2
        0x000036f4:    1889        ..      ADDS     r1,r1,r2
        0x000036f6:    4a69        iJ      LDR      r2,[pc,#420] ; [0x389c] = 0x808
        0x000036f8:    5088        .P      STR      r0,[r1,r2]
        0x000036fa:    9907        ..      LDR      r1,[sp,#0x1c]
        0x000036fc:    9a05        ..      LDR      r2,[sp,#0x14]
        0x000036fe:    0092        ..      LSLS     r2,r2,#2
        0x00003700:    1889        ..      ADDS     r1,r1,r2
        0x00003702:    f6400250    @.P.    MOVW     r2,#0x850
        0x00003706:    5088        .P      STR      r0,[r1,r2]
        0x00003708:    9907        ..      LDR      r1,[sp,#0x1c]
        0x0000370a:    9a05        ..      LDR      r2,[sp,#0x14]
        0x0000370c:    0092        ..      LSLS     r2,r2,#2
        0x0000370e:    1889        ..      ADDS     r1,r1,r2
        0x00003710:    4a67        gJ      LDR      r2,[pc,#412] ; [0x38b0] = 0x9b8
        0x00003712:    5088        .P      STR      r0,[r1,r2]
        0x00003714:    e7ff        ..      B        0x3716 ; ecc_init_curve + 130
        0x00003716:    9805        ..      LDR      r0,[sp,#0x14]
        0x00003718:    1c40        @.      ADDS     r0,r0,#1
        0x0000371a:    9005        ..      STR      r0,[sp,#0x14]
        0x0000371c:    e7d5        ..      B        0x36ca ; ecc_init_curve + 54
        0x0000371e:    485d        ]H      LDR      r0,[pc,#372] ; [0x3894] = 0x20001c44
        0x00003720:    9003        ..      STR      r0,[sp,#0xc]
        0x00003722:    6800        .h      LDR      r0,[r0,#0]
        0x00003724:    3008        .0      ADDS     r0,r0,#8
        0x00003726:    9907        ..      LDR      r1,[sp,#0x1c]
        0x00003728:    4a5b        [J      LDR      r2,[pc,#364] ; [0x3898] = 0x928
        0x0000372a:    1889        ..      ADDS     r1,r1,r2
        0x0000372c:    f7fff84c    ..L.    BL       Hex2Reg ; 0x27c8
        0x00003730:    9803        ..      LDR      r0,[sp,#0xc]
        0x00003732:    6800        .h      LDR      r0,[r0,#0]
        0x00003734:    3098        .0      ADDS     r0,r0,#0x98
        0x00003736:    9907        ..      LDR      r1,[sp,#0x1c]
        0x00003738:    f6401270    @.p.    MOVW     r2,#0x970
        0x0000373c:    1889        ..      ADDS     r1,r1,r2
        0x0000373e:    f7fff843    ..C.    BL       Hex2Reg ; 0x27c8
        0x00003742:    9803        ..      LDR      r0,[sp,#0xc]
        0x00003744:    6800        .h      LDR      r0,[r0,#0]
        0x00003746:    f2401128    @.(.    MOVW     r1,#0x128
        0x0000374a:    1840        @.      ADDS     r0,r0,r1
        0x0000374c:    9907        ..      LDR      r1,[sp,#0x1c]
        0x0000374e:    4a53        SJ      LDR      r2,[pc,#332] ; [0x389c] = 0x808
        0x00003750:    1889        ..      ADDS     r1,r1,r2
        0x00003752:    f7fff839    ..9.    BL       Hex2Reg ; 0x27c8
        0x00003756:    9803        ..      LDR      r0,[sp,#0xc]
        0x00003758:    6800        .h      LDR      r0,[r0,#0]
        0x0000375a:    f24011b8    @...    MOVW     r1,#0x1b8
        0x0000375e:    1840        @.      ADDS     r0,r0,r1
        0x00003760:    9907        ..      LDR      r1,[sp,#0x1c]
        0x00003762:    f6400250    @.P.    MOVW     r2,#0x850
        0x00003766:    1889        ..      ADDS     r1,r1,r2
        0x00003768:    f7fff82e    ....    BL       Hex2Reg ; 0x27c8
        0x0000376c:    e7ff        ..      B        0x376e ; ecc_init_curve + 218
        0x0000376e:    e7ff        ..      B        0x3770 ; ecc_init_curve + 220
        0x00003770:    9807        ..      LDR      r0,[sp,#0x1c]
        0x00003772:    4949        II      LDR      r1,[pc,#292] ; [0x3898] = 0x928
        0x00003774:    1841        A.      ADDS     r1,r0,r1
        0x00003776:    484a        JH      LDR      r0,[pc,#296] ; [0x38a0] = 0xacf8
        0x00003778:    220a        ."      MOVS     r2,#0xa
        0x0000377a:    9202        ..      STR      r2,[sp,#8]
        0x0000377c:    f7ffff84    ....    BL       dump_ecc_reg ; 0x3688
        0x00003780:    9a02        ..      LDR      r2,[sp,#8]
        0x00003782:    9807        ..      LDR      r0,[sp,#0x1c]
        0x00003784:    f6401170    @.p.    MOVW     r1,#0x970
        0x00003788:    1841        A.      ADDS     r1,r0,r1
        0x0000378a:    4846        FH      LDR      r0,[pc,#280] ; [0x38a4] = 0xad09
        0x0000378c:    f7ffff7c    ..|.    BL       dump_ecc_reg ; 0x3688
        0x00003790:    9a02        ..      LDR      r2,[sp,#8]
        0x00003792:    9807        ..      LDR      r0,[sp,#0x1c]
        0x00003794:    4941        AI      LDR      r1,[pc,#260] ; [0x389c] = 0x808
        0x00003796:    1841        A.      ADDS     r1,r0,r1
        0x00003798:    4843        CH      LDR      r0,[pc,#268] ; [0x38a8] = 0xacd4
        0x0000379a:    f7ffff75    ..u.    BL       dump_ecc_reg ; 0x3688
        0x0000379e:    9a02        ..      LDR      r2,[sp,#8]
        0x000037a0:    9807        ..      LDR      r0,[sp,#0x1c]
        0x000037a2:    f6400150    @.P.    MOVW     r1,#0x850
        0x000037a6:    1841        A.      ADDS     r1,r0,r1
        0x000037a8:    4840        @H      LDR      r0,[pc,#256] ; [0x38ac] = 0xace6
        0x000037aa:    f7ffff6d    ..m.    BL       dump_ecc_reg ; 0x3688
        0x000037ae:    4839        9H      LDR      r0,[pc,#228] ; [0x3894] = 0x20001c44
        0x000037b0:    6800        .h      LDR      r0,[r0,#0]
        0x000037b2:    f24031c0    @..1    MOVW     r1,#0x3c0
        0x000037b6:    5840        @X      LDR      r0,[r0,r1]
        0x000037b8:    2801        .(      CMP      r0,#1
        0x000037ba:    d154        T.      BNE      0x3866 ; ecc_init_curve + 466
        0x000037bc:    e7ff        ..      B        0x37be ; ecc_init_curve + 298
        0x000037be:    9807        ..      LDR      r0,[sp,#0x1c]
        0x000037c0:    4a3b        ;J      LDR      r2,[pc,#236] ; [0x38b0] = 0x9b8
        0x000037c2:    9201        ..      STR      r2,[sp,#4]
        0x000037c4:    2301        .#      MOVS     r3,#1
        0x000037c6:    5083        .P      STR      r3,[r0,r2]
        0x000037c8:    4832        2H      LDR      r0,[pc,#200] ; [0x3894] = 0x20001c44
        0x000037ca:    6801        .h      LDR      r1,[r0,#0]
        0x000037cc:    f24034b0    @..4    MOVW     r4,#0x3b0
        0x000037d0:    5909        .Y      LDR      r1,[r1,r4]
        0x000037d2:    17cc        ..      ASRS     r4,r1,#31
        0x000037d4:    0ee4        ..      LSRS     r4,r4,#27
        0x000037d6:    190c        ..      ADDS     r4,r1,r4
        0x000037d8:    251f        .%      MOVS     r5,#0x1f
        0x000037da:    43ed        .C      MVNS     r5,r5
        0x000037dc:    4626        &F      MOV      r6,r4
        0x000037de:    402e        .@      ANDS     r6,r6,r5
        0x000037e0:    1b89        ..      SUBS     r1,r1,r6
        0x000037e2:    461e        .F      MOV      r6,r3
        0x000037e4:    408e        .@      LSLS     r6,r6,r1
        0x000037e6:    9907        ..      LDR      r1,[sp,#0x1c]
        0x000037e8:    1164        d.      ASRS     r4,r4,#5
        0x000037ea:    00a4        ..      LSLS     r4,r4,#2
        0x000037ec:    190c        ..      ADDS     r4,r1,r4
        0x000037ee:    58a1        .X      LDR      r1,[r4,r2]
        0x000037f0:    4331        1C      ORRS     r1,r1,r6
        0x000037f2:    50a1        .P      STR      r1,[r4,r2]
        0x000037f4:    6801        .h      LDR      r1,[r0,#0]
        0x000037f6:    f24034b4    @..4    MOVW     r4,#0x3b4
        0x000037fa:    5909        .Y      LDR      r1,[r1,r4]
        0x000037fc:    17cc        ..      ASRS     r4,r1,#31
        0x000037fe:    0ee4        ..      LSRS     r4,r4,#27
        0x00003800:    190c        ..      ADDS     r4,r1,r4
        0x00003802:    4626        &F      MOV      r6,r4
        0x00003804:    402e        .@      ANDS     r6,r6,r5
        0x00003806:    1b89        ..      SUBS     r1,r1,r6
        0x00003808:    461e        .F      MOV      r6,r3
        0x0000380a:    408e        .@      LSLS     r6,r6,r1
        0x0000380c:    9907        ..      LDR      r1,[sp,#0x1c]
        0x0000380e:    1164        d.      ASRS     r4,r4,#5
        0x00003810:    00a4        ..      LSLS     r4,r4,#2
        0x00003812:    190c        ..      ADDS     r4,r1,r4
        0x00003814:    58a1        .X      LDR      r1,[r4,r2]
        0x00003816:    4331        1C      ORRS     r1,r1,r6
        0x00003818:    50a1        .P      STR      r1,[r4,r2]
        0x0000381a:    6801        .h      LDR      r1,[r0,#0]
        0x0000381c:    f24034b8    @..4    MOVW     r4,#0x3b8
        0x00003820:    5909        .Y      LDR      r1,[r1,r4]
        0x00003822:    17cc        ..      ASRS     r4,r1,#31
        0x00003824:    0ee4        ..      LSRS     r4,r4,#27
        0x00003826:    190c        ..      ADDS     r4,r1,r4
        0x00003828:    4626        &F      MOV      r6,r4
        0x0000382a:    402e        .@      ANDS     r6,r6,r5
        0x0000382c:    1b89        ..      SUBS     r1,r1,r6
        0x0000382e:    461e        .F      MOV      r6,r3
        0x00003830:    408e        .@      LSLS     r6,r6,r1
        0x00003832:    9907        ..      LDR      r1,[sp,#0x1c]
        0x00003834:    1164        d.      ASRS     r4,r4,#5
        0x00003836:    00a4        ..      LSLS     r4,r4,#2
        0x00003838:    190c        ..      ADDS     r4,r1,r4
        0x0000383a:    58a1        .X      LDR      r1,[r4,r2]
        0x0000383c:    4331        1C      ORRS     r1,r1,r6
        0x0000383e:    50a1        .P      STR      r1,[r4,r2]
        0x00003840:    6800        .h      LDR      r0,[r0,#0]
        0x00003842:    f24031bc    @..1    MOVW     r1,#0x3bc
        0x00003846:    5840        @X      LDR      r0,[r0,r1]
        0x00003848:    17c1        ..      ASRS     r1,r0,#31
        0x0000384a:    0ec9        ..      LSRS     r1,r1,#27
        0x0000384c:    1841        A.      ADDS     r1,r0,r1
        0x0000384e:    460c        .F      MOV      r4,r1
        0x00003850:    402c        ,@      ANDS     r4,r4,r5
        0x00003852:    1b00        ..      SUBS     r0,r0,r4
        0x00003854:    4083        .@      LSLS     r3,r3,r0
        0x00003856:    9807        ..      LDR      r0,[sp,#0x1c]
        0x00003858:    1149        I.      ASRS     r1,r1,#5
        0x0000385a:    0089        ..      LSLS     r1,r1,#2
        0x0000385c:    1841        A.      ADDS     r1,r0,r1
        0x0000385e:    5888        .X      LDR      r0,[r1,r2]
        0x00003860:    4318        .C      ORRS     r0,r0,r3
        0x00003862:    5088        .P      STR      r0,[r1,r2]
        0x00003864:    e00a        ..      B        0x387c ; ecc_init_curve + 488
        0x00003866:    480b        .H      LDR      r0,[pc,#44] ; [0x3894] = 0x20001c44
        0x00003868:    6800        .h      LDR      r0,[r0,#0]
        0x0000386a:    f240214c    @.L!    MOVW     r1,#0x24c
        0x0000386e:    1840        @.      ADDS     r0,r0,r1
        0x00003870:    9907        ..      LDR      r1,[sp,#0x1c]
        0x00003872:    4a0f        .J      LDR      r2,[pc,#60] ; [0x38b0] = 0x9b8
        0x00003874:    1889        ..      ADDS     r1,r1,r2
        0x00003876:    f7feffa7    ....    BL       Hex2Reg ; 0x27c8
        0x0000387a:    e7ff        ..      B        0x387c ; ecc_init_curve + 488
        0x0000387c:    e7ff        ..      B        0x387e ; ecc_init_curve + 490
        0x0000387e:    9807        ..      LDR      r0,[sp,#0x1c]
        0x00003880:    490b        .I      LDR      r1,[pc,#44] ; [0x38b0] = 0x9b8
        0x00003882:    1841        A.      ADDS     r1,r0,r1
        0x00003884:    480b        .H      LDR      r0,[pc,#44] ; [0x38b4] = 0xad1a
        0x00003886:    220a        ."      MOVS     r2,#0xa
        0x00003888:    f7fffefe    ....    BL       dump_ecc_reg ; 0x3688
        0x0000388c:    9804        ..      LDR      r0,[sp,#0x10]
        0x0000388e:    b008        ..      ADD      sp,sp,#0x20
        0x00003890:    bd70        p.      POP      {r4-r6,pc}
        0x00003892:    46c0        .F      MOV      r8,r8
    $d.30
    __arm_cp.23_0
        0x00003894:    20001c44    D..     DCD    536878148
    __arm_cp.23_1
        0x00003898:    00000928    (...    DCD    2344
    __arm_cp.23_2
        0x0000389c:    00000808    ....    DCD    2056
    __arm_cp.23_3
        0x000038a0:    0000acf8    ....    DCD    44280
    __arm_cp.23_4
        0x000038a4:    0000ad09    ....    DCD    44297
    __arm_cp.23_5
        0x000038a8:    0000acd4    ....    DCD    44244
    __arm_cp.23_6
        0x000038ac:    0000ace6    ....    DCD    44262
    __arm_cp.23_7
        0x000038b0:    000009b8    ....    DCD    2488
    __arm_cp.23_8
        0x000038b4:    0000ad1a    ....    DCD    44314
    $t.16
    fputc
        0x000038b8:    b580        ..      PUSH     {r7,lr}
        0x000038ba:    b082        ..      SUB      sp,sp,#8
        0x000038bc:    9001        ..      STR      r0,[sp,#4]
        0x000038be:    9100        ..      STR      r1,[sp,#0]
        0x000038c0:    9801        ..      LDR      r0,[sp,#4]
        0x000038c2:    f7fffce1    ....    BL       SendChar ; 0x3288
        0x000038c6:    9801        ..      LDR      r0,[sp,#4]
        0x000038c8:    b002        ..      ADD      sp,sp,#8
        0x000038ca:    bd80        ..      POP      {r7,pc}
    getConstant
        0x000038cc:    b082        ..      SUB      sp,sp,#8
        0x000038ce:    460a        .F      MOV      r2,r1
        0x000038d0:    4601        .F      MOV      r1,r0
        0x000038d2:    a801        ..      ADD      r0,sp,#4
        0x000038d4:    7001        .p      STRB     r1,[r0,#0]
        0x000038d6:    4669        iF      MOV      r1,sp
        0x000038d8:    700a        .p      STRB     r2,[r1,#0]
        0x000038da:    7800        .x      LDRB     r0,[r0,#0]
        0x000038dc:    7809        .x      LDRB     r1,[r1,#0]
        0x000038de:    1841        A.      ADDS     r1,r0,r1
        0x000038e0:    4801        .H      LDR      r0,[pc,#4] ; [0x38e8] = 0xa734
        0x000038e2:    5c40        @\      LDRB     r0,[r0,r1]
        0x000038e4:    b002        ..      ADD      sp,sp,#8
        0x000038e6:    4770        pG      BX       lr
    $d.1
    __arm_cp.0_0
        0x000038e8:    0000a734    4...    DCD    42804
    $t.82
    get_Nth_nibble_char
        0x000038ec:    b082        ..      SUB      sp,sp,#8
        0x000038ee:    9001        ..      STR      r0,[sp,#4]
        0x000038f0:    9100        ..      STR      r1,[sp,#0]
        0x000038f2:    9901        ..      LDR      r1,[sp,#4]
        0x000038f4:    9800        ..      LDR      r0,[sp,#0]
        0x000038f6:    0080        ..      LSLS     r0,r0,#2
        0x000038f8:    40c1        .@      LSRS     r1,r1,r0
        0x000038fa:    200f        .       MOVS     r0,#0xf
        0x000038fc:    4001        .@      ANDS     r1,r1,r0
        0x000038fe:    4802        .H      LDR      r0,[pc,#8] ; [0x3908] = 0x2000000c
        0x00003900:    5c40        @\      LDRB     r0,[r0,r1]
        0x00003902:    b002        ..      ADD      sp,sp,#8
        0x00003904:    4770        pG      BX       lr
        0x00003906:    46c0        .F      MOV      r8,r8
    $d.83
    __arm_cp.48_0
        0x00003908:    2000000c    ...     DCD    536870924
    $t.24
    get_curve
        0x0000390c:    b580        ..      PUSH     {r7,lr}
        0x0000390e:    b084        ..      SUB      sp,sp,#0x10
        0x00003910:    9003        ..      STR      r0,[sp,#0xc]
        0x00003912:    2000        .       MOVS     r0,#0
        0x00003914:    9001        ..      STR      r0,[sp,#4]
        0x00003916:    9002        ..      STR      r0,[sp,#8]
        0x00003918:    e7ff        ..      B        0x391a ; get_curve + 14
        0x0000391a:    9802        ..      LDR      r0,[sp,#8]
        0x0000391c:    2816        .(      CMP      r0,#0x16
        0x0000391e:    d821        !.      BHI      0x3964 ; get_curve + 88
        0x00003920:    e7ff        ..      B        0x3922 ; get_curve + 22
        0x00003922:    9803        ..      LDR      r0,[sp,#0xc]
        0x00003924:    9902        ..      LDR      r1,[sp,#8]
        0x00003926:    f24032c4    @..2    MOVW     r2,#0x3c4
        0x0000392a:    434a        JC      MULS     r2,r1,r2
        0x0000392c:    490f        .I      LDR      r1,[pc,#60] ; [0x396c] = 0x5098
        0x0000392e:    5889        .X      LDR      r1,[r1,r2]
        0x00003930:    4288        .B      CMP      r0,r1
        0x00003932:    d10e        ..      BNE      0x3952 ; get_curve + 70
        0x00003934:    e7ff        ..      B        0x3936 ; get_curve + 42
        0x00003936:    9802        ..      LDR      r0,[sp,#8]
        0x00003938:    f24032c4    @..2    MOVW     r2,#0x3c4
        0x0000393c:    4611        .F      MOV      r1,r2
        0x0000393e:    4341        AC      MULS     r1,r0,r1
        0x00003940:    480a        .H      LDR      r0,[pc,#40] ; [0x396c] = 0x5098
        0x00003942:    1841        A.      ADDS     r1,r0,r1
        0x00003944:    480a        .H      LDR      r0,[pc,#40] ; [0x3970] = 0x20001820
        0x00003946:    9000        ..      STR      r0,[sp,#0]
        0x00003948:    f7fcfcc1    ....    BL       __aeabi_memcpy ; 0x2ce
        0x0000394c:    9800        ..      LDR      r0,[sp,#0]
        0x0000394e:    9001        ..      STR      r0,[sp,#4]
        0x00003950:    e7ff        ..      B        0x3952 ; get_curve + 70
        0x00003952:    9801        ..      LDR      r0,[sp,#4]
        0x00003954:    b108        ..      CBZ      r0,0x395a ; get_curve + 78
        0x00003956:    e7ff        ..      B        0x3958 ; get_curve + 76
        0x00003958:    e004        ..      B        0x3964 ; get_curve + 88
        0x0000395a:    e7ff        ..      B        0x395c ; get_curve + 80
        0x0000395c:    9802        ..      LDR      r0,[sp,#8]
        0x0000395e:    1c40        @.      ADDS     r0,r0,#1
        0x00003960:    9002        ..      STR      r0,[sp,#8]
        0x00003962:    e7da        ..      B        0x391a ; get_curve + 14
        0x00003964:    9801        ..      LDR      r0,[sp,#4]
        0x00003966:    b004        ..      ADD      sp,sp,#0x10
        0x00003968:    bd80        ..      POP      {r7,pc}
        0x0000396a:    46c0        .F      MOV      r8,r8
    $d.25
    __arm_cp.20_0
        0x0000396c:    00005098    .P..    DCD    20632
    __arm_cp.20_1
        0x00003970:    20001820     ..     DCD    536877088
    $t.26
    get_nibble_value
        0x00003974:    b083        ..      SUB      sp,sp,#0xc
        0x00003976:    4601        .F      MOV      r1,r0
        0x00003978:    a801        ..      ADD      r0,sp,#4
        0x0000397a:    7001        .p      STRB     r1,[r0,#0]
        0x0000397c:    7800        .x      LDRB     r0,[r0,#0]
        0x0000397e:    2830        0(      CMP      r0,#0x30
        0x00003980:    db0e        ..      BLT      0x39a0 ; get_nibble_value + 44
        0x00003982:    e7ff        ..      B        0x3984 ; get_nibble_value + 16
        0x00003984:    a801        ..      ADD      r0,sp,#4
        0x00003986:    7800        .x      LDRB     r0,[r0,#0]
        0x00003988:    2839        9(      CMP      r0,#0x39
        0x0000398a:    dc09        ..      BGT      0x39a0 ; get_nibble_value + 44
        0x0000398c:    e7ff        ..      B        0x398e ; get_nibble_value + 26
        0x0000398e:    4669        iF      MOV      r1,sp
        0x00003990:    2030        0       MOVS     r0,#0x30
        0x00003992:    7008        .p      STRB     r0,[r1,#0]
        0x00003994:    a801        ..      ADD      r0,sp,#4
        0x00003996:    7800        .x      LDRB     r0,[r0,#0]
        0x00003998:    7809        .x      LDRB     r1,[r1,#0]
        0x0000399a:    1a40        @.      SUBS     r0,r0,r1
        0x0000399c:    9002        ..      STR      r0,[sp,#8]
        0x0000399e:    e02a        *.      B        0x39f6 ; get_nibble_value + 130
        0x000039a0:    a801        ..      ADD      r0,sp,#4
        0x000039a2:    7800        .x      LDRB     r0,[r0,#0]
        0x000039a4:    2861        a(      CMP      r0,#0x61
        0x000039a6:    db0f        ..      BLT      0x39c8 ; get_nibble_value + 84
        0x000039a8:    e7ff        ..      B        0x39aa ; get_nibble_value + 54
        0x000039aa:    a801        ..      ADD      r0,sp,#4
        0x000039ac:    7800        .x      LDRB     r0,[r0,#0]
        0x000039ae:    2866        f(      CMP      r0,#0x66
        0x000039b0:    dc0a        ..      BGT      0x39c8 ; get_nibble_value + 84
        0x000039b2:    e7ff        ..      B        0x39b4 ; get_nibble_value + 64
        0x000039b4:    4669        iF      MOV      r1,sp
        0x000039b6:    2061        a       MOVS     r0,#0x61
        0x000039b8:    7008        .p      STRB     r0,[r1,#0]
        0x000039ba:    a801        ..      ADD      r0,sp,#4
        0x000039bc:    7800        .x      LDRB     r0,[r0,#0]
        0x000039be:    7809        .x      LDRB     r1,[r1,#0]
        0x000039c0:    1a40        @.      SUBS     r0,r0,r1
        0x000039c2:    300a        .0      ADDS     r0,r0,#0xa
        0x000039c4:    9002        ..      STR      r0,[sp,#8]
        0x000039c6:    e016        ..      B        0x39f6 ; get_nibble_value + 130
        0x000039c8:    a801        ..      ADD      r0,sp,#4
        0x000039ca:    7800        .x      LDRB     r0,[r0,#0]
        0x000039cc:    2841        A(      CMP      r0,#0x41
        0x000039ce:    db0f        ..      BLT      0x39f0 ; get_nibble_value + 124
        0x000039d0:    e7ff        ..      B        0x39d2 ; get_nibble_value + 94
        0x000039d2:    a801        ..      ADD      r0,sp,#4
        0x000039d4:    7800        .x      LDRB     r0,[r0,#0]
        0x000039d6:    2846        F(      CMP      r0,#0x46
        0x000039d8:    dc0a        ..      BGT      0x39f0 ; get_nibble_value + 124
        0x000039da:    e7ff        ..      B        0x39dc ; get_nibble_value + 104
        0x000039dc:    4669        iF      MOV      r1,sp
        0x000039de:    2041        A       MOVS     r0,#0x41
        0x000039e0:    7008        .p      STRB     r0,[r1,#0]
        0x000039e2:    a801        ..      ADD      r0,sp,#4
        0x000039e4:    7800        .x      LDRB     r0,[r0,#0]
        0x000039e6:    7809        .x      LDRB     r1,[r1,#0]
        0x000039e8:    1a40        @.      SUBS     r0,r0,r1
        0x000039ea:    300a        .0      ADDS     r0,r0,#0xa
        0x000039ec:    9002        ..      STR      r0,[sp,#8]
        0x000039ee:    e002        ..      B        0x39f6 ; get_nibble_value + 130
        0x000039f0:    2000        .       MOVS     r0,#0
        0x000039f2:    9002        ..      STR      r0,[sp,#8]
        0x000039f4:    e7ff        ..      B        0x39f6 ; get_nibble_value + 130
        0x000039f6:    9802        ..      LDR      r0,[sp,#8]
        0x000039f8:    b003        ..      ADD      sp,sp,#0xc
        0x000039fa:    4770        pG      BX       lr
    get_round_constant
        0x000039fc:    b580        ..      PUSH     {r7,lr}
        0x000039fe:    b086        ..      SUB      sp,sp,#0x18
        0x00003a00:    a905        ..      ADD      r1,sp,#0x14
        0x00003a02:    7008        .p      STRB     r0,[r1,#0]
        0x00003a04:    2000        .       MOVS     r0,#0
        0x00003a06:    9003        ..      STR      r0,[sp,#0xc]
        0x00003a08:    9002        ..      STR      r0,[sp,#8]
        0x00003a0a:    7809        .x      LDRB     r1,[r1,#0]
        0x00003a0c:    f7ffff5e    ..^.    BL       getConstant ; 0x38cc
        0x00003a10:    4601        .F      MOV      r1,r0
        0x00003a12:    a801        ..      ADD      r0,sp,#4
        0x00003a14:    7001        .p      STRB     r1,[r0,#0]
        0x00003a16:    7800        .x      LDRB     r0,[r0,#0]
        0x00003a18:    0640        @.      LSLS     r0,r0,#25
        0x00003a1a:    2800        .(      CMP      r0,#0
        0x00003a1c:    d506        ..      BPL      0x3a2c ; get_round_constant + 48
        0x00003a1e:    e7ff        ..      B        0x3a20 ; get_round_constant + 36
        0x00003a20:    9803        ..      LDR      r0,[sp,#0xc]
        0x00003a22:    2101        .!      MOVS     r1,#1
        0x00003a24:    07c9        ..      LSLS     r1,r1,#31
        0x00003a26:    4308        .C      ORRS     r0,r0,r1
        0x00003a28:    9003        ..      STR      r0,[sp,#0xc]
        0x00003a2a:    e7ff        ..      B        0x3a2c ; get_round_constant + 48
        0x00003a2c:    a801        ..      ADD      r0,sp,#4
        0x00003a2e:    7800        .x      LDRB     r0,[r0,#0]
        0x00003a30:    0680        ..      LSLS     r0,r0,#26
        0x00003a32:    2800        .(      CMP      r0,#0
        0x00003a34:    d506        ..      BPL      0x3a44 ; get_round_constant + 72
        0x00003a36:    e7ff        ..      B        0x3a38 ; get_round_constant + 60
        0x00003a38:    9802        ..      LDR      r0,[sp,#8]
        0x00003a3a:    2101        .!      MOVS     r1,#1
        0x00003a3c:    07c9        ..      LSLS     r1,r1,#31
        0x00003a3e:    4308        .C      ORRS     r0,r0,r1
        0x00003a40:    9002        ..      STR      r0,[sp,#8]
        0x00003a42:    e7ff        ..      B        0x3a44 ; get_round_constant + 72
        0x00003a44:    a801        ..      ADD      r0,sp,#4
        0x00003a46:    7800        .x      LDRB     r0,[r0,#0]
        0x00003a48:    06c0        ..      LSLS     r0,r0,#27
        0x00003a4a:    2800        .(      CMP      r0,#0
        0x00003a4c:    d506        ..      BPL      0x3a5c ; get_round_constant + 96
        0x00003a4e:    e7ff        ..      B        0x3a50 ; get_round_constant + 84
        0x00003a50:    9802        ..      LDR      r0,[sp,#8]
        0x00003a52:    f2480100    H...    MOVW     r1,#0x8000
        0x00003a56:    4308        .C      ORRS     r0,r0,r1
        0x00003a58:    9002        ..      STR      r0,[sp,#8]
        0x00003a5a:    e7ff        ..      B        0x3a5c ; get_round_constant + 96
        0x00003a5c:    a801        ..      ADD      r0,sp,#4
        0x00003a5e:    7800        .x      LDRB     r0,[r0,#0]
        0x00003a60:    0700        ..      LSLS     r0,r0,#28
        0x00003a62:    2800        .(      CMP      r0,#0
        0x00003a64:    d505        ..      BPL      0x3a72 ; get_round_constant + 118
        0x00003a66:    e7ff        ..      B        0x3a68 ; get_round_constant + 108
        0x00003a68:    9802        ..      LDR      r0,[sp,#8]
        0x00003a6a:    2180        .!      MOVS     r1,#0x80
        0x00003a6c:    4308        .C      ORRS     r0,r0,r1
        0x00003a6e:    9002        ..      STR      r0,[sp,#8]
        0x00003a70:    e7ff        ..      B        0x3a72 ; get_round_constant + 118
        0x00003a72:    a801        ..      ADD      r0,sp,#4
        0x00003a74:    7800        .x      LDRB     r0,[r0,#0]
        0x00003a76:    0740        @.      LSLS     r0,r0,#29
        0x00003a78:    2800        .(      CMP      r0,#0
        0x00003a7a:    d505        ..      BPL      0x3a88 ; get_round_constant + 140
        0x00003a7c:    e7ff        ..      B        0x3a7e ; get_round_constant + 130
        0x00003a7e:    9802        ..      LDR      r0,[sp,#8]
        0x00003a80:    2108        .!      MOVS     r1,#8
        0x00003a82:    4308        .C      ORRS     r0,r0,r1
        0x00003a84:    9002        ..      STR      r0,[sp,#8]
        0x00003a86:    e7ff        ..      B        0x3a88 ; get_round_constant + 140
        0x00003a88:    a801        ..      ADD      r0,sp,#4
        0x00003a8a:    7800        .x      LDRB     r0,[r0,#0]
        0x00003a8c:    0780        ..      LSLS     r0,r0,#30
        0x00003a8e:    2800        .(      CMP      r0,#0
        0x00003a90:    d505        ..      BPL      0x3a9e ; get_round_constant + 162
        0x00003a92:    e7ff        ..      B        0x3a94 ; get_round_constant + 152
        0x00003a94:    9802        ..      LDR      r0,[sp,#8]
        0x00003a96:    2102        .!      MOVS     r1,#2
        0x00003a98:    4308        .C      ORRS     r0,r0,r1
        0x00003a9a:    9002        ..      STR      r0,[sp,#8]
        0x00003a9c:    e7ff        ..      B        0x3a9e ; get_round_constant + 162
        0x00003a9e:    a801        ..      ADD      r0,sp,#4
        0x00003aa0:    7800        .x      LDRB     r0,[r0,#0]
        0x00003aa2:    07c0        ..      LSLS     r0,r0,#31
        0x00003aa4:    b128        (.      CBZ      r0,0x3ab2 ; get_round_constant + 182
        0x00003aa6:    e7ff        ..      B        0x3aa8 ; get_round_constant + 172
        0x00003aa8:    9802        ..      LDR      r0,[sp,#8]
        0x00003aaa:    2101        .!      MOVS     r1,#1
        0x00003aac:    4308        .C      ORRS     r0,r0,r1
        0x00003aae:    9002        ..      STR      r0,[sp,#8]
        0x00003ab0:    e7ff        ..      B        0x3ab2 ; get_round_constant + 182
        0x00003ab2:    9802        ..      LDR      r0,[sp,#8]
        0x00003ab4:    9903        ..      LDR      r1,[sp,#0xc]
        0x00003ab6:    b006        ..      ADD      sp,sp,#0x18
        0x00003ab8:    bd80        ..      POP      {r7,pc}
        0x00003aba:    0000        ..      MOVS     r0,r0
    hexStringToByteArray
        0x00003abc:    b580        ..      PUSH     {r7,lr}
        0x00003abe:    b084        ..      SUB      sp,sp,#0x10
        0x00003ac0:    9003        ..      STR      r0,[sp,#0xc]
        0x00003ac2:    9102        ..      STR      r1,[sp,#8]
        0x00003ac4:    9201        ..      STR      r2,[sp,#4]
        0x00003ac6:    2000        .       MOVS     r0,#0
        0x00003ac8:    9000        ..      STR      r0,[sp,#0]
        0x00003aca:    e7ff        ..      B        0x3acc ; hexStringToByteArray + 16
        0x00003acc:    9800        ..      LDR      r0,[sp,#0]
        0x00003ace:    9901        ..      LDR      r1,[sp,#4]
        0x00003ad0:    4288        .B      CMP      r0,r1
        0x00003ad2:    d20e        ..      BCS      0x3af2 ; hexStringToByteArray + 54
        0x00003ad4:    e7ff        ..      B        0x3ad6 ; hexStringToByteArray + 26
        0x00003ad6:    9803        ..      LDR      r0,[sp,#0xc]
        0x00003ad8:    9a00        ..      LDR      r2,[sp,#0]
        0x00003ada:    0051        Q.      LSLS     r1,r2,#1
        0x00003adc:    1840        @.      ADDS     r0,r0,r1
        0x00003ade:    9902        ..      LDR      r1,[sp,#8]
        0x00003ae0:    188a        ..      ADDS     r2,r1,r2
        0x00003ae2:    4905        .I      LDR      r1,[pc,#20] ; [0x3af8] = 0xab0d
        0x00003ae4:    f7fcfc32    ..2.    BL       sscanf ; 0x34c
        0x00003ae8:    e7ff        ..      B        0x3aea ; hexStringToByteArray + 46
        0x00003aea:    9800        ..      LDR      r0,[sp,#0]
        0x00003aec:    1c40        @.      ADDS     r0,r0,#1
        0x00003aee:    9000        ..      STR      r0,[sp,#0]
        0x00003af0:    e7ec        ..      B        0x3acc ; hexStringToByteArray + 16
        0x00003af2:    b004        ..      ADD      sp,sp,#0x10
        0x00003af4:    bd80        ..      POP      {r7,pc}
        0x00003af6:    46c0        .F      MOV      r8,r8
    $d.9
    __arm_cp.4_0
        0x00003af8:    0000ab0d    ....    DCD    43789
    $t.9
    keccak_chi
        0x00003afc:    b5f0        ..      PUSH     {r4-r7,lr}
        0x00003afe:    b089        ..      SUB      sp,sp,#0x24
        0x00003b00:    9008        ..      STR      r0,[sp,#0x20]
        0x00003b02:    a907        ..      ADD      r1,sp,#0x1c
        0x00003b04:    2000        .       MOVS     r0,#0
        0x00003b06:    7008        .p      STRB     r0,[r1,#0]
        0x00003b08:    e7ff        ..      B        0x3b0a ; keccak_chi + 14
        0x00003b0a:    a807        ..      ADD      r0,sp,#0x1c
        0x00003b0c:    7800        .x      LDRB     r0,[r0,#0]
        0x00003b0e:    2818        .(      CMP      r0,#0x18
        0x00003b10:    dc69        i.      BGT      0x3be6 ; keccak_chi + 234
        0x00003b12:    e7ff        ..      B        0x3b14 ; keccak_chi + 24
        0x00003b14:    9908        ..      LDR      r1,[sp,#0x20]
        0x00003b16:    a807        ..      ADD      r0,sp,#0x1c
        0x00003b18:    7802        .x      LDRB     r2,[r0,#0]
        0x00003b1a:    00d3        ..      LSLS     r3,r2,#3
        0x00003b1c:    18ca        ..      ADDS     r2,r1,r3
        0x00003b1e:    58c9        .X      LDR      r1,[r1,r3]
        0x00003b20:    6852        Rh      LDR      r2,[r2,#4]
        0x00003b22:    9205        ..      STR      r2,[sp,#0x14]
        0x00003b24:    9104        ..      STR      r1,[sp,#0x10]
        0x00003b26:    9a08        ..      LDR      r2,[sp,#0x20]
        0x00003b28:    7801        .x      LDRB     r1,[r0,#0]
        0x00003b2a:    00c9        ..      LSLS     r1,r1,#3
        0x00003b2c:    188a        ..      ADDS     r2,r1,r2
        0x00003b2e:    6891        .h      LDR      r1,[r2,#8]
        0x00003b30:    68d2        .h      LDR      r2,[r2,#0xc]
        0x00003b32:    9203        ..      STR      r2,[sp,#0xc]
        0x00003b34:    9102        ..      STR      r1,[sp,#8]
        0x00003b36:    9903        ..      LDR      r1,[sp,#0xc]
        0x00003b38:    9b02        ..      LDR      r3,[sp,#8]
        0x00003b3a:    9c08        ..      LDR      r4,[sp,#0x20]
        0x00003b3c:    7802        .x      LDRB     r2,[r0,#0]
        0x00003b3e:    00d5        ..      LSLS     r5,r2,#3
        0x00003b40:    1962        b.      ADDS     r2,r4,r5
        0x00003b42:    6957        Wi      LDR      r7,[r2,#0x14]
        0x00003b44:    6916        .i      LDR      r6,[r2,#0x10]
        0x00003b46:    439e        .C      BICS     r6,r6,r3
        0x00003b48:    438f        .C      BICS     r7,r7,r1
        0x00003b4a:    5963        cY      LDR      r3,[r4,r5]
        0x00003b4c:    6851        Qh      LDR      r1,[r2,#4]
        0x00003b4e:    4079        y@      EORS     r1,r1,r7
        0x00003b50:    4073        s@      EORS     r3,r3,r6
        0x00003b52:    5163        cQ      STR      r3,[r4,r5]
        0x00003b54:    6051        Q`      STR      r1,[r2,#4]
        0x00003b56:    9a08        ..      LDR      r2,[sp,#0x20]
        0x00003b58:    7801        .x      LDRB     r1,[r0,#0]
        0x00003b5a:    00c9        ..      LSLS     r1,r1,#3
        0x00003b5c:    188a        ..      ADDS     r2,r1,r2
        0x00003b5e:    9200        ..      STR      r2,[sp,#0]
        0x00003b60:    6911        .i      LDR      r1,[r2,#0x10]
        0x00003b62:    6953        Si      LDR      r3,[r2,#0x14]
        0x00003b64:    6995        .i      LDR      r5,[r2,#0x18]
        0x00003b66:    69d4        .i      LDR      r4,[r2,#0x1c]
        0x00003b68:    439c        .C      BICS     r4,r4,r3
        0x00003b6a:    438d        .C      BICS     r5,r5,r1
        0x00003b6c:    68d3        .h      LDR      r3,[r2,#0xc]
        0x00003b6e:    6891        .h      LDR      r1,[r2,#8]
        0x00003b70:    4069        i@      EORS     r1,r1,r5
        0x00003b72:    4063        c@      EORS     r3,r3,r4
        0x00003b74:    60d3        .`      STR      r3,[r2,#0xc]
        0x00003b76:    6091        .`      STR      r1,[r2,#8]
        0x00003b78:    9a08        ..      LDR      r2,[sp,#0x20]
        0x00003b7a:    7801        .x      LDRB     r1,[r0,#0]
        0x00003b7c:    00c9        ..      LSLS     r1,r1,#3
        0x00003b7e:    188a        ..      ADDS     r2,r1,r2
        0x00003b80:    9201        ..      STR      r2,[sp,#4]
        0x00003b82:    6991        .i      LDR      r1,[r2,#0x18]
        0x00003b84:    69d3        .i      LDR      r3,[r2,#0x1c]
        0x00003b86:    6a15        .j      LDR      r5,[r2,#0x20]
        0x00003b88:    6a54        Tj      LDR      r4,[r2,#0x24]
        0x00003b8a:    439c        .C      BICS     r4,r4,r3
        0x00003b8c:    438d        .C      BICS     r5,r5,r1
        0x00003b8e:    6953        Si      LDR      r3,[r2,#0x14]
        0x00003b90:    6911        .i      LDR      r1,[r2,#0x10]
        0x00003b92:    4069        i@      EORS     r1,r1,r5
        0x00003b94:    4063        c@      EORS     r3,r3,r4
        0x00003b96:    6153        Sa      STR      r3,[r2,#0x14]
        0x00003b98:    6111        .a      STR      r1,[r2,#0x10]
        0x00003b9a:    9a08        ..      LDR      r2,[sp,#0x20]
        0x00003b9c:    7801        .x      LDRB     r1,[r0,#0]
        0x00003b9e:    00c9        ..      LSLS     r1,r1,#3
        0x00003ba0:    188a        ..      ADDS     r2,r1,r2
        0x00003ba2:    6a11        .j      LDR      r1,[r2,#0x20]
        0x00003ba4:    6a53        Sj      LDR      r3,[r2,#0x24]
        0x00003ba6:    9d04        ..      LDR      r5,[sp,#0x10]
        0x00003ba8:    9c05        ..      LDR      r4,[sp,#0x14]
        0x00003baa:    439c        .C      BICS     r4,r4,r3
        0x00003bac:    438d        .C      BICS     r5,r5,r1
        0x00003bae:    69d3        .i      LDR      r3,[r2,#0x1c]
        0x00003bb0:    6991        .i      LDR      r1,[r2,#0x18]
        0x00003bb2:    4069        i@      EORS     r1,r1,r5
        0x00003bb4:    4063        c@      EORS     r3,r3,r4
        0x00003bb6:    61d3        .a      STR      r3,[r2,#0x1c]
        0x00003bb8:    6191        .a      STR      r1,[r2,#0x18]
        0x00003bba:    9904        ..      LDR      r1,[sp,#0x10]
        0x00003bbc:    9a05        ..      LDR      r2,[sp,#0x14]
        0x00003bbe:    9c02        ..      LDR      r4,[sp,#8]
        0x00003bc0:    9b03        ..      LDR      r3,[sp,#0xc]
        0x00003bc2:    4393        .C      BICS     r3,r3,r2
        0x00003bc4:    438c        .C      BICS     r4,r4,r1
        0x00003bc6:    9908        ..      LDR      r1,[sp,#0x20]
        0x00003bc8:    7800        .x      LDRB     r0,[r0,#0]
        0x00003bca:    00c0        ..      LSLS     r0,r0,#3
        0x00003bcc:    1841        A.      ADDS     r1,r0,r1
        0x00003bce:    6a4a        Jj      LDR      r2,[r1,#0x24]
        0x00003bd0:    6a08        .j      LDR      r0,[r1,#0x20]
        0x00003bd2:    4060        `@      EORS     r0,r0,r4
        0x00003bd4:    405a        Z@      EORS     r2,r2,r3
        0x00003bd6:    624a        Jb      STR      r2,[r1,#0x24]
        0x00003bd8:    6208        .b      STR      r0,[r1,#0x20]
        0x00003bda:    e7ff        ..      B        0x3bdc ; keccak_chi + 224
        0x00003bdc:    9807        ..      LDR      r0,[sp,#0x1c]
        0x00003bde:    1d40        @.      ADDS     r0,r0,#5
        0x00003be0:    a907        ..      ADD      r1,sp,#0x1c
        0x00003be2:    7008        .p      STRB     r0,[r1,#0]
        0x00003be4:    e791        ..      B        0x3b0a ; keccak_chi + 14
        0x00003be6:    b009        ..      ADD      sp,sp,#0x24
        0x00003be8:    bdf0        ..      POP      {r4-r7,pc}
    keccak_final
        0x00003bea:    b580        ..      PUSH     {r7,lr}
        0x00003bec:    b084        ..      SUB      sp,sp,#0x10
        0x00003bee:    9003        ..      STR      r0,[sp,#0xc]
        0x00003bf0:    9102        ..      STR      r1,[sp,#8]
        0x00003bf2:    a901        ..      ADD      r1,sp,#4
        0x00003bf4:    2020                MOVS     r0,#0x20
        0x00003bf6:    8008        ..      STRH     r0,[r1,#0]
        0x00003bf8:    9803        ..      LDR      r0,[sp,#0xc]
        0x00003bfa:    f2401188    @...    MOVW     r1,#0x188
        0x00003bfe:    9100        ..      STR      r1,[sp,#0]
        0x00003c00:    5a42        BZ      LDRH     r2,[r0,r1]
        0x00003c02:    1880        ..      ADDS     r0,r0,r2
        0x00003c04:    30c8        .0      ADDS     r0,r0,#0xc8
        0x00003c06:    2188        .!      MOVS     r1,#0x88
        0x00003c08:    1a89        ..      SUBS     r1,r1,r2
        0x00003c0a:    f7fcfb79    ..y.    BL       __aeabi_memclr ; 0x300
        0x00003c0e:    9900        ..      LDR      r1,[sp,#0]
        0x00003c10:    9803        ..      LDR      r0,[sp,#0xc]
        0x00003c12:    5a41        AZ      LDRH     r1,[r0,r1]
        0x00003c14:    1841        A.      ADDS     r1,r0,r1
        0x00003c16:    22c8        ."      MOVS     r2,#0xc8
        0x00003c18:    5c88        .\      LDRB     r0,[r1,r2]
        0x00003c1a:    2301        .#      MOVS     r3,#1
        0x00003c1c:    4318        .C      ORRS     r0,r0,r3
        0x00003c1e:    5488        .T      STRB     r0,[r1,r2]
        0x00003c20:    9903        ..      LDR      r1,[sp,#0xc]
        0x00003c22:    f240124f    @.O.    MOV      r2,#0x14f
        0x00003c26:    5c88        .\      LDRB     r0,[r1,r2]
        0x00003c28:    2380        .#      MOVS     r3,#0x80
        0x00003c2a:    4318        .C      ORRS     r0,r0,r3
        0x00003c2c:    5488        .T      STRB     r0,[r1,r2]
        0x00003c2e:    9803        ..      LDR      r0,[sp,#0xc]
        0x00003c30:    4601        .F      MOV      r1,r0
        0x00003c32:    31c8        .1      ADDS     r1,r1,#0xc8
        0x00003c34:    f000fcd8    ....    BL       sha3_process_block ; 0x45e8
        0x00003c38:    9802        ..      LDR      r0,[sp,#8]
        0x00003c3a:    b138        8.      CBZ      r0,0x3c4c ; keccak_final + 98
        0x00003c3c:    e7ff        ..      B        0x3c3e ; keccak_final + 84
        0x00003c3e:    9802        ..      LDR      r0,[sp,#8]
        0x00003c40:    9903        ..      LDR      r1,[sp,#0xc]
        0x00003c42:    aa01        ..      ADD      r2,sp,#4
        0x00003c44:    8812        ..      LDRH     r2,[r2,#0]
        0x00003c46:    f7fcfb42    ..B.    BL       __aeabi_memcpy ; 0x2ce
        0x00003c4a:    e7ff        ..      B        0x3c4c ; keccak_final + 98
        0x00003c4c:    b004        ..      ADD      sp,sp,#0x10
        0x00003c4e:    bd80        ..      POP      {r7,pc}
    keccak_init
        0x00003c50:    b580        ..      PUSH     {r7,lr}
        0x00003c52:    b082        ..      SUB      sp,sp,#8
        0x00003c54:    9001        ..      STR      r0,[sp,#4]
        0x00003c56:    9801        ..      LDR      r0,[sp,#4]
        0x00003c58:    f2401190    @...    MOVW     r1,#0x190
        0x00003c5c:    f7fcfb50    ..P.    BL       __aeabi_memclr ; 0x300
        0x00003c60:    b002        ..      ADD      sp,sp,#8
        0x00003c62:    bd80        ..      POP      {r7,pc}
    keccak_pi
        0x00003c64:    b510        ..      PUSH     {r4,lr}
        0x00003c66:    b08a        ..      SUB      sp,sp,#0x28
        0x00003c68:    9009        ..      STR      r0,[sp,#0x24]
        0x00003c6a:    9909        ..      LDR      r1,[sp,#0x24]
        0x00003c6c:    6888        .h      LDR      r0,[r1,#8]
        0x00003c6e:    68c9        .h      LDR      r1,[r1,#0xc]
        0x00003c70:    9107        ..      STR      r1,[sp,#0x1c]
        0x00003c72:    9006        ..      STR      r0,[sp,#0x18]
        0x00003c74:    a905        ..      ADD      r1,sp,#0x14
        0x00003c76:    2001        .       MOVS     r0,#1
        0x00003c78:    7008        .p      STRB     r0,[r1,#0]
        0x00003c7a:    e7ff        ..      B        0x3c7c ; keccak_pi + 24
        0x00003c7c:    a805        ..      ADD      r0,sp,#0x14
        0x00003c7e:    7800        .x      LDRB     r0,[r0,#0]
        0x00003c80:    2817        .(      CMP      r0,#0x17
        0x00003c82:    dc26        &.      BGT      0x3cd2 ; keccak_pi + 110
        0x00003c84:    e7ff        ..      B        0x3c86 ; keccak_pi + 34
        0x00003c86:    9809        ..      LDR      r0,[sp,#0x24]
        0x00003c88:    9000        ..      STR      r0,[sp,#0]
        0x00003c8a:    a805        ..      ADD      r0,sp,#0x14
        0x00003c8c:    7801        .x      LDRB     r1,[r0,#0]
        0x00003c8e:    2018        .       MOVS     r0,#0x18
        0x00003c90:    9001        ..      STR      r0,[sp,#4]
        0x00003c92:    f7fffe1b    ....    BL       getConstant ; 0x38cc
        0x00003c96:    9900        ..      LDR      r1,[sp,#0]
        0x00003c98:    4602        .F      MOV      r2,r0
        0x00003c9a:    9801        ..      LDR      r0,[sp,#4]
        0x00003c9c:    00d2        ..      LSLS     r2,r2,#3
        0x00003c9e:    188b        ..      ADDS     r3,r1,r2
        0x00003ca0:    685b        [h      LDR      r3,[r3,#4]
        0x00003ca2:    9304        ..      STR      r3,[sp,#0x10]
        0x00003ca4:    5889        .X      LDR      r1,[r1,r2]
        0x00003ca6:    9103        ..      STR      r1,[sp,#0xc]
        0x00003ca8:    9909        ..      LDR      r1,[sp,#0x24]
        0x00003caa:    9102        ..      STR      r1,[sp,#8]
        0x00003cac:    9905        ..      LDR      r1,[sp,#0x14]
        0x00003cae:    1e49        I.      SUBS     r1,r1,#1
        0x00003cb0:    b2c9        ..      UXTB     r1,r1
        0x00003cb2:    f7fffe0b    ....    BL       getConstant ; 0x38cc
        0x00003cb6:    9b02        ..      LDR      r3,[sp,#8]
        0x00003cb8:    9a03        ..      LDR      r2,[sp,#0xc]
        0x00003cba:    4601        .F      MOV      r1,r0
        0x00003cbc:    9804        ..      LDR      r0,[sp,#0x10]
        0x00003cbe:    00cc        ..      LSLS     r4,r1,#3
        0x00003cc0:    1919        ..      ADDS     r1,r3,r4
        0x00003cc2:    511a        .Q      STR      r2,[r3,r4]
        0x00003cc4:    6048        H`      STR      r0,[r1,#4]
        0x00003cc6:    e7ff        ..      B        0x3cc8 ; keccak_pi + 100
        0x00003cc8:    9805        ..      LDR      r0,[sp,#0x14]
        0x00003cca:    1c40        @.      ADDS     r0,r0,#1
        0x00003ccc:    a905        ..      ADD      r1,sp,#0x14
        0x00003cce:    7008        .p      STRB     r0,[r1,#0]
        0x00003cd0:    e7d4        ..      B        0x3c7c ; keccak_pi + 24
        0x00003cd2:    9806        ..      LDR      r0,[sp,#0x18]
        0x00003cd4:    9a07        ..      LDR      r2,[sp,#0x1c]
        0x00003cd6:    9909        ..      LDR      r1,[sp,#0x24]
        0x00003cd8:    654a        Je      STR      r2,[r1,#0x54]
        0x00003cda:    6508        .e      STR      r0,[r1,#0x50]
        0x00003cdc:    b00a        ..      ADD      sp,sp,#0x28
        0x00003cde:    bd10        ..      POP      {r4,pc}
    keccak_theta
        0x00003ce0:    b570        p.      PUSH     {r4-r6,lr}
        0x00003ce2:    b09c        ..      SUB      sp,sp,#0x70
        0x00003ce4:    901b        ..      STR      r0,[sp,#0x6c]
        0x00003ce6:    a905        ..      ADD      r1,sp,#0x14
        0x00003ce8:    2000        .       MOVS     r0,#0
        0x00003cea:    7008        .p      STRB     r0,[r1,#0]
        0x00003cec:    e7ff        ..      B        0x3cee ; keccak_theta + 14
        0x00003cee:    a805        ..      ADD      r0,sp,#0x14
        0x00003cf0:    7800        .x      LDRB     r0,[r0,#0]
        0x00003cf2:    2804        .(      CMP      r0,#4
        0x00003cf4:    dc33        3.      BGT      0x3d5e ; keccak_theta + 126
        0x00003cf6:    e7ff        ..      B        0x3cf8 ; keccak_theta + 24
        0x00003cf8:    991b        ..      LDR      r1,[sp,#0x6c]
        0x00003cfa:    a805        ..      ADD      r0,sp,#0x14
        0x00003cfc:    7800        .x      LDRB     r0,[r0,#0]
        0x00003cfe:    00c4        ..      LSLS     r4,r0,#3
        0x00003d00:    1908        ..      ADDS     r0,r1,r4
        0x00003d02:    6840        @h      LDR      r0,[r0,#4]
        0x00003d04:    590a        .Y      LDR      r2,[r1,r4]
        0x00003d06:    ab10        ..      ADD      r3,sp,#0x40
        0x00003d08:    1919        ..      ADDS     r1,r3,r4
        0x00003d0a:    511a        .Q      STR      r2,[r3,r4]
        0x00003d0c:    6048        H`      STR      r0,[r1,#4]
        0x00003d0e:    a904        ..      ADD      r1,sp,#0x10
        0x00003d10:    2005        .       MOVS     r0,#5
        0x00003d12:    7008        .p      STRB     r0,[r1,#0]
        0x00003d14:    e7ff        ..      B        0x3d16 ; keccak_theta + 54
        0x00003d16:    a804        ..      ADD      r0,sp,#0x10
        0x00003d18:    7800        .x      LDRB     r0,[r0,#0]
        0x00003d1a:    2818        .(      CMP      r0,#0x18
        0x00003d1c:    dc19        ..      BGT      0x3d52 ; keccak_theta + 114
        0x00003d1e:    e7ff        ..      B        0x3d20 ; keccak_theta + 64
        0x00003d20:    9a1b        ..      LDR      r2,[sp,#0x6c]
        0x00003d22:    a805        ..      ADD      r0,sp,#0x14
        0x00003d24:    7800        .x      LDRB     r0,[r0,#0]
        0x00003d26:    a904        ..      ADD      r1,sp,#0x10
        0x00003d28:    7809        .x      LDRB     r1,[r1,#0]
        0x00003d2a:    1841        A.      ADDS     r1,r0,r1
        0x00003d2c:    00cb        ..      LSLS     r3,r1,#3
        0x00003d2e:    18d1        ..      ADDS     r1,r2,r3
        0x00003d30:    58d5        .X      LDR      r5,[r2,r3]
        0x00003d32:    684e        Nh      LDR      r6,[r1,#4]
        0x00003d34:    00c4        ..      LSLS     r4,r0,#3
        0x00003d36:    ab10        ..      ADD      r3,sp,#0x40
        0x00003d38:    1919        ..      ADDS     r1,r3,r4
        0x00003d3a:    591a        .Y      LDR      r2,[r3,r4]
        0x00003d3c:    6848        Hh      LDR      r0,[r1,#4]
        0x00003d3e:    4070        p@      EORS     r0,r0,r6
        0x00003d40:    406a        j@      EORS     r2,r2,r5
        0x00003d42:    511a        .Q      STR      r2,[r3,r4]
        0x00003d44:    6048        H`      STR      r0,[r1,#4]
        0x00003d46:    e7ff        ..      B        0x3d48 ; keccak_theta + 104
        0x00003d48:    9804        ..      LDR      r0,[sp,#0x10]
        0x00003d4a:    1d40        @.      ADDS     r0,r0,#5
        0x00003d4c:    a904        ..      ADD      r1,sp,#0x10
        0x00003d4e:    7008        .p      STRB     r0,[r1,#0]
        0x00003d50:    e7e1        ..      B        0x3d16 ; keccak_theta + 54
        0x00003d52:    e7ff        ..      B        0x3d54 ; keccak_theta + 116
        0x00003d54:    9805        ..      LDR      r0,[sp,#0x14]
        0x00003d56:    1c40        @.      ADDS     r0,r0,#1
        0x00003d58:    a905        ..      ADD      r1,sp,#0x14
        0x00003d5a:    7008        .p      STRB     r0,[r1,#0]
        0x00003d5c:    e7c7        ..      B        0x3cee ; keccak_theta + 14
        0x00003d5e:    a903        ..      ADD      r1,sp,#0xc
        0x00003d60:    2000        .       MOVS     r0,#0
        0x00003d62:    7008        .p      STRB     r0,[r1,#0]
        0x00003d64:    e7ff        ..      B        0x3d66 ; keccak_theta + 134
        0x00003d66:    a803        ..      ADD      r0,sp,#0xc
        0x00003d68:    7800        .x      LDRB     r0,[r0,#0]
        0x00003d6a:    2804        .(      CMP      r0,#4
        0x00003d6c:    dc2a        *.      BGT      0x3dc4 ; keccak_theta + 228
        0x00003d6e:    e7ff        ..      B        0x3d70 ; keccak_theta + 144
        0x00003d70:    a803        ..      ADD      r0,sp,#0xc
        0x00003d72:    7801        .x      LDRB     r1,[r0,#0]
        0x00003d74:    1c48        H.      ADDS     r0,r1,#1
        0x00003d76:    2505        .%      MOVS     r5,#5
        0x00003d78:    fbb0f3f5    ....    UDIV     r3,r0,r5
        0x00003d7c:    462a        *F      MOV      r2,r5
        0x00003d7e:    435a        ZC      MULS     r2,r3,r2
        0x00003d80:    1a80        ..      SUBS     r0,r0,r2
        0x00003d82:    00c2        ..      LSLS     r2,r0,#3
        0x00003d84:    ab10        ..      ADD      r3,sp,#0x40
        0x00003d86:    1898        ..      ADDS     r0,r3,r2
        0x00003d88:    6840        @h      LDR      r0,[r0,#4]
        0x00003d8a:    589c        .X      LDR      r4,[r3,r2]
        0x00003d8c:    0062        b.      LSLS     r2,r4,#1
        0x00003d8e:    0fc6        ..      LSRS     r6,r0,#31
        0x00003d90:    1992        ..      ADDS     r2,r2,r6
        0x00003d92:    0fe4        ..      LSRS     r4,r4,#31
        0x00003d94:    0040        @.      LSLS     r0,r0,#1
        0x00003d96:    1900        ..      ADDS     r0,r0,r4
        0x00003d98:    1d0c        ..      ADDS     r4,r1,#4
        0x00003d9a:    fbb4f6f5    ....    UDIV     r6,r4,r5
        0x00003d9e:    4375        uC      MULS     r5,r6,r5
        0x00003da0:    1b64        d.      SUBS     r4,r4,r5
        0x00003da2:    00e5        ..      LSLS     r5,r4,#3
        0x00003da4:    195c        \.      ADDS     r4,r3,r5
        0x00003da6:    595b        [Y      LDR      r3,[r3,r5]
        0x00003da8:    6864        dh      LDR      r4,[r4,#4]
        0x00003daa:    4060        `@      EORS     r0,r0,r4
        0x00003dac:    405a        Z@      EORS     r2,r2,r3
        0x00003dae:    00cc        ..      LSLS     r4,r1,#3
        0x00003db0:    ab06        ..      ADD      r3,sp,#0x18
        0x00003db2:    1919        ..      ADDS     r1,r3,r4
        0x00003db4:    511a        .Q      STR      r2,[r3,r4]
        0x00003db6:    6048        H`      STR      r0,[r1,#4]
        0x00003db8:    e7ff        ..      B        0x3dba ; keccak_theta + 218
        0x00003dba:    9803        ..      LDR      r0,[sp,#0xc]
        0x00003dbc:    1c40        @.      ADDS     r0,r0,#1
        0x00003dbe:    a903        ..      ADD      r1,sp,#0xc
        0x00003dc0:    7008        .p      STRB     r0,[r1,#0]
        0x00003dc2:    e7d0        ..      B        0x3d66 ; keccak_theta + 134
        0x00003dc4:    a902        ..      ADD      r1,sp,#8
        0x00003dc6:    2000        .       MOVS     r0,#0
        0x00003dc8:    7008        .p      STRB     r0,[r1,#0]
        0x00003dca:    e7ff        ..      B        0x3dcc ; keccak_theta + 236
        0x00003dcc:    a802        ..      ADD      r0,sp,#8
        0x00003dce:    7800        .x      LDRB     r0,[r0,#0]
        0x00003dd0:    2804        .(      CMP      r0,#4
        0x00003dd2:    dc28        (.      BGT      0x3e26 ; keccak_theta + 326
        0x00003dd4:    e7ff        ..      B        0x3dd6 ; keccak_theta + 246
        0x00003dd6:    a901        ..      ADD      r1,sp,#4
        0x00003dd8:    2000        .       MOVS     r0,#0
        0x00003dda:    7008        .p      STRB     r0,[r1,#0]
        0x00003ddc:    e7ff        ..      B        0x3dde ; keccak_theta + 254
        0x00003dde:    a801        ..      ADD      r0,sp,#4
        0x00003de0:    7800        .x      LDRB     r0,[r0,#0]
        0x00003de2:    2818        .(      CMP      r0,#0x18
        0x00003de4:    dc19        ..      BGT      0x3e1a ; keccak_theta + 314
        0x00003de6:    e7ff        ..      B        0x3de8 ; keccak_theta + 264
        0x00003de8:    a802        ..      ADD      r0,sp,#8
        0x00003dea:    7800        .x      LDRB     r0,[r0,#0]
        0x00003dec:    00c3        ..      LSLS     r3,r0,#3
        0x00003dee:    aa06        ..      ADD      r2,sp,#0x18
        0x00003df0:    18d1        ..      ADDS     r1,r2,r3
        0x00003df2:    58d5        .X      LDR      r5,[r2,r3]
        0x00003df4:    684e        Nh      LDR      r6,[r1,#4]
        0x00003df6:    9b1b        ..      LDR      r3,[sp,#0x6c]
        0x00003df8:    a901        ..      ADD      r1,sp,#4
        0x00003dfa:    7809        .x      LDRB     r1,[r1,#0]
        0x00003dfc:    1840        @.      ADDS     r0,r0,r1
        0x00003dfe:    00c4        ..      LSLS     r4,r0,#3
        0x00003e00:    1919        ..      ADDS     r1,r3,r4
        0x00003e02:    591a        .Y      LDR      r2,[r3,r4]
        0x00003e04:    6848        Hh      LDR      r0,[r1,#4]
        0x00003e06:    4070        p@      EORS     r0,r0,r6
        0x00003e08:    406a        j@      EORS     r2,r2,r5
        0x00003e0a:    511a        .Q      STR      r2,[r3,r4]
        0x00003e0c:    6048        H`      STR      r0,[r1,#4]
        0x00003e0e:    e7ff        ..      B        0x3e10 ; keccak_theta + 304
        0x00003e10:    9801        ..      LDR      r0,[sp,#4]
        0x00003e12:    1d40        @.      ADDS     r0,r0,#5
        0x00003e14:    a901        ..      ADD      r1,sp,#4
        0x00003e16:    7008        .p      STRB     r0,[r1,#0]
        0x00003e18:    e7e1        ..      B        0x3dde ; keccak_theta + 254
        0x00003e1a:    e7ff        ..      B        0x3e1c ; keccak_theta + 316
        0x00003e1c:    9802        ..      LDR      r0,[sp,#8]
        0x00003e1e:    1c40        @.      ADDS     r0,r0,#1
        0x00003e20:    a902        ..      ADD      r1,sp,#8
        0x00003e22:    7008        .p      STRB     r0,[r1,#0]
        0x00003e24:    e7d2        ..      B        0x3dcc ; keccak_theta + 236
        0x00003e26:    b01c        ..      ADD      sp,sp,#0x70
        0x00003e28:    bd70        p.      POP      {r4-r6,pc}
    keccak_update
        0x00003e2a:    b5b0        ..      PUSH     {r4,r5,r7,lr}
        0x00003e2c:    b08a        ..      SUB      sp,sp,#0x28
        0x00003e2e:    9009        ..      STR      r0,[sp,#0x24]
        0x00003e30:    9108        ..      STR      r1,[sp,#0x20]
        0x00003e32:    ac07        ..      ADD      r4,sp,#0x1c
        0x00003e34:    8022        ".      STRH     r2,[r4,#0]
        0x00003e36:    9809        ..      LDR      r0,[sp,#0x24]
        0x00003e38:    f2401388    @...    MOVW     r3,#0x188
        0x00003e3c:    5ac1        .Z      LDRH     r1,[r0,r3]
        0x00003e3e:    a806        ..      ADD      r0,sp,#0x18
        0x00003e40:    8001        ..      STRH     r1,[r0,#0]
        0x00003e42:    9a09        ..      LDR      r2,[sp,#0x24]
        0x00003e44:    5ad1        .Z      LDRH     r1,[r2,r3]
        0x00003e46:    8824        $.      LDRH     r4,[r4,#0]
        0x00003e48:    1909        ..      ADDS     r1,r1,r4
        0x00003e4a:    2488        .$      MOVS     r4,#0x88
        0x00003e4c:    fbb1f5f4    ....    UDIV     r5,r1,r4
        0x00003e50:    436c        lC      MULS     r4,r5,r4
        0x00003e52:    1b09        ..      SUBS     r1,r1,r4
        0x00003e54:    52d1        .R      STRH     r1,[r2,r3]
        0x00003e56:    8800        ..      LDRH     r0,[r0,#0]
        0x00003e58:    b3c0        ..      CBZ      r0,0x3ecc ; keccak_update + 162
        0x00003e5a:    e7ff        ..      B        0x3e5c ; keccak_update + 50
        0x00003e5c:    9906        ..      LDR      r1,[sp,#0x18]
        0x00003e5e:    2088        .       MOVS     r0,#0x88
        0x00003e60:    1a40        @.      SUBS     r0,r0,r1
        0x00003e62:    a905        ..      ADD      r1,sp,#0x14
        0x00003e64:    8008        ..      STRH     r0,[r1,#0]
        0x00003e66:    9809        ..      LDR      r0,[sp,#0x24]
        0x00003e68:    aa06        ..      ADD      r2,sp,#0x18
        0x00003e6a:    8812        ..      LDRH     r2,[r2,#0]
        0x00003e6c:    1880        ..      ADDS     r0,r0,r2
        0x00003e6e:    30c8        .0      ADDS     r0,r0,#0xc8
        0x00003e70:    9002        ..      STR      r0,[sp,#8]
        0x00003e72:    9808        ..      LDR      r0,[sp,#0x20]
        0x00003e74:    9003        ..      STR      r0,[sp,#0xc]
        0x00003e76:    a807        ..      ADD      r0,sp,#0x1c
        0x00003e78:    8800        ..      LDRH     r0,[r0,#0]
        0x00003e7a:    8809        ..      LDRH     r1,[r1,#0]
        0x00003e7c:    4288        .B      CMP      r0,r1
        0x00003e7e:    da04        ..      BGE      0x3e8a ; keccak_update + 96
        0x00003e80:    e7ff        ..      B        0x3e82 ; keccak_update + 88
        0x00003e82:    a807        ..      ADD      r0,sp,#0x1c
        0x00003e84:    8800        ..      LDRH     r0,[r0,#0]
        0x00003e86:    9001        ..      STR      r0,[sp,#4]
        0x00003e88:    e003        ..      B        0x3e92 ; keccak_update + 104
        0x00003e8a:    a805        ..      ADD      r0,sp,#0x14
        0x00003e8c:    8800        ..      LDRH     r0,[r0,#0]
        0x00003e8e:    9001        ..      STR      r0,[sp,#4]
        0x00003e90:    e7ff        ..      B        0x3e92 ; keccak_update + 104
        0x00003e92:    9903        ..      LDR      r1,[sp,#0xc]
        0x00003e94:    9802        ..      LDR      r0,[sp,#8]
        0x00003e96:    9a01        ..      LDR      r2,[sp,#4]
        0x00003e98:    f7fcfa19    ....    BL       __aeabi_memcpy ; 0x2ce
        0x00003e9c:    a807        ..      ADD      r0,sp,#0x1c
        0x00003e9e:    8800        ..      LDRH     r0,[r0,#0]
        0x00003ea0:    a905        ..      ADD      r1,sp,#0x14
        0x00003ea2:    8809        ..      LDRH     r1,[r1,#0]
        0x00003ea4:    4288        .B      CMP      r0,r1
        0x00003ea6:    da01        ..      BGE      0x3eac ; keccak_update + 130
        0x00003ea8:    e7ff        ..      B        0x3eaa ; keccak_update + 128
        0x00003eaa:    e03f        ?.      B        0x3f2c ; keccak_update + 258
        0x00003eac:    9809        ..      LDR      r0,[sp,#0x24]
        0x00003eae:    4601        .F      MOV      r1,r0
        0x00003eb0:    31c8        .1      ADDS     r1,r1,#0xc8
        0x00003eb2:    f000fb99    ....    BL       sha3_process_block ; 0x45e8
        0x00003eb6:    a805        ..      ADD      r0,sp,#0x14
        0x00003eb8:    8801        ..      LDRH     r1,[r0,#0]
        0x00003eba:    9808        ..      LDR      r0,[sp,#0x20]
        0x00003ebc:    1840        @.      ADDS     r0,r0,r1
        0x00003ebe:    9008        ..      STR      r0,[sp,#0x20]
        0x00003ec0:    9905        ..      LDR      r1,[sp,#0x14]
        0x00003ec2:    9807        ..      LDR      r0,[sp,#0x1c]
        0x00003ec4:    1a40        @.      SUBS     r0,r0,r1
        0x00003ec6:    a907        ..      ADD      r1,sp,#0x1c
        0x00003ec8:    8008        ..      STRH     r0,[r1,#0]
        0x00003eca:    e7ff        ..      B        0x3ecc ; keccak_update + 162
        0x00003ecc:    e7ff        ..      B        0x3ece ; keccak_update + 164
        0x00003ece:    a807        ..      ADD      r0,sp,#0x1c
        0x00003ed0:    8800        ..      LDRH     r0,[r0,#0]
        0x00003ed2:    2888        .(      CMP      r0,#0x88
        0x00003ed4:    db1e        ..      BLT      0x3f14 ; keccak_update + 234
        0x00003ed6:    e7ff        ..      B        0x3ed8 ; keccak_update + 174
        0x00003ed8:    a808        ..      ADD      r0,sp,#0x20
        0x00003eda:    7800        .x      LDRB     r0,[r0,#0]
        0x00003edc:    0740        @.      LSLS     r0,r0,#29
        0x00003ede:    b918        ..      CBNZ     r0,0x3ee8 ; keccak_update + 190
        0x00003ee0:    e7ff        ..      B        0x3ee2 ; keccak_update + 184
        0x00003ee2:    9808        ..      LDR      r0,[sp,#0x20]
        0x00003ee4:    9004        ..      STR      r0,[sp,#0x10]
        0x00003ee6:    e009        ..      B        0x3efc ; keccak_update + 210
        0x00003ee8:    9809        ..      LDR      r0,[sp,#0x24]
        0x00003eea:    30c8        .0      ADDS     r0,r0,#0xc8
        0x00003eec:    9908        ..      LDR      r1,[sp,#0x20]
        0x00003eee:    2288        ."      MOVS     r2,#0x88
        0x00003ef0:    f7fcf9ed    ....    BL       __aeabi_memcpy ; 0x2ce
        0x00003ef4:    9809        ..      LDR      r0,[sp,#0x24]
        0x00003ef6:    30c8        .0      ADDS     r0,r0,#0xc8
        0x00003ef8:    9004        ..      STR      r0,[sp,#0x10]
        0x00003efa:    e7ff        ..      B        0x3efc ; keccak_update + 210
        0x00003efc:    9809        ..      LDR      r0,[sp,#0x24]
        0x00003efe:    9904        ..      LDR      r1,[sp,#0x10]
        0x00003f00:    f000fb72    ..r.    BL       sha3_process_block ; 0x45e8
        0x00003f04:    9808        ..      LDR      r0,[sp,#0x20]
        0x00003f06:    3088        .0      ADDS     r0,r0,#0x88
        0x00003f08:    9008        ..      STR      r0,[sp,#0x20]
        0x00003f0a:    9807        ..      LDR      r0,[sp,#0x1c]
        0x00003f0c:    3888        .8      SUBS     r0,r0,#0x88
        0x00003f0e:    a907        ..      ADD      r1,sp,#0x1c
        0x00003f10:    8008        ..      STRH     r0,[r1,#0]
        0x00003f12:    e7dc        ..      B        0x3ece ; keccak_update + 164
        0x00003f14:    a807        ..      ADD      r0,sp,#0x1c
        0x00003f16:    8800        ..      LDRH     r0,[r0,#0]
        0x00003f18:    b140        @.      CBZ      r0,0x3f2c ; keccak_update + 258
        0x00003f1a:    e7ff        ..      B        0x3f1c ; keccak_update + 242
        0x00003f1c:    9809        ..      LDR      r0,[sp,#0x24]
        0x00003f1e:    30c8        .0      ADDS     r0,r0,#0xc8
        0x00003f20:    9908        ..      LDR      r1,[sp,#0x20]
        0x00003f22:    aa07        ..      ADD      r2,sp,#0x1c
        0x00003f24:    8812        ..      LDRH     r2,[r2,#0]
        0x00003f26:    f7fcf9d2    ....    BL       __aeabi_memcpy ; 0x2ce
        0x00003f2a:    e7ff        ..      B        0x3f2c ; keccak_update + 258
        0x00003f2c:    b00a        ..      ADD      sp,sp,#0x28
        0x00003f2e:    bdb0        ..      POP      {r4,r5,r7,pc}
    main
        0x00003f30:    b570        p.      PUSH     {r4-r6,lr}
        0x00003f32:    b0ff        ..      SUB      sp,sp,#0x1fc
        0x00003f34:    b0ff        ..      SUB      sp,sp,#0x1fc
        0x00003f36:    b0c4        ..      SUB      sp,sp,#0x110
        0x00003f38:    a9ff        ..      ADD      r1,sp,#0x3fc
        0x00003f3a:    31a0        .1      ADDS     r1,r1,#0xa0
        0x00003f3c:    911a        ..      STR      r1,[sp,#0x68]
        0x00003f3e:    2000        .       MOVS     r0,#0
        0x00003f40:    9019        ..      STR      r0,[sp,#0x64]
        0x00003f42:    6688        .f      STR      r0,[r1,#0x68]
        0x00003f44:    a8ff        ..      ADD      r0,sp,#0x3fc
        0x00003f46:    30a0        .0      ADDS     r0,r0,#0xa0
        0x00003f48:    2148        H!      MOVS     r1,#0x48
        0x00003f4a:    f7fcf9d9    ....    BL       __aeabi_memclr ; 0x300
        0x00003f4e:    49f8        .I      LDR      r1,[pc,#992] ; [0x4330] = 0xaac7
        0x00003f50:    a8ff        ..      ADD      r0,sp,#0x3fc
        0x00003f52:    305c        \0      ADDS     r0,r0,#0x5c
        0x00003f54:    9017        ..      STR      r0,[sp,#0x5c]
        0x00003f56:    2241        A"      MOVS     r2,#0x41
        0x00003f58:    9216        ..      STR      r2,[sp,#0x58]
        0x00003f5a:    f7fcf9b8    ....    BL       __aeabi_memcpy ; 0x2ce
        0x00003f5e:    9a16        ..      LDR      r2,[sp,#0x58]
        0x00003f60:    49f4        .I      LDR      r1,[pc,#976] ; [0x4334] = 0xaa86
        0x00003f62:    a8ff        ..      ADD      r0,sp,#0x3fc
        0x00003f64:    3018        .0      ADDS     r0,r0,#0x18
        0x00003f66:    f7fcf9b2    ....    BL       __aeabi_memcpy ; 0x2ce
        0x00003f6a:    9a16        ..      LDR      r2,[sp,#0x58]
        0x00003f6c:    49f1        .I      LDR      r1,[pc,#964] ; [0x4334] = 0xaa86
        0x00003f6e:    a8f4        ..      ADD      r0,sp,#0x3d0
        0x00003f70:    f7fcf9ad    ....    BL       __aeabi_memcpy ; 0x2ce
        0x00003f74:    9a16        ..      LDR      r2,[sp,#0x58]
        0x00003f76:    49ef        .I      LDR      r1,[pc,#956] ; [0x4334] = 0xaa86
        0x00003f78:    a8e3        ..      ADD      r0,sp,#0x38c
        0x00003f7a:    f7fcf9a8    ....    BL       __aeabi_memcpy ; 0x2ce
        0x00003f7e:    9a16        ..      LDR      r2,[sp,#0x58]
        0x00003f80:    49ec        .I      LDR      r1,[pc,#944] ; [0x4334] = 0xaa86
        0x00003f82:    a8d2        ..      ADD      r0,sp,#0x348
        0x00003f84:    f7fcf9a3    ....    BL       __aeabi_memcpy ; 0x2ce
        0x00003f88:    9a16        ..      LDR      r2,[sp,#0x58]
        0x00003f8a:    49ea        .I      LDR      r1,[pc,#936] ; [0x4334] = 0xaa86
        0x00003f8c:    a8c1        ..      ADD      r0,sp,#0x304
        0x00003f8e:    f7fcf99e    ....    BL       __aeabi_memcpy ; 0x2ce
        0x00003f92:    9a16        ..      LDR      r2,[sp,#0x58]
        0x00003f94:    49e7        .I      LDR      r1,[pc,#924] ; [0x4334] = 0xaa86
        0x00003f96:    a8b0        ..      ADD      r0,sp,#0x2c0
        0x00003f98:    f7fcf999    ....    BL       __aeabi_memcpy ; 0x2ce
        0x00003f9c:    9819        ..      LDR      r0,[sp,#0x64]
        0x00003f9e:    90af        ..      STR      r0,[sp,#0x2bc]
        0x00003fa0:    90ae        ..      STR      r0,[sp,#0x2b8]
        0x00003fa2:    90ad        ..      STR      r0,[sp,#0x2b4]
        0x00003fa4:    90ac        ..      STR      r0,[sp,#0x2b0]
        0x00003fa6:    90ab        ..      STR      r0,[sp,#0x2ac]
        0x00003fa8:    90aa        ..      STR      r0,[sp,#0x2a8]
        0x00003faa:    90a9        ..      STR      r0,[sp,#0x2a4]
        0x00003fac:    90a8        ..      STR      r0,[sp,#0x2a0]
        0x00003fae:    f7fff951    ..Q.    BL       SYS_UnlockReg ; 0x3254
        0x00003fb2:    f7fff8f9    ....    BL       SYS_Init ; 0x31a8
        0x00003fb6:    f7fff9df    ....    BL       UART_Init ; 0x3378
        0x00003fba:    48df        .H      LDR      r0,[pc,#892] ; [0x4338] = 0x20000008
        0x00003fbc:    6801        .h      LDR      r1,[r0,#0]
        0x00003fbe:    48df        .H      LDR      r0,[pc,#892] ; [0x433c] = 0xaa69
        0x00003fc0:    f000fb3a    ..:.    BL       __0printf ; 0x4638
        0x00003fc4:    f7fefd02    ....    BL       KS_Open ; 0x29cc
        0x00003fc8:    2047        G       MOVS     r0,#0x47
        0x00003fca:    f7fffb0d    ....    BL       __NVIC_EnableIRQ ; 0x35e8
        0x00003fce:    9817        ..      LDR      r0,[sp,#0x5c]
        0x00003fd0:    4adb        .J      LDR      r2,[pc,#876] ; [0x4340] = 0x40032000
        0x00003fd2:    6811        .h      LDR      r1,[r2,#0]
        0x00003fd4:    2303        .#      MOVS     r3,#3
        0x00003fd6:    059c        ..      LSLS     r4,r3,#22
        0x00003fd8:    4321        !C      ORRS     r1,r1,r4
        0x00003fda:    6011        .`      STR      r1,[r2,#0]
        0x00003fdc:    6811        .h      LDR      r1,[r2,#0]
        0x00003fde:    061b        ..      LSLS     r3,r3,#24
        0x00003fe0:    4319        .C      ORRS     r1,r1,r3
        0x00003fe2:    6011        .`      STR      r1,[r2,#0]
        0x00003fe4:    4ad7        .J      LDR      r2,[pc,#860] ; [0x4344] = 0xe000e010
        0x00003fe6:    2105        .!      MOVS     r1,#5
        0x00003fe8:    6011        .`      STR      r1,[r2,#0]
        0x00003fea:    a9a8        ..      ADD      r1,sp,#0x2a0
        0x00003fec:    9118        ..      STR      r1,[sp,#0x60]
        0x00003fee:    f7fdff4b    ..K.    BL       CRPT_Hex2Reg ; 0x1e88
        0x00003ff2:    9917        ..      LDR      r1,[sp,#0x5c]
        0x00003ff4:    48d4        .H      LDR      r0,[pc,#848] ; [0x4348] = 0xaa25
        0x00003ff6:    f000fb1f    ....    BL       __0printf ; 0x4638
        0x00003ffa:    9a18        ..      LDR      r2,[sp,#0x60]
        0x00003ffc:    9819        ..      LDR      r0,[sp,#0x64]
        0x00003ffe:    49d3        .I      LDR      r1,[pc,#844] ; [0x434c] = 0x40600
        0x00004000:    f7fefd32    ..2.    BL       KS_Write ; 0x2a68
        0x00004004:    4601        .F      MOV      r1,r0
        0x00004006:    981a        ..      LDR      r0,[sp,#0x68]
        0x00004008:    6581        .e      STR      r1,[r0,#0x58]
        0x0000400a:    6d80        .m      LDR      r0,[r0,#0x58]
        0x0000400c:    2800        .(      CMP      r0,#0
        0x0000400e:    d507        ..      BPL      0x4020 ; main + 240
        0x00004010:    e7ff        ..      B        0x4012 ; main + 226
        0x00004012:    48e3        .H      LDR      r0,[pc,#908] ; [0x43a0] = 0xa8c1
        0x00004014:    f000fb10    ....    BL       __0printf ; 0x4638
        0x00004018:    2000        .       MOVS     r0,#0
        0x0000401a:    f7fefc21    ..!.    BL       KS_EraseAll ; 0x2860
        0x0000401e:    e184        ..      B        0x432a ; main + 1018
        0x00004020:    981a        ..      LDR      r0,[sp,#0x68]
        0x00004022:    6d80        .m      LDR      r0,[r0,#0x58]
        0x00004024:    9015        ..      STR      r0,[sp,#0x54]
        0x00004026:    2000        .       MOVS     r0,#0
        0x00004028:    f7fefcb0    ....    BL       KS_GetRemainSize ; 0x298c
        0x0000402c:    9915        ..      LDR      r1,[sp,#0x54]
        0x0000402e:    4602        .F      MOV      r2,r0
        0x00004030:    48c7        .H      LDR      r0,[pc,#796] ; [0x4350] = 0xa963
        0x00004032:    f000fb01    ....    BL       __0printf ; 0x4638
        0x00004036:    48c2        .H      LDR      r0,[pc,#776] ; [0x4340] = 0x40032000
        0x00004038:    2111        .!      MOVS     r1,#0x11
        0x0000403a:    aaff        ..      ADD      r2,sp,#0x3fc
        0x0000403c:    325c        \2      ADDS     r2,r2,#0x5c
        0x0000403e:    f7fef8e3    ....    BL       ECC_IsPrivateKeyValid ; 0x2208
        0x00004042:    b920         .      CBNZ     r0,0x404e ; main + 286
        0x00004044:    e7ff        ..      B        0x4046 ; main + 278
        0x00004046:    48c3        .H      LDR      r0,[pc,#780] ; [0x4354] = 0xa90a
        0x00004048:    f000faf6    ....    BL       __0printf ; 0x4638
        0x0000404c:    e16d        m.      B        0x432a ; main + 1018
        0x0000404e:    981a        ..      LDR      r0,[sp,#0x68]
        0x00004050:    49c1        .I      LDR      r1,[pc,#772] ; [0x4358] = 0xe000e018
        0x00004052:    2200        ."      MOVS     r2,#0
        0x00004054:    600a        .`      STR      r2,[r1,#0]
        0x00004056:    6d83        .m      LDR      r3,[r0,#0x58]
        0x00004058:    9202        ..      STR      r2,[sp,#8]
        0x0000405a:    a8f4        ..      ADD      r0,sp,#0x3d0
        0x0000405c:    9001        ..      STR      r0,[sp,#4]
        0x0000405e:    a8ff        ..      ADD      r0,sp,#0x3fc
        0x00004060:    3018        .0      ADDS     r0,r0,#0x18
        0x00004062:    9000        ..      STR      r0,[sp,#0]
        0x00004064:    48b6        .H      LDR      r0,[pc,#728] ; [0x4340] = 0x40032000
        0x00004066:    2111        .!      MOVS     r1,#0x11
        0x00004068:    f7fdff62    ..b.    BL       ECC_GeneratePublicKey_KS ; 0x1f30
        0x0000406c:    2800        .(      CMP      r0,#0
        0x0000406e:    d504        ..      BPL      0x407a ; main + 330
        0x00004070:    e7ff        ..      B        0x4072 ; main + 322
        0x00004072:    48d0        .H      LDR      r0,[pc,#832] ; [0x43b4] = 0xa89d
        0x00004074:    f000fae0    ....    BL       __0printf ; 0x4638
        0x00004078:    e157        W.      B        0x432a ; main + 1018
        0x0000407a:    991a        ..      LDR      r1,[sp,#0x68]
        0x0000407c:    48b6        .H      LDR      r0,[pc,#728] ; [0x4358] = 0xe000e018
        0x0000407e:    6802        .h      LDR      r2,[r0,#0]
        0x00004080:    48b6        .H      LDR      r0,[pc,#728] ; [0x435c] = 0xffffff
        0x00004082:    1a80        ..      SUBS     r0,r0,r2
        0x00004084:    6488        .d      STR      r0,[r1,#0x48]
        0x00004086:    48b6        .H      LDR      r0,[pc,#728] ; [0x4360] = 0xaa3b
        0x00004088:    a9ff        ..      ADD      r1,sp,#0x3fc
        0x0000408a:    3118        .1      ADDS     r1,r1,#0x18
        0x0000408c:    f000fad4    ....    BL       __0printf ; 0x4638
        0x00004090:    48b4        .H      LDR      r0,[pc,#720] ; [0x4364] = 0xaa46
        0x00004092:    a9f4        ..      ADD      r1,sp,#0x3d0
        0x00004094:    f000fad0    ....    BL       __0printf ; 0x4638
        0x00004098:    981a        ..      LDR      r0,[sp,#0x68]
        0x0000409a:    6c80        .l      LDR      r0,[r0,#0x48]
        0x0000409c:    49b2        .I      LDR      r1,[pc,#712] ; [0x4368] = 0x20000000
        0x0000409e:    6809        .h      LDR      r1,[r1,#0]
        0x000040a0:    fbb0f0f1    ....    UDIV     r0,r0,r1
        0x000040a4:    f24032e8    @..2    MOVW     r2,#0x3e8
        0x000040a8:    fbb0f1f2    ....    UDIV     r1,r0,r2
        0x000040ac:    434a        JC      MULS     r2,r1,r2
        0x000040ae:    1a82        ..      SUBS     r2,r0,r2
        0x000040b0:    48ae        .H      LDR      r0,[pc,#696] ; [0x436c] = 0xaa51
        0x000040b2:    f000fac1    ....    BL       __0printf ; 0x4638
        0x000040b6:    991a        ..      LDR      r1,[sp,#0x68]
        0x000040b8:    2000        .       MOVS     r0,#0
        0x000040ba:    43c0        .C      MVNS     r0,r0
        0x000040bc:    4abe        .J      LDR      r2,[pc,#760] ; [0x43b8] = 0x4b8
        0x000040be:    446a        jD      ADD      r2,sp,r2
        0x000040c0:    6010        .`      STR      r0,[r2,#0]
        0x000040c2:    4abe        .J      LDR      r2,[pc,#760] ; [0x43bc] = 0x4b4
        0x000040c4:    446a        jD      ADD      r2,sp,r2
        0x000040c6:    6010        .`      STR      r0,[r2,#0]
        0x000040c8:    4abd        .J      LDR      r2,[pc,#756] ; [0x43c0] = 0x4b0
        0x000040ca:    446a        jD      ADD      r2,sp,r2
        0x000040cc:    6010        .`      STR      r0,[r2,#0]
        0x000040ce:    4abd        .J      LDR      r2,[pc,#756] ; [0x43c4] = 0x4ac
        0x000040d0:    446a        jD      ADD      r2,sp,r2
        0x000040d2:    6010        .`      STR      r0,[r2,#0]
        0x000040d4:    4abc        .J      LDR      r2,[pc,#752] ; [0x43c8] = 0x4a8
        0x000040d6:    446a        jD      ADD      r2,sp,r2
        0x000040d8:    6010        .`      STR      r0,[r2,#0]
        0x000040da:    4abc        .J      LDR      r2,[pc,#752] ; [0x43cc] = 0x4a4
        0x000040dc:    446a        jD      ADD      r2,sp,r2
        0x000040de:    6010        .`      STR      r0,[r2,#0]
        0x000040e0:    4abb        .J      LDR      r2,[pc,#748] ; [0x43d0] = 0x4a0
        0x000040e2:    446a        jD      ADD      r2,sp,r2
        0x000040e4:    6010        .`      STR      r0,[r2,#0]
        0x000040e6:    48a2        .H      LDR      r0,[pc,#648] ; [0x4370] = 0xfffffc2f
        0x000040e8:    6008        .`      STR      r0,[r1,#0]
        0x000040ea:    2006        .       MOVS     r0,#6
        0x000040ec:    a9ff        ..      ADD      r1,sp,#0x3fc
        0x000040ee:    31a0        .1      ADDS     r1,r1,#0xa0
        0x000040f0:    f7feff40    ..@.    BL       RNG_ECDSA_Init ; 0x2f74
        0x000040f4:    4601        .F      MOV      r1,r0
        0x000040f6:    981a        ..      LDR      r0,[sp,#0x68]
        0x000040f8:    65c1        .e      STR      r1,[r0,#0x5c]
        0x000040fa:    6dc0        .m      LDR      r0,[r0,#0x5c]
        0x000040fc:    b120         .      CBZ      r0,0x4108 ; main + 472
        0x000040fe:    e7ff        ..      B        0x4100 ; main + 464
        0x00004100:    48ab        .H      LDR      r0,[pc,#684] ; [0x43b0] = 0xa9f5
        0x00004102:    f000fa99    ....    BL       __0printf ; 0x4638
        0x00004106:    e110        ..      B        0x432a ; main + 1018
        0x00004108:    2006        .       MOVS     r0,#6
        0x0000410a:    f7fefefd    ....    BL       RNG_ECDSA ; 0x2f08
        0x0000410e:    4601        .F      MOV      r1,r0
        0x00004110:    981a        ..      LDR      r0,[sp,#0x68]
        0x00004112:    6541        Ae      STR      r1,[r0,#0x54]
        0x00004114:    6d40        @m      LDR      r0,[r0,#0x54]
        0x00004116:    2800        .(      CMP      r0,#0
        0x00004118:    d504        ..      BPL      0x4124 ; main + 500
        0x0000411a:    e7ff        ..      B        0x411c ; main + 492
        0x0000411c:    48a3        .H      LDR      r0,[pc,#652] ; [0x43ac] = 0xa947
        0x0000411e:    f000fa8b    ....    BL       __0printf ; 0x4638
        0x00004122:    e102        ..      B        0x432a ; main + 1018
        0x00004124:    981a        ..      LDR      r0,[sp,#0x68]
        0x00004126:    6d40        @m      LDR      r0,[r0,#0x54]
        0x00004128:    9010        ..      STR      r0,[sp,#0x40]
        0x0000412a:    2000        .       MOVS     r0,#0
        0x0000412c:    9014        ..      STR      r0,[sp,#0x50]
        0x0000412e:    f7fefc2d    ..-.    BL       KS_GetRemainSize ; 0x298c
        0x00004132:    9910        ..      LDR      r1,[sp,#0x40]
        0x00004134:    4602        .F      MOV      r2,r0
        0x00004136:    488f        .H      LDR      r0,[pc,#572] ; [0x4374] = 0xa987
        0x00004138:    f000fa7e    ..~.    BL       __0printf ; 0x4638
        0x0000413c:    488e        .H      LDR      r0,[pc,#568] ; [0x4378] = 0xa7fc
        0x0000413e:    9011        ..      STR      r0,[sp,#0x44]
        0x00004140:    f7fcf8e9    ....    BL       strlen ; 0x316
        0x00004144:    4601        .F      MOV      r1,r0
        0x00004146:    9811        ..      LDR      r0,[sp,#0x44]
        0x00004148:    0849        I.      LSRS     r1,r1,#1
        0x0000414a:    91a6        ..      STR      r1,[sp,#0x298]
        0x0000414c:    9aa6        ..      LDR      r2,[sp,#0x298]
        0x0000414e:    a980        ..      ADD      r1,sp,#0x200
        0x00004150:    9112        ..      STR      r1,[sp,#0x48]
        0x00004152:    f7fffcb3    ....    BL       hexStringToByteArray ; 0x3abc
        0x00004156:    a81c        ..      ADD      r0,sp,#0x70
        0x00004158:    9013        ..      STR      r0,[sp,#0x4c]
        0x0000415a:    f7fffd79    ..y.    BL       keccak_init ; 0x3c50
        0x0000415e:    9912        ..      LDR      r1,[sp,#0x48]
        0x00004160:    9813        ..      LDR      r0,[sp,#0x4c]
        0x00004162:    aaa6        ..      ADD      r2,sp,#0x298
        0x00004164:    8812        ..      LDRH     r2,[r2,#0]
        0x00004166:    f7fffe60    ..`.    BL       keccak_update ; 0x3e2a
        0x0000416a:    9813        ..      LDR      r0,[sp,#0x4c]
        0x0000416c:    a9b0        ..      ADD      r1,sp,#0x2c0
        0x0000416e:    f7fffd3c    ..<.    BL       keccak_final ; 0x3bea
        0x00004172:    4882        .H      LDR      r0,[pc,#520] ; [0x437c] = 0xaa75
        0x00004174:    f000fa60    ..`.    BL       __0printf ; 0x4638
        0x00004178:    9814        ..      LDR      r0,[sp,#0x50]
        0x0000417a:    901b        ..      STR      r0,[sp,#0x6c]
        0x0000417c:    e7ff        ..      B        0x417e ; main + 590
        0x0000417e:    981b        ..      LDR      r0,[sp,#0x6c]
        0x00004180:    281f        .(      CMP      r0,#0x1f
        0x00004182:    dc16        ..      BGT      0x41b2 ; main + 642
        0x00004184:    e7ff        ..      B        0x4186 ; main + 598
        0x00004186:    991b        ..      LDR      r1,[sp,#0x6c]
        0x00004188:    a8b0        ..      ADD      r0,sp,#0x2c0
        0x0000418a:    900e        ..      STR      r0,[sp,#0x38]
        0x0000418c:    5c41        A\      LDRB     r1,[r0,r1]
        0x0000418e:    4886        .H      LDR      r0,[pc,#536] ; [0x43a8] = 0xab08
        0x00004190:    900f        ..      STR      r0,[sp,#0x3c]
        0x00004192:    f000fa51    ..Q.    BL       __0printf ; 0x4638
        0x00004196:    9a0e        ..      LDR      r2,[sp,#0x38]
        0x00004198:    990f        ..      LDR      r1,[sp,#0x3c]
        0x0000419a:    9b1b        ..      LDR      r3,[sp,#0x6c]
        0x0000419c:    005c        \.      LSLS     r4,r3,#1
        0x0000419e:    a8c1        ..      ADD      r0,sp,#0x304
        0x000041a0:    1900        ..      ADDS     r0,r0,r4
        0x000041a2:    5cd2        .\      LDRB     r2,[r2,r3]
        0x000041a4:    f000fa58    ..X.    BL       __0sprintf ; 0x4658
        0x000041a8:    e7ff        ..      B        0x41aa ; main + 634
        0x000041aa:    981b        ..      LDR      r0,[sp,#0x6c]
        0x000041ac:    1c40        @.      ADDS     r0,r0,#1
        0x000041ae:    901b        ..      STR      r0,[sp,#0x6c]
        0x000041b0:    e7e5        ..      B        0x417e ; main + 590
        0x000041b2:    4873        sH      LDR      r0,[pc,#460] ; [0x4380] = 0xaa30
        0x000041b4:    a9c1        ..      ADD      r1,sp,#0x304
        0x000041b6:    910d        ..      STR      r1,[sp,#0x34]
        0x000041b8:    f000fa3e    ..>.    BL       __0printf ; 0x4638
        0x000041bc:    991a        ..      LDR      r1,[sp,#0x68]
        0x000041be:    9a0d        ..      LDR      r2,[sp,#0x34]
        0x000041c0:    4865        eH      LDR      r0,[pc,#404] ; [0x4358] = 0xe000e018
        0x000041c2:    2300        .#      MOVS     r3,#0
        0x000041c4:    6003        .`      STR      r3,[r0,#0]
        0x000041c6:    6d88        .m      LDR      r0,[r1,#0x58]
        0x000041c8:    6d49        Im      LDR      r1,[r1,#0x54]
        0x000041ca:    acd2        ..      ADD      r4,sp,#0x348
        0x000041cc:    9404        ..      STR      r4,[sp,#0x10]
        0x000041ce:    ace3        ..      ADD      r4,sp,#0x38c
        0x000041d0:    9403        ..      STR      r4,[sp,#0xc]
        0x000041d2:    9102        ..      STR      r1,[sp,#8]
        0x000041d4:    9301        ..      STR      r3,[sp,#4]
        0x000041d6:    9000        ..      STR      r0,[sp,#0]
        0x000041d8:    4859        YH      LDR      r0,[pc,#356] ; [0x4340] = 0x40032000
        0x000041da:    2111        .!      MOVS     r1,#0x11
        0x000041dc:    f7fdff2e    ....    BL       ECC_GenerateSignature_KS ; 0x203c
        0x000041e0:    2800        .(      CMP      r0,#0
        0x000041e2:    d504        ..      BPL      0x41ee ; main + 702
        0x000041e4:    e7ff        ..      B        0x41e6 ; main + 694
        0x000041e6:    486f        oH      LDR      r0,[pc,#444] ; [0x43a4] = 0xa87a
        0x000041e8:    f000fa26    ..&.    BL       __0printf ; 0x4638
        0x000041ec:    e09d        ..      B        0x432a ; main + 1018
        0x000041ee:    981a        ..      LDR      r0,[sp,#0x68]
        0x000041f0:    6d40        @m      LDR      r0,[r0,#0x54]
        0x000041f2:    f7fefb75    ..u.    BL       KS_EraseKey ; 0x28e0
        0x000041f6:    991a        ..      LDR      r1,[sp,#0x68]
        0x000041f8:    4857        WH      LDR      r0,[pc,#348] ; [0x4358] = 0xe000e018
        0x000041fa:    6802        .h      LDR      r2,[r0,#0]
        0x000041fc:    4857        WH      LDR      r0,[pc,#348] ; [0x435c] = 0xffffff
        0x000041fe:    1a80        ..      SUBS     r0,r0,r2
        0x00004200:    6488        .d      STR      r0,[r1,#0x48]
        0x00004202:    4860        `H      LDR      r0,[pc,#384] ; [0x4384] = 0xaa0f
        0x00004204:    a9e3        ..      ADD      r1,sp,#0x38c
        0x00004206:    f000fa17    ....    BL       __0printf ; 0x4638
        0x0000420a:    485f        _H      LDR      r0,[pc,#380] ; [0x4388] = 0xaa1a
        0x0000420c:    a9d2        ..      ADD      r1,sp,#0x348
        0x0000420e:    f000fa13    ....    BL       __0printf ; 0x4638
        0x00004212:    981a        ..      LDR      r0,[sp,#0x68]
        0x00004214:    6c80        .l      LDR      r0,[r0,#0x48]
        0x00004216:    4954        TI      LDR      r1,[pc,#336] ; [0x4368] = 0x20000000
        0x00004218:    6809        .h      LDR      r1,[r1,#0]
        0x0000421a:    fbb0f0f1    ....    UDIV     r0,r0,r1
        0x0000421e:    f24032e8    @..2    MOVW     r2,#0x3e8
        0x00004222:    fbb0f1f2    ....    UDIV     r1,r0,r2
        0x00004226:    434a        JC      MULS     r2,r1,r2
        0x00004228:    1a82        ..      SUBS     r2,r0,r2
        0x0000422a:    4850        PH      LDR      r0,[pc,#320] ; [0x436c] = 0xaa51
        0x0000422c:    f000fa04    ....    BL       __0printf ; 0x4638
        0x00004230:    a8ff        ..      ADD      r0,sp,#0x3fc
        0x00004232:    3018        .0      ADDS     r0,r0,#0x18
        0x00004234:    a9a8        ..      ADD      r1,sp,#0x2a0
        0x00004236:    910c        ..      STR      r1,[sp,#0x30]
        0x00004238:    f7fdfe26    ..&.    BL       CRPT_Hex2Reg ; 0x1e88
        0x0000423c:    9a0c        ..      LDR      r2,[sp,#0x30]
        0x0000423e:    2000        .       MOVS     r0,#0
        0x00004240:    4942        BI      LDR      r1,[pc,#264] ; [0x434c] = 0x40600
        0x00004242:    f7fefc11    ....    BL       KS_Write ; 0x2a68
        0x00004246:    4601        .F      MOV      r1,r0
        0x00004248:    981a        ..      LDR      r0,[sp,#0x68]
        0x0000424a:    6501        .e      STR      r1,[r0,#0x50]
        0x0000424c:    6d00        .m      LDR      r0,[r0,#0x50]
        0x0000424e:    2800        .(      CMP      r0,#0
        0x00004250:    d504        ..      BPL      0x425c ; main + 812
        0x00004252:    e7ff        ..      B        0x4254 ; main + 804
        0x00004254:    4852        RH      LDR      r0,[pc,#328] ; [0x43a0] = 0xa8c1
        0x00004256:    f000f9ef    ....    BL       __0printf ; 0x4638
        0x0000425a:    e066        f.      B        0x432a ; main + 1018
        0x0000425c:    981a        ..      LDR      r0,[sp,#0x68]
        0x0000425e:    6d00        .m      LDR      r0,[r0,#0x50]
        0x00004260:    9009        ..      STR      r0,[sp,#0x24]
        0x00004262:    2000        .       MOVS     r0,#0
        0x00004264:    900a        ..      STR      r0,[sp,#0x28]
        0x00004266:    f7fefb91    ....    BL       KS_GetRemainSize ; 0x298c
        0x0000426a:    9909        ..      LDR      r1,[sp,#0x24]
        0x0000426c:    4602        .F      MOV      r2,r0
        0x0000426e:    4847        GH      LDR      r0,[pc,#284] ; [0x438c] = 0xa9ab
        0x00004270:    f000f9e2    ....    BL       __0printf ; 0x4638
        0x00004274:    a8f4        ..      ADD      r0,sp,#0x3d0
        0x00004276:    a9a8        ..      ADD      r1,sp,#0x2a0
        0x00004278:    910b        ..      STR      r1,[sp,#0x2c]
        0x0000427a:    f7fdfe05    ....    BL       CRPT_Hex2Reg ; 0x1e88
        0x0000427e:    980a        ..      LDR      r0,[sp,#0x28]
        0x00004280:    9a0b        ..      LDR      r2,[sp,#0x2c]
        0x00004282:    4932        2I      LDR      r1,[pc,#200] ; [0x434c] = 0x40600
        0x00004284:    f7fefbf0    ....    BL       KS_Write ; 0x2a68
        0x00004288:    4601        .F      MOV      r1,r0
        0x0000428a:    981a        ..      LDR      r0,[sp,#0x68]
        0x0000428c:    64c1        .d      STR      r1,[r0,#0x4c]
        0x0000428e:    6cc0        .l      LDR      r0,[r0,#0x4c]
        0x00004290:    2800        .(      CMP      r0,#0
        0x00004292:    d504        ..      BPL      0x429e ; main + 878
        0x00004294:    e7ff        ..      B        0x4296 ; main + 870
        0x00004296:    4842        BH      LDR      r0,[pc,#264] ; [0x43a0] = 0xa8c1
        0x00004298:    f000f9ce    ....    BL       __0printf ; 0x4638
        0x0000429c:    e045        E.      B        0x432a ; main + 1018
        0x0000429e:    981a        ..      LDR      r0,[sp,#0x68]
        0x000042a0:    6cc0        .l      LDR      r0,[r0,#0x4c]
        0x000042a2:    9006        ..      STR      r0,[sp,#0x18]
        0x000042a4:    2000        .       MOVS     r0,#0
        0x000042a6:    9007        ..      STR      r0,[sp,#0x1c]
        0x000042a8:    f7fefb70    ..p.    BL       KS_GetRemainSize ; 0x298c
        0x000042ac:    9906        ..      LDR      r1,[sp,#0x18]
        0x000042ae:    4602        .F      MOV      r2,r0
        0x000042b0:    4837        7H      LDR      r0,[pc,#220] ; [0x4390] = 0xa9d0
        0x000042b2:    f000f9c1    ....    BL       __0printf ; 0x4638
        0x000042b6:    9b07        ..      LDR      r3,[sp,#0x1c]
        0x000042b8:    991a        ..      LDR      r1,[sp,#0x68]
        0x000042ba:    4827        'H      LDR      r0,[pc,#156] ; [0x4358] = 0xe000e018
        0x000042bc:    9008        ..      STR      r0,[sp,#0x20]
        0x000042be:    6003        .`      STR      r3,[r0,#0]
        0x000042c0:    6d08        .m      LDR      r0,[r1,#0x50]
        0x000042c2:    6cc9        .l      LDR      r1,[r1,#0x4c]
        0x000042c4:    aad2        ..      ADD      r2,sp,#0x348
        0x000042c6:    9204        ..      STR      r2,[sp,#0x10]
        0x000042c8:    aae3        ..      ADD      r2,sp,#0x38c
        0x000042ca:    9203        ..      STR      r2,[sp,#0xc]
        0x000042cc:    9102        ..      STR      r1,[sp,#8]
        0x000042ce:    9301        ..      STR      r3,[sp,#4]
        0x000042d0:    9000        ..      STR      r0,[sp,#0]
        0x000042d2:    481b        .H      LDR      r0,[pc,#108] ; [0x4340] = 0x40032000
        0x000042d4:    2111        .!      MOVS     r1,#0x11
        0x000042d6:    aac1        ..      ADD      r2,sp,#0x304
        0x000042d8:    f7fef816    ....    BL       ECC_VerifySignature_KS ; 0x2308
        0x000042dc:    9908        ..      LDR      r1,[sp,#0x20]
        0x000042de:    4602        .F      MOV      r2,r0
        0x000042e0:    981a        ..      LDR      r0,[sp,#0x68]
        0x000042e2:    65c2        .e      STR      r2,[r0,#0x5c]
        0x000042e4:    680a        .h      LDR      r2,[r1,#0]
        0x000042e6:    491d        .I      LDR      r1,[pc,#116] ; [0x435c] = 0xffffff
        0x000042e8:    1a89        ..      SUBS     r1,r1,r2
        0x000042ea:    6481        .d      STR      r1,[r0,#0x48]
        0x000042ec:    6dc0        .m      LDR      r0,[r0,#0x5c]
        0x000042ee:    2800        .(      CMP      r0,#0
        0x000042f0:    d504        ..      BPL      0x42fc ; main + 972
        0x000042f2:    e7ff        ..      B        0x42f4 ; main + 964
        0x000042f4:    4829        )H      LDR      r0,[pc,#164] ; [0x439c] = 0xa855
        0x000042f6:    f000f99f    ....    BL       __0printf ; 0x4638
        0x000042fa:    e016        ..      B        0x432a ; main + 1018
        0x000042fc:    4825        %H      LDR      r0,[pc,#148] ; [0x4394] = 0xa8e2
        0x000042fe:    f000f99b    ....    BL       __0printf ; 0x4638
        0x00004302:    e7ff        ..      B        0x4304 ; main + 980
        0x00004304:    981a        ..      LDR      r0,[sp,#0x68]
        0x00004306:    6c80        .l      LDR      r0,[r0,#0x48]
        0x00004308:    4917        .I      LDR      r1,[pc,#92] ; [0x4368] = 0x20000000
        0x0000430a:    6809        .h      LDR      r1,[r1,#0]
        0x0000430c:    fbb0f0f1    ....    UDIV     r0,r0,r1
        0x00004310:    f24032e8    @..2    MOVW     r2,#0x3e8
        0x00004314:    fbb0f1f2    ....    UDIV     r1,r0,r2
        0x00004318:    434a        JC      MULS     r2,r1,r2
        0x0000431a:    1a82        ..      SUBS     r2,r0,r2
        0x0000431c:    4813        .H      LDR      r0,[pc,#76] ; [0x436c] = 0xaa51
        0x0000431e:    f000f98b    ....    BL       __0printf ; 0x4638
        0x00004322:    481d        .H      LDR      r0,[pc,#116] ; [0x4398] = 0xa8ba
        0x00004324:    f000f988    ....    BL       __0printf ; 0x4638
        0x00004328:    e7ff        ..      B        0x432a ; main + 1018
        0x0000432a:    e7ff        ..      B        0x432c ; main + 1020
        0x0000432c:    e7fe        ..      B        0x432c ; main + 1020
        0x0000432e:    46c0        .F      MOV      r8,r8
    $d.13
    __arm_cp.6_0
        0x00004330:    0000aac7    ....    DCD    43719
    __arm_cp.6_6
        0x00004334:    0000aa86    ....    DCD    43654
    __arm_cp.6_7
        0x00004338:    20000008    ...     DCD    536870920
    __arm_cp.6_8
        0x0000433c:    0000aa69    i...    DCD    43625
    __arm_cp.6_9
        0x00004340:    40032000    . .@    DCD    1073946624
    __arm_cp.6_10
        0x00004344:    e000e010    ....    DCD    3758153744
    __arm_cp.6_11
        0x00004348:    0000aa25    %...    DCD    43557
    __arm_cp.6_12
        0x0000434c:    00040600    ....    DCD    263680
    __arm_cp.6_13
        0x00004350:    0000a963    c...    DCD    43363
    __arm_cp.6_14
        0x00004354:    0000a90a    ....    DCD    43274
    __arm_cp.6_15
        0x00004358:    e000e018    ....    DCD    3758153752
    __arm_cp.6_16
        0x0000435c:    00ffffff    ....    DCD    16777215
    __arm_cp.6_17
        0x00004360:    0000aa3b    ;...    DCD    43579
    __arm_cp.6_18
        0x00004364:    0000aa46    F...    DCD    43590
    __arm_cp.6_19
        0x00004368:    20000000    ...     DCD    536870912
    __arm_cp.6_20
        0x0000436c:    0000aa51    Q...    DCD    43601
    __arm_cp.6_21
        0x00004370:    fffffc2f    /...    DCD    4294966319
    __arm_cp.6_22
        0x00004374:    0000a987    ....    DCD    43399
    __arm_cp.6_23
        0x00004378:    0000a7fc    ....    DCD    43004
    __arm_cp.6_24
        0x0000437c:    0000aa75    u...    DCD    43637
    __arm_cp.6_25
        0x00004380:    0000aa30    0...    DCD    43568
    __arm_cp.6_26
        0x00004384:    0000aa0f    ....    DCD    43535
    __arm_cp.6_27
        0x00004388:    0000aa1a    ....    DCD    43546
    __arm_cp.6_28
        0x0000438c:    0000a9ab    ....    DCD    43435
    __arm_cp.6_29
        0x00004390:    0000a9d0    ....    DCD    43472
    __arm_cp.6_30
        0x00004394:    0000a8e2    ....    DCD    43234
    __arm_cp.6_31
        0x00004398:    0000a8ba    ....    DCD    43194
    __arm_cp.6_32
        0x0000439c:    0000a855    U...    DCD    43093
    __arm_cp.6_33
        0x000043a0:    0000a8c1    ....    DCD    43201
    __arm_cp.6_34
        0x000043a4:    0000a87a    z...    DCD    43130
    __arm_cp.6_35
        0x000043a8:    0000ab08    ....    DCD    43784
    __arm_cp.6_36
        0x000043ac:    0000a947    G...    DCD    43335
    __arm_cp.6_37
        0x000043b0:    0000a9f5    ....    DCD    43509
    __arm_cp.6_38
        0x000043b4:    0000a89d    ....    DCD    43165
    __arm_cp.6_39
        0x000043b8:    000004b8    ....    DCD    1208
    __arm_cp.6_40
        0x000043bc:    000004b4    ....    DCD    1204
    __arm_cp.6_41
        0x000043c0:    000004b0    ....    DCD    1200
    __arm_cp.6_42
        0x000043c4:    000004ac    ....    DCD    1196
    __arm_cp.6_43
        0x000043c8:    000004a8    ....    DCD    1192
    __arm_cp.6_44
        0x000043cc:    000004a4    ....    DCD    1188
    __arm_cp.6_45
        0x000043d0:    000004a0    ....    DCD    1184
    $t.43
    run_ecc_codec
        0x000043d4:    b580        ..      PUSH     {r7,lr}
        0x000043d6:    b086        ..      SUB      sp,sp,#0x18
        0x000043d8:    9004        ..      STR      r0,[sp,#0x10]
        0x000043da:    9103        ..      STR      r1,[sp,#0xc]
        0x000043dc:    9803        ..      LDR      r0,[sp,#0xc]
        0x000043de:    f2406100    @..a    MOVW     r1,#0x600
        0x000043e2:    4008        .@      ANDS     r0,r0,r1
        0x000043e4:    9002        ..      STR      r0,[sp,#8]
        0x000043e6:    9802        ..      LDR      r0,[sp,#8]
        0x000043e8:    f2402100    @..!    MOVW     r1,#0x200
        0x000043ec:    4288        .B      CMP      r0,r1
        0x000043ee:    d107        ..      BNE      0x4400 ; run_ecc_codec + 44
        0x000043f0:    e7ff        ..      B        0x43f2 ; run_ecc_codec + 30
        0x000043f2:    9904        ..      LDR      r1,[sp,#0x10]
        0x000043f4:    f6400200    @...    MOVW     r2,#0x800
        0x000043f8:    f2401000    @...    MOVW     r0,#0x100
        0x000043fc:    5088        .P      STR      r0,[r1,r2]
        0x000043fe:    e02b        +.      B        0x4458 ; run_ecc_codec + 132
        0x00004400:    4839        9H      LDR      r0,[pc,#228] ; [0x44e8] = 0x20001c44
        0x00004402:    6800        .h      LDR      r0,[r0,#0]
        0x00004404:    f24031c0    @..1    MOVW     r1,#0x3c0
        0x00004408:    5840        @X      LDR      r0,[r0,r1]
        0x0000440a:    2801        .(      CMP      r0,#1
        0x0000440c:    d106        ..      BNE      0x441c ; run_ecc_codec + 72
        0x0000440e:    e7ff        ..      B        0x4410 ; run_ecc_codec + 60
        0x00004410:    9904        ..      LDR      r1,[sp,#0x10]
        0x00004412:    f6400200    @...    MOVW     r2,#0x800
        0x00004416:    2000        .       MOVS     r0,#0
        0x00004418:    5088        .P      STR      r0,[r1,r2]
        0x0000441a:    e006        ..      B        0x442a ; run_ecc_codec + 86
        0x0000441c:    9904        ..      LDR      r1,[sp,#0x10]
        0x0000441e:    f6400200    @...    MOVW     r2,#0x800
        0x00004422:    f2401000    @...    MOVW     r0,#0x100
        0x00004426:    5088        .P      STR      r0,[r1,r2]
        0x00004428:    e7ff        ..      B        0x442a ; run_ecc_codec + 86
        0x0000442a:    9802        ..      LDR      r0,[sp,#8]
        0x0000442c:    b998        ..      CBNZ     r0,0x4456 ; run_ecc_codec + 130
        0x0000442e:    e7ff        ..      B        0x4430 ; run_ecc_codec + 92
        0x00004430:    9904        ..      LDR      r1,[sp,#0x10]
        0x00004432:    f6400200    @...    MOVW     r2,#0x800
        0x00004436:    5888        .X      LDR      r0,[r1,r2]
        0x00004438:    f2440300    D...    MOVW     r3,#0x4000
        0x0000443c:    4318        .C      ORRS     r0,r0,r3
        0x0000443e:    5088        .P      STR      r0,[r1,r2]
        0x00004440:    4829        )H      LDR      r0,[pc,#164] ; [0x44e8] = 0x20001c44
        0x00004442:    6800        .h      LDR      r0,[r0,#0]
        0x00004444:    f2403100    @..1    MOVW     r1,#0x300
        0x00004448:    1840        @.      ADDS     r0,r0,r1
        0x0000444a:    9904        ..      LDR      r1,[sp,#0x10]
        0x0000444c:    4a27        'J      LDR      r2,[pc,#156] ; [0x44ec] = 0x898
        0x0000444e:    1889        ..      ADDS     r1,r1,r2
        0x00004450:    f7fef9ba    ....    BL       Hex2Reg ; 0x27c8
        0x00004454:    e7ff        ..      B        0x4456 ; run_ecc_codec + 130
        0x00004456:    e7ff        ..      B        0x4458 ; run_ecc_codec + 132
        0x00004458:    4925        %I      LDR      r1,[pc,#148] ; [0x44f0] = 0x20001c38
        0x0000445a:    2000        .       MOVS     r0,#0
        0x0000445c:    6008        .`      STR      r0,[r1,#0]
        0x0000445e:    4925        %I      LDR      r1,[pc,#148] ; [0x44f4] = 0x20001c3c
        0x00004460:    6008        .`      STR      r0,[r1,#0]
        0x00004462:    4821        !H      LDR      r0,[pc,#132] ; [0x44e8] = 0x20001c44
        0x00004464:    6800        .h      LDR      r0,[r0,#0]
        0x00004466:    f24031b0    @..1    MOVW     r1,#0x3b0
        0x0000446a:    5840        @X      LDR      r0,[r0,r1]
        0x0000446c:    0580        ..      LSLS     r0,r0,#22
        0x0000446e:    9903        ..      LDR      r1,[sp,#0xc]
        0x00004470:    4308        .C      ORRS     r0,r0,r1
        0x00004472:    9904        ..      LDR      r1,[sp,#0x10]
        0x00004474:    f6400200    @...    MOVW     r2,#0x800
        0x00004478:    588b        .X      LDR      r3,[r1,r2]
        0x0000447a:    4318        .C      ORRS     r0,r0,r3
        0x0000447c:    2301        .#      MOVS     r3,#1
        0x0000447e:    4318        .C      ORRS     r0,r0,r3
        0x00004480:    5088        .P      STR      r0,[r1,r2]
        0x00004482:    481d        .H      LDR      r0,[pc,#116] ; [0x44f8] = 0x20000008
        0x00004484:    6800        .h      LDR      r0,[r0,#0]
        0x00004486:    9001        ..      STR      r0,[sp,#4]
        0x00004488:    e7ff        ..      B        0x448a ; run_ecc_codec + 182
        0x0000448a:    481a        .H      LDR      r0,[pc,#104] ; [0x44f4] = 0x20001c3c
        0x0000448c:    6800        .h      LDR      r0,[r0,#0]
        0x0000448e:    b978        x.      CBNZ     r0,0x44b0 ; run_ecc_codec + 220
        0x00004490:    e7ff        ..      B        0x4492 ; run_ecc_codec + 190
        0x00004492:    9801        ..      LDR      r0,[sp,#4]
        0x00004494:    1e41        A.      SUBS     r1,r0,#1
        0x00004496:    9101        ..      STR      r1,[sp,#4]
        0x00004498:    2801        .(      CMP      r0,#1
        0x0000449a:    db04        ..      BLT      0x44a6 ; run_ecc_codec + 210
        0x0000449c:    e7ff        ..      B        0x449e ; run_ecc_codec + 202
        0x0000449e:    4814        .H      LDR      r0,[pc,#80] ; [0x44f0] = 0x20001c38
        0x000044a0:    6800        .h      LDR      r0,[r0,#0]
        0x000044a2:    b120         .      CBZ      r0,0x44ae ; run_ecc_codec + 218
        0x000044a4:    e7ff        ..      B        0x44a6 ; run_ecc_codec + 210
        0x000044a6:    2000        .       MOVS     r0,#0
        0x000044a8:    43c0        .C      MVNS     r0,r0
        0x000044aa:    9005        ..      STR      r0,[sp,#0x14]
        0x000044ac:    e018        ..      B        0x44e0 ; run_ecc_codec + 268
        0x000044ae:    e7ec        ..      B        0x448a ; run_ecc_codec + 182
        0x000044b0:    4811        .H      LDR      r0,[pc,#68] ; [0x44f8] = 0x20000008
        0x000044b2:    6800        .h      LDR      r0,[r0,#0]
        0x000044b4:    9001        ..      STR      r0,[sp,#4]
        0x000044b6:    e7ff        ..      B        0x44b8 ; run_ecc_codec + 228
        0x000044b8:    9804        ..      LDR      r0,[sp,#0x10]
        0x000044ba:    4910        .I      LDR      r1,[pc,#64] ; [0x44fc] = 0x804
        0x000044bc:    5840        @X      LDR      r0,[r0,r1]
        0x000044be:    07c0        ..      LSLS     r0,r0,#31
        0x000044c0:    b158        X.      CBZ      r0,0x44da ; run_ecc_codec + 262
        0x000044c2:    e7ff        ..      B        0x44c4 ; run_ecc_codec + 240
        0x000044c4:    9801        ..      LDR      r0,[sp,#4]
        0x000044c6:    1e41        A.      SUBS     r1,r0,#1
        0x000044c8:    9101        ..      STR      r1,[sp,#4]
        0x000044ca:    2800        .(      CMP      r0,#0
        0x000044cc:    dc04        ..      BGT      0x44d8 ; run_ecc_codec + 260
        0x000044ce:    e7ff        ..      B        0x44d0 ; run_ecc_codec + 252
        0x000044d0:    2000        .       MOVS     r0,#0
        0x000044d2:    43c0        .C      MVNS     r0,r0
        0x000044d4:    9005        ..      STR      r0,[sp,#0x14]
        0x000044d6:    e003        ..      B        0x44e0 ; run_ecc_codec + 268
        0x000044d8:    e7ee        ..      B        0x44b8 ; run_ecc_codec + 228
        0x000044da:    2000        .       MOVS     r0,#0
        0x000044dc:    9005        ..      STR      r0,[sp,#0x14]
        0x000044de:    e7ff        ..      B        0x44e0 ; run_ecc_codec + 268
        0x000044e0:    9805        ..      LDR      r0,[sp,#0x14]
        0x000044e2:    b006        ..      ADD      sp,sp,#0x18
        0x000044e4:    bd80        ..      POP      {r7,pc}
        0x000044e6:    46c0        .F      MOV      r8,r8
    $d.44
    __arm_cp.31_0
        0x000044e8:    20001c44    D..     DCD    536878148
    __arm_cp.31_1
        0x000044ec:    00000898    ....    DCD    2200
    __arm_cp.31_2
        0x000044f0:    20001c38    8..     DCD    536878136
    __arm_cp.31_3
        0x000044f4:    20001c3c    <..     DCD    536878140
    __arm_cp.31_4
        0x000044f8:    20000008    ...     DCD    536870920
    __arm_cp.31_5
        0x000044fc:    00000804    ....    DCD    2052
    $t.6
    sha3_permutation
        0x00004500:    b510        ..      PUSH     {r4,lr}
        0x00004502:    b08c        ..      SUB      sp,sp,#0x30
        0x00004504:    900b        ..      STR      r0,[sp,#0x2c]
        0x00004506:    a90a        ..      ADD      r1,sp,#0x28
        0x00004508:    2000        .       MOVS     r0,#0
        0x0000450a:    7008        .p      STRB     r0,[r1,#0]
        0x0000450c:    e7ff        ..      B        0x450e ; sha3_permutation + 14
        0x0000450e:    a80a        ..      ADD      r0,sp,#0x28
        0x00004510:    7800        .x      LDRB     r0,[r0,#0]
        0x00004512:    2817        .(      CMP      r0,#0x17
        0x00004514:    dc66        f.      BGT      0x45e4 ; sha3_permutation + 228
        0x00004516:    e7ff        ..      B        0x4518 ; sha3_permutation + 24
        0x00004518:    980b        ..      LDR      r0,[sp,#0x2c]
        0x0000451a:    f7fffbe1    ....    BL       keccak_theta ; 0x3ce0
        0x0000451e:    a909        ..      ADD      r1,sp,#0x24
        0x00004520:    2001        .       MOVS     r0,#1
        0x00004522:    7008        .p      STRB     r0,[r1,#0]
        0x00004524:    e7ff        ..      B        0x4526 ; sha3_permutation + 38
        0x00004526:    a809        ..      ADD      r0,sp,#0x24
        0x00004528:    7800        .x      LDRB     r0,[r0,#0]
        0x0000452a:    2818        .(      CMP      r0,#0x18
        0x0000452c:    dc41        A.      BGT      0x45b2 ; sha3_permutation + 178
        0x0000452e:    e7ff        ..      B        0x4530 ; sha3_permutation + 48
        0x00004530:    9a0b        ..      LDR      r2,[sp,#0x2c]
        0x00004532:    a809        ..      ADD      r0,sp,#0x24
        0x00004534:    9007        ..      STR      r0,[sp,#0x1c]
        0x00004536:    7800        .x      LDRB     r0,[r0,#0]
        0x00004538:    00c3        ..      LSLS     r3,r0,#3
        0x0000453a:    18d1        ..      ADDS     r1,r2,r3
        0x0000453c:    58d2        .X      LDR      r2,[r2,r3]
        0x0000453e:    9202        ..      STR      r2,[sp,#8]
        0x00004540:    6849        Ih      LDR      r1,[r1,#4]
        0x00004542:    9101        ..      STR      r1,[sp,#4]
        0x00004544:    1e40        @.      SUBS     r0,r0,#1
        0x00004546:    b2c1        ..      UXTB     r1,r0
        0x00004548:    2030        0       MOVS     r0,#0x30
        0x0000454a:    9003        ..      STR      r0,[sp,#0xc]
        0x0000454c:    f7fff9be    ....    BL       getConstant ; 0x38cc
        0x00004550:    9901        ..      LDR      r1,[sp,#4]
        0x00004552:    4602        .F      MOV      r2,r0
        0x00004554:    9802        ..      LDR      r0,[sp,#8]
        0x00004556:    f7fbfe99    ....    BL       __aeabi_llsl ; 0x28c
        0x0000455a:    4602        .F      MOV      r2,r0
        0x0000455c:    9803        ..      LDR      r0,[sp,#0xc]
        0x0000455e:    9206        ..      STR      r2,[sp,#0x18]
        0x00004560:    460a        .F      MOV      r2,r1
        0x00004562:    9907        ..      LDR      r1,[sp,#0x1c]
        0x00004564:    9208        ..      STR      r2,[sp,#0x20]
        0x00004566:    9b0b        ..      LDR      r3,[sp,#0x2c]
        0x00004568:    7809        .x      LDRB     r1,[r1,#0]
        0x0000456a:    00cc        ..      LSLS     r4,r1,#3
        0x0000456c:    191a        ..      ADDS     r2,r3,r4
        0x0000456e:    591b        .Y      LDR      r3,[r3,r4]
        0x00004570:    9305        ..      STR      r3,[sp,#0x14]
        0x00004572:    6852        Rh      LDR      r2,[r2,#4]
        0x00004574:    9204        ..      STR      r2,[sp,#0x10]
        0x00004576:    1e49        I.      SUBS     r1,r1,#1
        0x00004578:    b2c9        ..      UXTB     r1,r1
        0x0000457a:    f7fff9a7    ....    BL       getConstant ; 0x38cc
        0x0000457e:    9904        ..      LDR      r1,[sp,#0x10]
        0x00004580:    4603        .F      MOV      r3,r0
        0x00004582:    9805        ..      LDR      r0,[sp,#0x14]
        0x00004584:    2240        @"      MOVS     r2,#0x40
        0x00004586:    1ad2        ..      SUBS     r2,r2,r3
        0x00004588:    f7fbfe90    ....    BL       __aeabi_llsr ; 0x2ac
        0x0000458c:    9a06        ..      LDR      r2,[sp,#0x18]
        0x0000458e:    4603        .F      MOV      r3,r0
        0x00004590:    9807        ..      LDR      r0,[sp,#0x1c]
        0x00004592:    460c        .F      MOV      r4,r1
        0x00004594:    9908        ..      LDR      r1,[sp,#0x20]
        0x00004596:    4061        a@      EORS     r1,r1,r4
        0x00004598:    405a        Z@      EORS     r2,r2,r3
        0x0000459a:    9b0b        ..      LDR      r3,[sp,#0x2c]
        0x0000459c:    7800        .x      LDRB     r0,[r0,#0]
        0x0000459e:    00c4        ..      LSLS     r4,r0,#3
        0x000045a0:    1918        ..      ADDS     r0,r3,r4
        0x000045a2:    511a        .Q      STR      r2,[r3,r4]
        0x000045a4:    6041        A`      STR      r1,[r0,#4]
        0x000045a6:    e7ff        ..      B        0x45a8 ; sha3_permutation + 168
        0x000045a8:    9809        ..      LDR      r0,[sp,#0x24]
        0x000045aa:    1c40        @.      ADDS     r0,r0,#1
        0x000045ac:    a909        ..      ADD      r1,sp,#0x24
        0x000045ae:    7008        .p      STRB     r0,[r1,#0]
        0x000045b0:    e7b9        ..      B        0x4526 ; sha3_permutation + 38
        0x000045b2:    980b        ..      LDR      r0,[sp,#0x2c]
        0x000045b4:    f7fffb56    ..V.    BL       keccak_pi ; 0x3c64
        0x000045b8:    980b        ..      LDR      r0,[sp,#0x2c]
        0x000045ba:    f7fffa9f    ....    BL       keccak_chi ; 0x3afc
        0x000045be:    a80a        ..      ADD      r0,sp,#0x28
        0x000045c0:    7800        .x      LDRB     r0,[r0,#0]
        0x000045c2:    f7fffa1b    ....    BL       get_round_constant ; 0x39fc
        0x000045c6:    4604        .F      MOV      r4,r0
        0x000045c8:    460b        .F      MOV      r3,r1
        0x000045ca:    990b        ..      LDR      r1,[sp,#0x2c]
        0x000045cc:    684a        Jh      LDR      r2,[r1,#4]
        0x000045ce:    6808        .h      LDR      r0,[r1,#0]
        0x000045d0:    4060        `@      EORS     r0,r0,r4
        0x000045d2:    405a        Z@      EORS     r2,r2,r3
        0x000045d4:    604a        J`      STR      r2,[r1,#4]
        0x000045d6:    6008        .`      STR      r0,[r1,#0]
        0x000045d8:    e7ff        ..      B        0x45da ; sha3_permutation + 218
        0x000045da:    980a        ..      LDR      r0,[sp,#0x28]
        0x000045dc:    1c40        @.      ADDS     r0,r0,#1
        0x000045de:    a90a        ..      ADD      r1,sp,#0x28
        0x000045e0:    7008        .p      STRB     r0,[r1,#0]
        0x000045e2:    e794        ..      B        0x450e ; sha3_permutation + 14
        0x000045e4:    b00c        ..      ADD      sp,sp,#0x30
        0x000045e6:    bd10        ..      POP      {r4,pc}
    sha3_process_block
        0x000045e8:    b570        p.      PUSH     {r4-r6,lr}
        0x000045ea:    b084        ..      SUB      sp,sp,#0x10
        0x000045ec:    9003        ..      STR      r0,[sp,#0xc]
        0x000045ee:    9102        ..      STR      r1,[sp,#8]
        0x000045f0:    a901        ..      ADD      r1,sp,#4
        0x000045f2:    2000        .       MOVS     r0,#0
        0x000045f4:    7008        .p      STRB     r0,[r1,#0]
        0x000045f6:    e7ff        ..      B        0x45f8 ; sha3_process_block + 16
        0x000045f8:    a801        ..      ADD      r0,sp,#4
        0x000045fa:    7800        .x      LDRB     r0,[r0,#0]
        0x000045fc:    2810        .(      CMP      r0,#0x10
        0x000045fe:    dc15        ..      BGT      0x462c ; sha3_process_block + 68
        0x00004600:    e7ff        ..      B        0x4602 ; sha3_process_block + 26
        0x00004602:    9902        ..      LDR      r1,[sp,#8]
        0x00004604:    a801        ..      ADD      r0,sp,#4
        0x00004606:    7800        .x      LDRB     r0,[r0,#0]
        0x00004608:    00c4        ..      LSLS     r4,r0,#3
        0x0000460a:    1908        ..      ADDS     r0,r1,r4
        0x0000460c:    590d        .Y      LDR      r5,[r1,r4]
        0x0000460e:    6846        Fh      LDR      r6,[r0,#4]
        0x00004610:    9b03        ..      LDR      r3,[sp,#0xc]
        0x00004612:    1919        ..      ADDS     r1,r3,r4
        0x00004614:    591a        .Y      LDR      r2,[r3,r4]
        0x00004616:    6848        Hh      LDR      r0,[r1,#4]
        0x00004618:    4070        p@      EORS     r0,r0,r6
        0x0000461a:    406a        j@      EORS     r2,r2,r5
        0x0000461c:    511a        .Q      STR      r2,[r3,r4]
        0x0000461e:    6048        H`      STR      r0,[r1,#4]
        0x00004620:    e7ff        ..      B        0x4622 ; sha3_process_block + 58
        0x00004622:    9801        ..      LDR      r0,[sp,#4]
        0x00004624:    1c40        @.      ADDS     r0,r0,#1
        0x00004626:    a901        ..      ADD      r1,sp,#4
        0x00004628:    7008        .p      STRB     r0,[r1,#0]
        0x0000462a:    e7e5        ..      B        0x45f8 ; sha3_process_block + 16
        0x0000462c:    9803        ..      LDR      r0,[sp,#0xc]
        0x0000462e:    f7ffff67    ..g.    BL       sha3_permutation ; 0x4500
        0x00004632:    b004        ..      ADD      sp,sp,#0x10
        0x00004634:    bd70        p.      POP      {r4-r6,pc}
        0x00004636:    0000        ..      MOVS     r0,r0
    $t
    i.__0printf
    __0printf
    __1printf
    __2printf
    __c89printf
    printf
        0x00004638:    b40f        ..      PUSH     {r0-r3}
        0x0000463a:    b510        ..      PUSH     {r4,lr}
        0x0000463c:    a903        ..      ADD      r1,sp,#0xc
        0x0000463e:    4b04        .K      LDR      r3,[pc,#16] ; [0x4650] = 0x38b9
        0x00004640:    4a04        .J      LDR      r2,[pc,#16] ; [0x4654] = 0x20001be4
        0x00004642:    9802        ..      LDR      r0,[sp,#8]
        0x00004644:    f000f904    ....    BL       _printf_core ; 0x4850
        0x00004648:    bc10        ..      POP      {r4}
        0x0000464a:    bc08        ..      POP      {r3}
        0x0000464c:    b004        ..      ADD      sp,sp,#0x10
        0x0000464e:    4718        .G      BX       r3
    $d
        0x00004650:    000038b9    .8..    DCD    14521
        0x00004654:    20001be4    ...     DCD    536878052
    $t
    i.__0sprintf
    __0sprintf
    __1sprintf
    __2sprintf
    __c89sprintf
    sprintf
        0x00004658:    b40f        ..      PUSH     {r0-r3}
        0x0000465a:    b510        ..      PUSH     {r4,lr}
        0x0000465c:    a904        ..      ADD      r1,sp,#0x10
        0x0000465e:    4b07        .K      LDR      r3,[pc,#28] ; [0x467c] = 0x4f89
        0x00004660:    aa02        ..      ADD      r2,sp,#8
        0x00004662:    9803        ..      LDR      r0,[sp,#0xc]
        0x00004664:    f000f8f4    ....    BL       _printf_core ; 0x4850
        0x00004668:    4604        .F      MOV      r4,r0
        0x0000466a:    a902        ..      ADD      r1,sp,#8
        0x0000466c:    2000        .       MOVS     r0,#0
        0x0000466e:    f000fc8b    ....    BL       _sputc ; 0x4f88
        0x00004672:    4620         F      MOV      r0,r4
        0x00004674:    bc10        ..      POP      {r4}
        0x00004676:    bc08        ..      POP      {r3}
        0x00004678:    b004        ..      ADD      sp,sp,#0x10
        0x0000467a:    4718        .G      BX       r3
    $d
        0x0000467c:    00004f89    .O..    DCD    20361
    $t
    i.__ARM_clz
    __ARM_clz
        0x00004680:    2120         !      MOVS     r1,#0x20
        0x00004682:    0c02        ..      LSRS     r2,r0,#16
        0x00004684:    d001        ..      BEQ      0x468a ; __ARM_clz + 10
        0x00004686:    2110        .!      MOVS     r1,#0x10
        0x00004688:    4610        .F      MOV      r0,r2
        0x0000468a:    0a02        ..      LSRS     r2,r0,#8
        0x0000468c:    d001        ..      BEQ      0x4692 ; __ARM_clz + 18
        0x0000468e:    4610        .F      MOV      r0,r2
        0x00004690:    3908        .9      SUBS     r1,r1,#8
        0x00004692:    0902        ..      LSRS     r2,r0,#4
        0x00004694:    d001        ..      BEQ      0x469a ; __ARM_clz + 26
        0x00004696:    4610        .F      MOV      r0,r2
        0x00004698:    1f09        ..      SUBS     r1,r1,#4
        0x0000469a:    0882        ..      LSRS     r2,r0,#2
        0x0000469c:    d001        ..      BEQ      0x46a2 ; __ARM_clz + 34
        0x0000469e:    4610        .F      MOV      r0,r2
        0x000046a0:    1e89        ..      SUBS     r1,r1,#2
        0x000046a2:    0842        B.      LSRS     r2,r0,#1
        0x000046a4:    d001        ..      BEQ      0x46aa ; __ARM_clz + 42
        0x000046a6:    1e88        ..      SUBS     r0,r1,#2
        0x000046a8:    4770        pG      BX       lr
        0x000046aa:    1a08        ..      SUBS     r0,r1,r0
        0x000046ac:    4770        pG      BX       lr
    i.__scatterload_copy
    __scatterload_copy
        0x000046ae:    e002        ..      B        0x46b6 ; __scatterload_copy + 8
        0x000046b0:    c808        ..      LDM      r0!,{r3}
        0x000046b2:    1f12        ..      SUBS     r2,r2,#4
        0x000046b4:    c108        ..      STM      r1!,{r3}
        0x000046b6:    2a00        .*      CMP      r2,#0
        0x000046b8:    d1fa        ..      BNE      0x46b0 ; __scatterload_copy + 2
        0x000046ba:    4770        pG      BX       lr
    i.__scatterload_null
    __scatterload_null
        0x000046bc:    4770        pG      BX       lr
    i.__scatterload_zeroinit
    __scatterload_zeroinit
        0x000046be:    2000        .       MOVS     r0,#0
        0x000046c0:    e001        ..      B        0x46c6 ; __scatterload_zeroinit + 8
        0x000046c2:    c101        ..      STM      r1!,{r0}
        0x000046c4:    1f12        ..      SUBS     r2,r2,#4
        0x000046c6:    2a00        .*      CMP      r2,#0
        0x000046c8:    d1fb        ..      BNE      0x46c2 ; __scatterload_zeroinit + 4
        0x000046ca:    4770        pG      BX       lr
    i._fp_digits
    _fp_digits
        0x000046cc:    b5f0        ..      PUSH     {r4-r7,lr}
        0x000046ce:    b41f        ..      PUSH     {r0-r4}
        0x000046d0:    b086        ..      SUB      sp,sp,#0x18
        0x000046d2:    9809        ..      LDR      r0,[sp,#0x24]
        0x000046d4:    9a08        ..      LDR      r2,[sp,#0x20]
        0x000046d6:    0d03        ..      LSRS     r3,r0,#20
        0x000046d8:    2100        .!      MOVS     r1,#0
        0x000046da:    4302        .C      ORRS     r2,r2,r0
        0x000046dc:    d014        ..      BEQ      0x4708 ; _fp_digits + 60
        0x000046de:    4851        QH      LDR      r0,[pc,#324] ; [0x4824] = 0xfffffc01
        0x000046e0:    4a51        QJ      LDR      r2,[pc,#324] ; [0x4828] = 0x4d10
        0x000046e2:    1818        ..      ADDS     r0,r3,r0
        0x000046e4:    4350        PC      MULS     r0,r2,r0
        0x000046e6:    1405        ..      ASRS     r5,r0,#16
        0x000046e8:    9811        ..      LDR      r0,[sp,#0x44]
        0x000046ea:    2801        .(      CMP      r0,#1
        0x000046ec:    9810        ..      LDR      r0,[sp,#0x40]
        0x000046ee:    d01a        ..      BEQ      0x4726 ; _fp_digits + 90
        0x000046f0:    1a28        (.      SUBS     r0,r5,r0
        0x000046f2:    1c40        @.      ADDS     r0,r0,#1
        0x000046f4:    2600        .&      MOVS     r6,#0
        0x000046f6:    4f4d        MO      LDR      r7,[pc,#308] ; [0x482c] = 0x40140000
        0x000046f8:    494d        MI      LDR      r1,[pc,#308] ; [0x4830] = 0x3ff00000
        0x000046fa:    9600        ..      STR      r6,[sp,#0]
        0x000046fc:    9101        ..      STR      r1,[sp,#4]
        0x000046fe:    9004        ..      STR      r0,[sp,#0x10]
        0x00004700:    2800        .(      CMP      r0,#0
        0x00004702:    da12        ..      BGE      0x472a ; _fp_digits + 94
        0x00004704:    4244        DB      RSBS     r4,r0,#0
        0x00004706:    e011        ..      B        0x472c ; _fp_digits + 96
        0x00004708:    9811        ..      LDR      r0,[sp,#0x44]
        0x0000470a:    2401        .$      MOVS     r4,#1
        0x0000470c:    a349        I.      ADR      r3,{pc}+0x128 ; 0x4834
        0x0000470e:    2801        .(      CMP      r0,#1
        0x00004710:    d101        ..      BNE      0x4716 ; _fp_digits + 74
        0x00004712:    9810        ..      LDR      r0,[sp,#0x40]
        0x00004714:    43c1        .C      MVNS     r1,r0
        0x00004716:    9806        ..      LDR      r0,[sp,#0x18]
        0x00004718:    9a11        ..      LDR      r2,[sp,#0x44]
        0x0000471a:    6084        .`      STR      r4,[r0,#8]
        0x0000471c:    6003        .`      STR      r3,[r0,#0]
        0x0000471e:    60c2        .`      STR      r2,[r0,#0xc]
        0x00004720:    6041        A`      STR      r1,[r0,#4]
        0x00004722:    b00b        ..      ADD      sp,sp,#0x2c
        0x00004724:    bdf0        ..      POP      {r4-r7,pc}
        0x00004726:    4240        @B      RSBS     r0,r0,#0
        0x00004728:    e7e4        ..      B        0x46f4 ; _fp_digits + 40
        0x0000472a:    4604        .F      MOV      r4,r0
        0x0000472c:    0521        !.      LSLS     r1,r4,#20
        0x0000472e:    2000        .       MOVS     r0,#0
        0x00004730:    4a3f        ?J      LDR      r2,[pc,#252] ; [0x4830] = 0x3ff00000
        0x00004732:    1c00        ..      ADDS     r0,r0,#0
        0x00004734:    4151        QA      ADCS     r1,r1,r2
        0x00004736:    9103        ..      STR      r1,[sp,#0xc]
        0x00004738:    9002        ..      STR      r0,[sp,#8]
        0x0000473a:    e012        ..      B        0x4762 ; _fp_digits + 150
        0x0000473c:    07e0        ..      LSLS     r0,r4,#31
        0x0000473e:    d007        ..      BEQ      0x4750 ; _fp_digits + 132
        0x00004740:    4632        2F      MOV      r2,r6
        0x00004742:    463b        ;F      MOV      r3,r7
        0x00004744:    9901        ..      LDR      r1,[sp,#4]
        0x00004746:    9800        ..      LDR      r0,[sp,#0]
        0x00004748:    f7fcfab6    ....    BL       __aeabi_dmul ; 0xcb8
        0x0000474c:    9101        ..      STR      r1,[sp,#4]
        0x0000474e:    9000        ..      STR      r0,[sp,#0]
        0x00004750:    4632        2F      MOV      r2,r6
        0x00004752:    463b        ;F      MOV      r3,r7
        0x00004754:    4610        .F      MOV      r0,r2
        0x00004756:    4619        .F      MOV      r1,r3
        0x00004758:    f7fcfaae    ....    BL       __aeabi_dmul ; 0xcb8
        0x0000475c:    4606        .F      MOV      r6,r0
        0x0000475e:    460f        .F      MOV      r7,r1
        0x00004760:    1064        d.      ASRS     r4,r4,#1
        0x00004762:    2c00        .,      CMP      r4,#0
        0x00004764:    d1ea        ..      BNE      0x473c ; _fp_digits + 112
        0x00004766:    9804        ..      LDR      r0,[sp,#0x10]
        0x00004768:    9b03        ..      LDR      r3,[sp,#0xc]
        0x0000476a:    2800        .(      CMP      r0,#0
        0x0000476c:    9a02        ..      LDR      r2,[sp,#8]
        0x0000476e:    9909        ..      LDR      r1,[sp,#0x24]
        0x00004770:    9808        ..      LDR      r0,[sp,#0x20]
        0x00004772:    da06        ..      BGE      0x4782 ; _fp_digits + 182
        0x00004774:    f7fcfaa0    ....    BL       __aeabi_dmul ; 0xcb8
        0x00004778:    9b01        ..      LDR      r3,[sp,#4]
        0x0000477a:    9a00        ..      LDR      r2,[sp,#0]
        0x0000477c:    f7fcfa9c    ....    BL       __aeabi_dmul ; 0xcb8
        0x00004780:    e005        ..      B        0x478e ; _fp_digits + 194
        0x00004782:    f7fcfb01    ....    BL       __aeabi_ddiv ; 0xd88
        0x00004786:    9b01        ..      LDR      r3,[sp,#4]
        0x00004788:    9a00        ..      LDR      r2,[sp,#0]
        0x0000478a:    f7fcfafd    ....    BL       __aeabi_ddiv ; 0xd88
        0x0000478e:    4604        .F      MOV      r4,r0
        0x00004790:    460e        .F      MOV      r6,r1
        0x00004792:    2200        ."      MOVS     r2,#0
        0x00004794:    4b28        (K      LDR      r3,[pc,#160] ; [0x4838] = 0x43f00000
        0x00004796:    f7fcfb8f    ....    BL       __aeabi_cdrcmple ; 0xeb8
        0x0000479a:    d803        ..      BHI      0x47a4 ; _fp_digits + 216
        0x0000479c:    2000        .       MOVS     r0,#0
        0x0000479e:    43c0        .C      MVNS     r0,r0
        0x000047a0:    4601        .F      MOV      r1,r0
        0x000047a2:    e007        ..      B        0x47b4 ; _fp_digits + 232
        0x000047a4:    2200        ."      MOVS     r2,#0
        0x000047a6:    4b25        %K      LDR      r3,[pc,#148] ; [0x483c] = 0x3fe00000
        0x000047a8:    4620         F      MOV      r0,r4
        0x000047aa:    4631        1F      MOV      r1,r6
        0x000047ac:    f7fcf9d2    ....    BL       __I$use$fp ; 0xb54
        0x000047b0:    f7fcfb62    ..b.    BL       __aeabi_d2ulz ; 0xe78
        0x000047b4:    2410        .$      MOVS     r4,#0x10
        0x000047b6:    e009        ..      B        0x47cc ; _fp_digits + 256
        0x000047b8:    2c00        .,      CMP      r4,#0
        0x000047ba:    db0a        ..      BLT      0x47d2 ; _fp_digits + 262
        0x000047bc:    220a        ."      MOVS     r2,#0xa
        0x000047be:    2300        .#      MOVS     r3,#0
        0x000047c0:    f7fbfde2    ....    BL       __aeabi_uldivmod ; 0x388
        0x000047c4:    9b07        ..      LDR      r3,[sp,#0x1c]
        0x000047c6:    3230        02      ADDS     r2,r2,#0x30
        0x000047c8:    551a        .U      STRB     r2,[r3,r4]
        0x000047ca:    1e64        d.      SUBS     r4,r4,#1
        0x000047cc:    4602        .F      MOV      r2,r0
        0x000047ce:    430a        .C      ORRS     r2,r2,r1
        0x000047d0:    d1f2        ..      BNE      0x47b8 ; _fp_digits + 236
        0x000047d2:    2211        ."      MOVS     r2,#0x11
        0x000047d4:    1c64        d.      ADDS     r4,r4,#1
        0x000047d6:    9b07        ..      LDR      r3,[sp,#0x1c]
        0x000047d8:    1b12        ..      SUBS     r2,r2,r4
        0x000047da:    191c        ..      ADDS     r4,r3,r4
        0x000047dc:    9b11        ..      LDR      r3,[sp,#0x44]
        0x000047de:    2b01        .+      CMP      r3,#1
        0x000047e0:    d003        ..      BEQ      0x47ea ; _fp_digits + 286
        0x000047e2:    2301        .#      MOVS     r3,#1
        0x000047e4:    4308        .C      ORRS     r0,r0,r1
        0x000047e6:    d10e        ..      BNE      0x4806 ; _fp_digits + 314
        0x000047e8:    e00a        ..      B        0x4800 ; _fp_digits + 308
        0x000047ea:    4308        .C      ORRS     r0,r0,r1
        0x000047ec:    d004        ..      BEQ      0x47f8 ; _fp_digits + 300
        0x000047ee:    2011        .       MOVS     r0,#0x11
        0x000047f0:    9010        ..      STR      r0,[sp,#0x40]
        0x000047f2:    2000        .       MOVS     r0,#0
        0x000047f4:    9011        ..      STR      r0,[sp,#0x44]
        0x000047f6:    e777        w.      B        0x46e8 ; _fp_digits + 28
        0x000047f8:    9810        ..      LDR      r0,[sp,#0x40]
        0x000047fa:    1a15        ..      SUBS     r5,r2,r0
        0x000047fc:    1e6d        m.      SUBS     r5,r5,#1
        0x000047fe:    e00b        ..      B        0x4818 ; _fp_digits + 332
        0x00004800:    9810        ..      LDR      r0,[sp,#0x40]
        0x00004802:    4282        .B      CMP      r2,r0
        0x00004804:    dd02        ..      BLE      0x480c ; _fp_digits + 320
        0x00004806:    2300        .#      MOVS     r3,#0
        0x00004808:    1c6d        m.      ADDS     r5,r5,#1
        0x0000480a:    e003        ..      B        0x4814 ; _fp_digits + 328
        0x0000480c:    4282        .B      CMP      r2,r0
        0x0000480e:    da01        ..      BGE      0x4814 ; _fp_digits + 328
        0x00004810:    2300        .#      MOVS     r3,#0
        0x00004812:    1e6d        m.      SUBS     r5,r5,#1
        0x00004814:    2b00        .+      CMP      r3,#0
        0x00004816:    d0ee        ..      BEQ      0x47f6 ; _fp_digits + 298
        0x00004818:    9806        ..      LDR      r0,[sp,#0x18]
        0x0000481a:    9911        ..      LDR      r1,[sp,#0x44]
        0x0000481c:    6082        .`      STR      r2,[r0,#8]
        0x0000481e:    60c1        .`      STR      r1,[r0,#0xc]
        0x00004820:    c030        0.      STM      r0!,{r4,r5}
        0x00004822:    e77e        ~.      B        0x4722 ; _fp_digits + 86
    $d
        0x00004824:    fffffc01    ....    DCD    4294966273
        0x00004828:    00004d10    .M..    DCD    19728
        0x0000482c:    40140000    ...@    DCD    1075052544
        0x00004830:    3ff00000    ...?    DCD    1072693248
        0x00004834:    00000030    0...    DCD    48
        0x00004838:    43f00000    ...C    DCD    1139802112
        0x0000483c:    3fe00000    ...?    DCD    1071644672
    $t
    i._is_digit
    _is_digit
        0x00004840:    3830        08      SUBS     r0,r0,#0x30
        0x00004842:    280a        .(      CMP      r0,#0xa
        0x00004844:    d201        ..      BCS      0x484a ; _is_digit + 10
        0x00004846:    2001        .       MOVS     r0,#1
        0x00004848:    4770        pG      BX       lr
        0x0000484a:    2000        .       MOVS     r0,#0
        0x0000484c:    4770        pG      BX       lr
        0x0000484e:    0000        ..      MOVS     r0,r0
    i._printf_core
    _printf_core
        0x00004850:    b5ff        ..      PUSH     {r0-r7,lr}
        0x00004852:    b097        ..      SUB      sp,sp,#0x5c
        0x00004854:    4606        .F      MOV      r6,r0
        0x00004856:    2500        .%      MOVS     r5,#0
        0x00004858:    e218        ..      B        0x4c8c ; _printf_core + 1084
        0x0000485a:    2825        %(      CMP      r0,#0x25
        0x0000485c:    d177        w.      BNE      0x494e ; _printf_core + 254
        0x0000485e:    2400        .$      MOVS     r4,#0
        0x00004860:    4627        'F      MOV      r7,r4
        0x00004862:    49fd        .I      LDR      r1,[pc,#1012] ; [0x4c58] = 0x12809
        0x00004864:    9404        ..      STR      r4,[sp,#0x10]
        0x00004866:    e000        ..      B        0x486a ; _printf_core + 26
        0x00004868:    4304        .C      ORRS     r4,r4,r0
        0x0000486a:    1c76        v.      ADDS     r6,r6,#1
        0x0000486c:    7832        2x      LDRB     r2,[r6,#0]
        0x0000486e:    2001        .       MOVS     r0,#1
        0x00004870:    3a20         :      SUBS     r2,r2,#0x20
        0x00004872:    4090        .@      LSLS     r0,r0,r2
        0x00004874:    4208        .B      TST      r0,r1
        0x00004876:    d1f7        ..      BNE      0x4868 ; _printf_core + 24
        0x00004878:    7830        0x      LDRB     r0,[r6,#0]
        0x0000487a:    282a        *(      CMP      r0,#0x2a
        0x0000487c:    d00e        ..      BEQ      0x489c ; _printf_core + 76
        0x0000487e:    2202        ."      MOVS     r2,#2
        0x00004880:    7830        0x      LDRB     r0,[r6,#0]
        0x00004882:    4601        .F      MOV      r1,r0
        0x00004884:    3930        09      SUBS     r1,r1,#0x30
        0x00004886:    2909        .)      CMP      r1,#9
        0x00004888:    d816        ..      BHI      0x48b8 ; _printf_core + 104
        0x0000488a:    9904        ..      LDR      r1,[sp,#0x10]
        0x0000488c:    230a        .#      MOVS     r3,#0xa
        0x0000488e:    4359        YC      MULS     r1,r3,r1
        0x00004890:    3930        09      SUBS     r1,r1,#0x30
        0x00004892:    1840        @.      ADDS     r0,r0,r1
        0x00004894:    4314        .C      ORRS     r4,r4,r2
        0x00004896:    1c76        v.      ADDS     r6,r6,#1
        0x00004898:    9004        ..      STR      r0,[sp,#0x10]
        0x0000489a:    e7f1        ..      B        0x4880 ; _printf_core + 48
        0x0000489c:    9818        ..      LDR      r0,[sp,#0x60]
        0x0000489e:    c802        ..      LDM      r0!,{r1}
        0x000048a0:    9104        ..      STR      r1,[sp,#0x10]
        0x000048a2:    9018        ..      STR      r0,[sp,#0x60]
        0x000048a4:    2900        .)      CMP      r1,#0
        0x000048a6:    da04        ..      BGE      0x48b2 ; _printf_core + 98
        0x000048a8:    2001        .       MOVS     r0,#1
        0x000048aa:    0340        @.      LSLS     r0,r0,#13
        0x000048ac:    4304        .C      ORRS     r4,r4,r0
        0x000048ae:    4248        HB      RSBS     r0,r1,#0
        0x000048b0:    9004        ..      STR      r0,[sp,#0x10]
        0x000048b2:    2002        .       MOVS     r0,#2
        0x000048b4:    4304        .C      ORRS     r4,r4,r0
        0x000048b6:    1c76        v.      ADDS     r6,r6,#1
        0x000048b8:    7830        0x      LDRB     r0,[r6,#0]
        0x000048ba:    282e        .(      CMP      r0,#0x2e
        0x000048bc:    d114        ..      BNE      0x48e8 ; _printf_core + 152
        0x000048be:    2004        .       MOVS     r0,#4
        0x000048c0:    4304        .C      ORRS     r4,r4,r0
        0x000048c2:    7870        px      LDRB     r0,[r6,#1]
        0x000048c4:    1c76        v.      ADDS     r6,r6,#1
        0x000048c6:    282a        *(      CMP      r0,#0x2a
        0x000048c8:    d109        ..      BNE      0x48de ; _printf_core + 142
        0x000048ca:    9818        ..      LDR      r0,[sp,#0x60]
        0x000048cc:    1c76        v.      ADDS     r6,r6,#1
        0x000048ce:    c880        ..      LDM      r0!,{r7}
        0x000048d0:    9018        ..      STR      r0,[sp,#0x60]
        0x000048d2:    e009        ..      B        0x48e8 ; _printf_core + 152
        0x000048d4:    210a        .!      MOVS     r1,#0xa
        0x000048d6:    434f        OC      MULS     r7,r1,r7
        0x000048d8:    3f30        0?      SUBS     r7,r7,#0x30
        0x000048da:    19c7        ..      ADDS     r7,r0,r7
        0x000048dc:    1c76        v.      ADDS     r6,r6,#1
        0x000048de:    7830        0x      LDRB     r0,[r6,#0]
        0x000048e0:    4601        .F      MOV      r1,r0
        0x000048e2:    3930        09      SUBS     r1,r1,#0x30
        0x000048e4:    2909        .)      CMP      r1,#9
        0x000048e6:    d9f5        ..      BLS      0x48d4 ; _printf_core + 132
        0x000048e8:    7830        0x      LDRB     r0,[r6,#0]
        0x000048ea:    286c        l(      CMP      r0,#0x6c
        0x000048ec:    d010        ..      BEQ      0x4910 ; _printf_core + 192
        0x000048ee:    dc06        ..      BGT      0x48fe ; _printf_core + 174
        0x000048f0:    284c        L(      CMP      r0,#0x4c
        0x000048f2:    d01a        ..      BEQ      0x492a ; _printf_core + 218
        0x000048f4:    2868        h(      CMP      r0,#0x68
        0x000048f6:    d00e        ..      BEQ      0x4916 ; _printf_core + 198
        0x000048f8:    286a        j(      CMP      r0,#0x6a
        0x000048fa:    d117        ..      BNE      0x492c ; _printf_core + 220
        0x000048fc:    e004        ..      B        0x4908 ; _printf_core + 184
        0x000048fe:    2874        t(      CMP      r0,#0x74
        0x00004900:    d013        ..      BEQ      0x492a ; _printf_core + 218
        0x00004902:    287a        z(      CMP      r0,#0x7a
        0x00004904:    d112        ..      BNE      0x492c ; _printf_core + 220
        0x00004906:    e010        ..      B        0x492a ; _printf_core + 218
        0x00004908:    2001        .       MOVS     r0,#1
        0x0000490a:    0540        @.      LSLS     r0,r0,#21
        0x0000490c:    4304        .C      ORRS     r4,r4,r0
        0x0000490e:    e00c        ..      B        0x492a ; _printf_core + 218
        0x00004910:    2101        .!      MOVS     r1,#1
        0x00004912:    0509        ..      LSLS     r1,r1,#20
        0x00004914:    e001        ..      B        0x491a ; _printf_core + 202
        0x00004916:    2103        .!      MOVS     r1,#3
        0x00004918:    0509        ..      LSLS     r1,r1,#20
        0x0000491a:    430c        .C      ORRS     r4,r4,r1
        0x0000491c:    7871        qx      LDRB     r1,[r6,#1]
        0x0000491e:    4281        .B      CMP      r1,r0
        0x00004920:    d103        ..      BNE      0x492a ; _printf_core + 218
        0x00004922:    2001        .       MOVS     r0,#1
        0x00004924:    0500        ..      LSLS     r0,r0,#20
        0x00004926:    1824        $.      ADDS     r4,r4,r0
        0x00004928:    1c76        v.      ADDS     r6,r6,#1
        0x0000492a:    1c76        v.      ADDS     r6,r6,#1
        0x0000492c:    7830        0x      LDRB     r0,[r6,#0]
        0x0000492e:    9011        ..      STR      r0,[sp,#0x44]
        0x00004930:    2866        f(      CMP      r0,#0x66
        0x00004932:    d00b        ..      BEQ      0x494c ; _printf_core + 252
        0x00004934:    dc13        ..      BGT      0x495e ; _printf_core + 270
        0x00004936:    2858        X(      CMP      r0,#0x58
        0x00004938:    d07d        }.      BEQ      0x4a36 ; _printf_core + 486
        0x0000493a:    dc09        ..      BGT      0x4950 ; _printf_core + 256
        0x0000493c:    2800        .(      CMP      r0,#0
        0x0000493e:    d07b        {.      BEQ      0x4a38 ; _printf_core + 488
        0x00004940:    2845        E(      CMP      r0,#0x45
        0x00004942:    d0f6        ..      BEQ      0x4932 ; _printf_core + 226
        0x00004944:    2846        F(      CMP      r0,#0x46
        0x00004946:    d0f4        ..      BEQ      0x4932 ; _printf_core + 226
        0x00004948:    2847        G(      CMP      r0,#0x47
        0x0000494a:    d11a        ..      BNE      0x4982 ; _printf_core + 306
        0x0000494c:    e1a5        ..      B        0x4c9a ; _printf_core + 1098
        0x0000494e:    e018        ..      B        0x4982 ; _printf_core + 306
        0x00004950:    2863        c(      CMP      r0,#0x63
        0x00004952:    d035        5.      BEQ      0x49c0 ; _printf_core + 368
        0x00004954:    2864        d(      CMP      r0,#0x64
        0x00004956:    d070        p.      BEQ      0x4a3a ; _printf_core + 490
        0x00004958:    2865        e(      CMP      r0,#0x65
        0x0000495a:    d112        ..      BNE      0x4982 ; _printf_core + 306
        0x0000495c:    e19d        ..      B        0x4c9a ; _printf_core + 1098
        0x0000495e:    2870        p(      CMP      r0,#0x70
        0x00004960:    d06c        l.      BEQ      0x4a3c ; _printf_core + 492
        0x00004962:    dc08        ..      BGT      0x4976 ; _printf_core + 294
        0x00004964:    2867        g(      CMP      r0,#0x67
        0x00004966:    d0f1        ..      BEQ      0x494c ; _printf_core + 252
        0x00004968:    2869        i(      CMP      r0,#0x69
        0x0000496a:    d07b        {.      BEQ      0x4a64 ; _printf_core + 532
        0x0000496c:    286e        n(      CMP      r0,#0x6e
        0x0000496e:    d00d        ..      BEQ      0x498c ; _printf_core + 316
        0x00004970:    286f        o(      CMP      r0,#0x6f
        0x00004972:    d106        ..      BNE      0x4982 ; _printf_core + 306
        0x00004974:    e0ba        ..      B        0x4aec ; _printf_core + 668
        0x00004976:    2873        s(      CMP      r0,#0x73
        0x00004978:    d02e        ..      BEQ      0x49d8 ; _printf_core + 392
        0x0000497a:    2875        u(      CMP      r0,#0x75
        0x0000497c:    d071        q.      BEQ      0x4a62 ; _printf_core + 530
        0x0000497e:    2878        x(      CMP      r0,#0x78
        0x00004980:    d059        Y.      BEQ      0x4a36 ; _printf_core + 486
        0x00004982:    9a1a        ..      LDR      r2,[sp,#0x68]
        0x00004984:    9919        ..      LDR      r1,[sp,#0x64]
        0x00004986:    4790        .G      BLX      r2
        0x00004988:    1c6d        m.      ADDS     r5,r5,#1
        0x0000498a:    e17e        ~.      B        0x4c8a ; _printf_core + 1082
        0x0000498c:    0260        `.      LSLS     r0,r4,#9
        0x0000498e:    0f40        @.      LSRS     r0,r0,#29
        0x00004990:    2802        .(      CMP      r0,#2
        0x00004992:    d009        ..      BEQ      0x49a8 ; _printf_core + 344
        0x00004994:    2803        .(      CMP      r0,#3
        0x00004996:    d00d        ..      BEQ      0x49b4 ; _printf_core + 356
        0x00004998:    2804        .(      CMP      r0,#4
        0x0000499a:    9818        ..      LDR      r0,[sp,#0x60]
        0x0000499c:    6801        .h      LDR      r1,[r0,#0]
        0x0000499e:    d00d        ..      BEQ      0x49bc ; _printf_core + 364
        0x000049a0:    600d        .`      STR      r5,[r1,#0]
        0x000049a2:    1d00        ..      ADDS     r0,r0,#4
        0x000049a4:    9018        ..      STR      r0,[sp,#0x60]
        0x000049a6:    e170        p.      B        0x4c8a ; _printf_core + 1082
        0x000049a8:    9818        ..      LDR      r0,[sp,#0x60]
        0x000049aa:    17ea        ..      ASRS     r2,r5,#31
        0x000049ac:    6801        .h      LDR      r1,[r0,#0]
        0x000049ae:    600d        .`      STR      r5,[r1,#0]
        0x000049b0:    604a        J`      STR      r2,[r1,#4]
        0x000049b2:    e7f6        ..      B        0x49a2 ; _printf_core + 338
        0x000049b4:    9818        ..      LDR      r0,[sp,#0x60]
        0x000049b6:    6801        .h      LDR      r1,[r0,#0]
        0x000049b8:    800d        ..      STRH     r5,[r1,#0]
        0x000049ba:    e7f2        ..      B        0x49a2 ; _printf_core + 338
        0x000049bc:    700d        .p      STRB     r5,[r1,#0]
        0x000049be:    e7f0        ..      B        0x49a2 ; _printf_core + 338
        0x000049c0:    9818        ..      LDR      r0,[sp,#0x60]
        0x000049c2:    466a        jF      MOV      r2,sp
        0x000049c4:    7801        .x      LDRB     r1,[r0,#0]
        0x000049c6:    7211        .r      STRB     r1,[r2,#8]
        0x000049c8:    1d00        ..      ADDS     r0,r0,#4
        0x000049ca:    9018        ..      STR      r0,[sp,#0x60]
        0x000049cc:    2000        .       MOVS     r0,#0
        0x000049ce:    7250        Pr      STRB     r0,[r2,#9]
        0x000049d0:    a802        ..      ADD      r0,sp,#8
        0x000049d2:    9000        ..      STR      r0,[sp,#0]
        0x000049d4:    2001        .       MOVS     r0,#1
        0x000049d6:    e005        ..      B        0x49e4 ; _printf_core + 404
        0x000049d8:    9818        ..      LDR      r0,[sp,#0x60]
        0x000049da:    c802        ..      LDM      r0!,{r1}
        0x000049dc:    9018        ..      STR      r0,[sp,#0x60]
        0x000049de:    2000        .       MOVS     r0,#0
        0x000049e0:    9100        ..      STR      r1,[sp,#0]
        0x000049e2:    43c0        .C      MVNS     r0,r0
        0x000049e4:    0761        a.      LSLS     r1,r4,#29
        0x000049e6:    d50d        ..      BPL      0x4a04 ; _printf_core + 436
        0x000049e8:    2100        .!      MOVS     r1,#0
        0x000049ea:    e001        ..      B        0x49f0 ; _printf_core + 416
        0x000049ec:    9901        ..      LDR      r1,[sp,#4]
        0x000049ee:    1c49        I.      ADDS     r1,r1,#1
        0x000049f0:    9101        ..      STR      r1,[sp,#4]
        0x000049f2:    42b9        .B      CMP      r1,r7
        0x000049f4:    da12        ..      BGE      0x4a1c ; _printf_core + 460
        0x000049f6:    4281        .B      CMP      r1,r0
        0x000049f8:    dbf8        ..      BLT      0x49ec ; _printf_core + 412
        0x000049fa:    9a00        ..      LDR      r2,[sp,#0]
        0x000049fc:    5c51        Q\      LDRB     r1,[r2,r1]
        0x000049fe:    2900        .)      CMP      r1,#0
        0x00004a00:    d1f4        ..      BNE      0x49ec ; _printf_core + 412
        0x00004a02:    e00b        ..      B        0x4a1c ; _printf_core + 460
        0x00004a04:    2100        .!      MOVS     r1,#0
        0x00004a06:    e001        ..      B        0x4a0c ; _printf_core + 444
        0x00004a08:    9901        ..      LDR      r1,[sp,#4]
        0x00004a0a:    1c49        I.      ADDS     r1,r1,#1
        0x00004a0c:    9101        ..      STR      r1,[sp,#4]
        0x00004a0e:    4281        .B      CMP      r1,r0
        0x00004a10:    dbfa        ..      BLT      0x4a08 ; _printf_core + 440
        0x00004a12:    9a01        ..      LDR      r2,[sp,#4]
        0x00004a14:    9900        ..      LDR      r1,[sp,#0]
        0x00004a16:    5c89        .\      LDRB     r1,[r1,r2]
        0x00004a18:    2900        .)      CMP      r1,#0
        0x00004a1a:    d1f5        ..      BNE      0x4a08 ; _printf_core + 440
        0x00004a1c:    9901        ..      LDR      r1,[sp,#4]
        0x00004a1e:    9804        ..      LDR      r0,[sp,#0x10]
        0x00004a20:    9b1a        ..      LDR      r3,[sp,#0x68]
        0x00004a22:    1a47        G.      SUBS     r7,r0,r1
        0x00004a24:    4621        !F      MOV      r1,r4
        0x00004a26:    4638        8F      MOV      r0,r7
        0x00004a28:    9a19        ..      LDR      r2,[sp,#0x64]
        0x00004a2a:    f000fa97    ....    BL       _printf_pre_padding ; 0x4f5c
        0x00004a2e:    9901        ..      LDR      r1,[sp,#4]
        0x00004a30:    1940        @.      ADDS     r0,r0,r5
        0x00004a32:    1845        E.      ADDS     r5,r0,r1
        0x00004a34:    e00b        ..      B        0x4a4e ; _printf_core + 510
        0x00004a36:    e04f        O.      B        0x4ad8 ; _printf_core + 648
        0x00004a38:    e12c        ,.      B        0x4c94 ; _printf_core + 1092
        0x00004a3a:    e013        ..      B        0x4a64 ; _printf_core + 532
        0x00004a3c:    e04e        N.      B        0x4adc ; _printf_core + 652
        0x00004a3e:    9800        ..      LDR      r0,[sp,#0]
        0x00004a40:    9900        ..      LDR      r1,[sp,#0]
        0x00004a42:    7800        .x      LDRB     r0,[r0,#0]
        0x00004a44:    1c49        I.      ADDS     r1,r1,#1
        0x00004a46:    9100        ..      STR      r1,[sp,#0]
        0x00004a48:    9a1a        ..      LDR      r2,[sp,#0x68]
        0x00004a4a:    9919        ..      LDR      r1,[sp,#0x64]
        0x00004a4c:    4790        .G      BLX      r2
        0x00004a4e:    9801        ..      LDR      r0,[sp,#4]
        0x00004a50:    1e40        @.      SUBS     r0,r0,#1
        0x00004a52:    9001        ..      STR      r0,[sp,#4]
        0x00004a54:    1c40        @.      ADDS     r0,r0,#1
        0x00004a56:    d1f2        ..      BNE      0x4a3e ; _printf_core + 494
        0x00004a58:    4621        !F      MOV      r1,r4
        0x00004a5a:    4638        8F      MOV      r0,r7
        0x00004a5c:    9b1a        ..      LDR      r3,[sp,#0x68]
        0x00004a5e:    9a19        ..      LDR      r2,[sp,#0x64]
        0x00004a60:    e110        ..      B        0x4c84 ; _printf_core + 1076
        0x00004a62:    e037        7.      B        0x4ad4 ; _printf_core + 644
        0x00004a64:    200a        .       MOVS     r0,#0xa
        0x00004a66:    2100        .!      MOVS     r1,#0
        0x00004a68:    9000        ..      STR      r0,[sp,#0]
        0x00004a6a:    9101        ..      STR      r1,[sp,#4]
        0x00004a6c:    0260        `.      LSLS     r0,r4,#9
        0x00004a6e:    0f41        A.      LSRS     r1,r0,#29
        0x00004a70:    2902        .)      CMP      r1,#2
        0x00004a72:    d007        ..      BEQ      0x4a84 ; _printf_core + 564
        0x00004a74:    9a18        ..      LDR      r2,[sp,#0x60]
        0x00004a76:    ca01        ..      LDM      r2!,{r0}
        0x00004a78:    9218        ..      STR      r2,[sp,#0x60]
        0x00004a7a:    17c2        ..      ASRS     r2,r0,#31
        0x00004a7c:    4694        .F      MOV      r12,r2
        0x00004a7e:    2903        .)      CMP      r1,#3
        0x00004a80:    d008        ..      BEQ      0x4a94 ; _printf_core + 580
        0x00004a82:    e00a        ..      B        0x4a9a ; _printf_core + 586
        0x00004a84:    9818        ..      LDR      r0,[sp,#0x60]
        0x00004a86:    1dc0        ..      ADDS     r0,r0,#7
        0x00004a88:    08c1        ..      LSRS     r1,r0,#3
        0x00004a8a:    00c9        ..      LSLS     r1,r1,#3
        0x00004a8c:    c905        ..      LDM      r1!,{r0,r2}
        0x00004a8e:    9118        ..      STR      r1,[sp,#0x60]
        0x00004a90:    4694        .F      MOV      r12,r2
        0x00004a92:    e007        ..      B        0x4aa4 ; _printf_core + 596
        0x00004a94:    b200        ..      SXTH     r0,r0
        0x00004a96:    17c2        ..      ASRS     r2,r0,#31
        0x00004a98:    4694        .F      MOV      r12,r2
        0x00004a9a:    2904        .)      CMP      r1,#4
        0x00004a9c:    d102        ..      BNE      0x4aa4 ; _printf_core + 596
        0x00004a9e:    b240        @.      SXTB     r0,r0
        0x00004aa0:    17c1        ..      ASRS     r1,r0,#31
        0x00004aa2:    468c        .F      MOV      r12,r1
        0x00004aa4:    2200        ."      MOVS     r2,#0
        0x00004aa6:    4661        aF      MOV      r1,r12
        0x00004aa8:    4594        .E      CMP      r12,r2
        0x00004aaa:    da06        ..      BGE      0x4aba ; _printf_core + 618
        0x00004aac:    460a        .F      MOV      r2,r1
        0x00004aae:    2100        .!      MOVS     r1,#0
        0x00004ab0:    4240        @B      RSBS     r0,r0,#0
        0x00004ab2:    4191        .A      SBCS     r1,r1,r2
        0x00004ab4:    468c        .F      MOV      r12,r1
        0x00004ab6:    212d        -!      MOVS     r1,#0x2d
        0x00004ab8:    e002        ..      B        0x4ac0 ; _printf_core + 624
        0x00004aba:    0521        !.      LSLS     r1,r4,#20
        0x00004abc:    d504        ..      BPL      0x4ac8 ; _printf_core + 632
        0x00004abe:    212b        +!      MOVS     r1,#0x2b
        0x00004ac0:    466a        jF      MOV      r2,sp
        0x00004ac2:    7311        .s      STRB     r1,[r2,#0xc]
        0x00004ac4:    2101        .!      MOVS     r1,#1
        0x00004ac6:    e003        ..      B        0x4ad0 ; _printf_core + 640
        0x00004ac8:    07e1        ..      LSLS     r1,r4,#31
        0x00004aca:    d001        ..      BEQ      0x4ad0 ; _printf_core + 640
        0x00004acc:    2120         !      MOVS     r1,#0x20
        0x00004ace:    e7f7        ..      B        0x4ac0 ; _printf_core + 624
        0x00004ad0:    9102        ..      STR      r1,[sp,#8]
        0x00004ad2:    e055        U.      B        0x4b80 ; _printf_core + 816
        0x00004ad4:    200a        .       MOVS     r0,#0xa
        0x00004ad6:    e00a        ..      B        0x4aee ; _printf_core + 670
        0x00004ad8:    2010        .       MOVS     r0,#0x10
        0x00004ada:    e008        ..      B        0x4aee ; _printf_core + 670
        0x00004adc:    2010        .       MOVS     r0,#0x10
        0x00004ade:    9000        ..      STR      r0,[sp,#0]
        0x00004ae0:    2100        .!      MOVS     r1,#0
        0x00004ae2:    2004        .       MOVS     r0,#4
        0x00004ae4:    4304        .C      ORRS     r4,r4,r0
        0x00004ae6:    9101        ..      STR      r1,[sp,#4]
        0x00004ae8:    2708        .'      MOVS     r7,#8
        0x00004aea:    e003        ..      B        0x4af4 ; _printf_core + 676
        0x00004aec:    2008        .       MOVS     r0,#8
        0x00004aee:    2100        .!      MOVS     r1,#0
        0x00004af0:    9101        ..      STR      r1,[sp,#4]
        0x00004af2:    9000        ..      STR      r0,[sp,#0]
        0x00004af4:    0260        `.      LSLS     r0,r4,#9
        0x00004af6:    0f41        A.      LSRS     r1,r0,#29
        0x00004af8:    2902        .)      CMP      r1,#2
        0x00004afa:    d007        ..      BEQ      0x4b0c ; _printf_core + 700
        0x00004afc:    9a18        ..      LDR      r2,[sp,#0x60]
        0x00004afe:    ca01        ..      LDM      r2!,{r0}
        0x00004b00:    9218        ..      STR      r2,[sp,#0x60]
        0x00004b02:    2200        ."      MOVS     r2,#0
        0x00004b04:    4694        .F      MOV      r12,r2
        0x00004b06:    2903        .)      CMP      r1,#3
        0x00004b08:    d008        ..      BEQ      0x4b1c ; _printf_core + 716
        0x00004b0a:    e008        ..      B        0x4b1e ; _printf_core + 718
        0x00004b0c:    9818        ..      LDR      r0,[sp,#0x60]
        0x00004b0e:    1dc0        ..      ADDS     r0,r0,#7
        0x00004b10:    08c1        ..      LSRS     r1,r0,#3
        0x00004b12:    00c9        ..      LSLS     r1,r1,#3
        0x00004b14:    c905        ..      LDM      r1!,{r0,r2}
        0x00004b16:    9118        ..      STR      r1,[sp,#0x60]
        0x00004b18:    4694        .F      MOV      r12,r2
        0x00004b1a:    e003        ..      B        0x4b24 ; _printf_core + 724
        0x00004b1c:    b280        ..      UXTH     r0,r0
        0x00004b1e:    2904        .)      CMP      r1,#4
        0x00004b20:    d100        ..      BNE      0x4b24 ; _printf_core + 724
        0x00004b22:    b2c0        ..      UXTB     r0,r0
        0x00004b24:    2100        .!      MOVS     r1,#0
        0x00004b26:    9102        ..      STR      r1,[sp,#8]
        0x00004b28:    0721        !.      LSLS     r1,r4,#28
        0x00004b2a:    d529        ).      BPL      0x4b80 ; _printf_core + 816
        0x00004b2c:    9911        ..      LDR      r1,[sp,#0x44]
        0x00004b2e:    2970        p)      CMP      r1,#0x70
        0x00004b30:    d006        ..      BEQ      0x4b40 ; _printf_core + 752
        0x00004b32:    9a00        ..      LDR      r2,[sp,#0]
        0x00004b34:    2110        .!      MOVS     r1,#0x10
        0x00004b36:    9b01        ..      LDR      r3,[sp,#4]
        0x00004b38:    404a        J@      EORS     r2,r2,r1
        0x00004b3a:    431a        .C      ORRS     r2,r2,r3
        0x00004b3c:    d005        ..      BEQ      0x4b4a ; _printf_core + 762
        0x00004b3e:    e00e        ..      B        0x4b5e ; _printf_core + 782
        0x00004b40:    2140        @!      MOVS     r1,#0x40
        0x00004b42:    466a        jF      MOV      r2,sp
        0x00004b44:    7311        .s      STRB     r1,[r2,#0xc]
        0x00004b46:    2101        .!      MOVS     r1,#1
        0x00004b48:    e008        ..      B        0x4b5c ; _printf_core + 780
        0x00004b4a:    4661        aF      MOV      r1,r12
        0x00004b4c:    4301        .C      ORRS     r1,r1,r0
        0x00004b4e:    d006        ..      BEQ      0x4b5e ; _printf_core + 782
        0x00004b50:    2130        0!      MOVS     r1,#0x30
        0x00004b52:    466a        jF      MOV      r2,sp
        0x00004b54:    7311        .s      STRB     r1,[r2,#0xc]
        0x00004b56:    9911        ..      LDR      r1,[sp,#0x44]
        0x00004b58:    7351        Qs      STRB     r1,[r2,#0xd]
        0x00004b5a:    2102        .!      MOVS     r1,#2
        0x00004b5c:    9102        ..      STR      r1,[sp,#8]
        0x00004b5e:    9a00        ..      LDR      r2,[sp,#0]
        0x00004b60:    2108        .!      MOVS     r1,#8
        0x00004b62:    9b01        ..      LDR      r3,[sp,#4]
        0x00004b64:    404a        J@      EORS     r2,r2,r1
        0x00004b66:    431a        .C      ORRS     r2,r2,r3
        0x00004b68:    d10a        ..      BNE      0x4b80 ; _printf_core + 816
        0x00004b6a:    4661        aF      MOV      r1,r12
        0x00004b6c:    4301        .C      ORRS     r1,r1,r0
        0x00004b6e:    d101        ..      BNE      0x4b74 ; _printf_core + 804
        0x00004b70:    0761        a.      LSLS     r1,r4,#29
        0x00004b72:    d505        ..      BPL      0x4b80 ; _printf_core + 816
        0x00004b74:    2130        0!      MOVS     r1,#0x30
        0x00004b76:    466a        jF      MOV      r2,sp
        0x00004b78:    7311        .s      STRB     r1,[r2,#0xc]
        0x00004b7a:    2101        .!      MOVS     r1,#1
        0x00004b7c:    1e7f        ..      SUBS     r7,r7,#1
        0x00004b7e:    9102        ..      STR      r1,[sp,#8]
        0x00004b80:    9911        ..      LDR      r1,[sp,#0x44]
        0x00004b82:    2958        X)      CMP      r1,#0x58
        0x00004b84:    d004        ..      BEQ      0x4b90 ; _printf_core + 832
        0x00004b86:    a135        5.      ADR      r1,{pc}+0xd6 ; 0x4c5c
        0x00004b88:    910e        ..      STR      r1,[sp,#0x38]
        0x00004b8a:    a90d        ..      ADD      r1,sp,#0x34
        0x00004b8c:    910d        ..      STR      r1,[sp,#0x34]
        0x00004b8e:    e00d        ..      B        0x4bac ; _printf_core + 860
        0x00004b90:    a137        7.      ADR      r1,{pc}+0xe0 ; 0x4c70
        0x00004b92:    e7f9        ..      B        0x4b88 ; _printf_core + 824
        0x00004b94:    4661        aF      MOV      r1,r12
        0x00004b96:    9b01        ..      LDR      r3,[sp,#4]
        0x00004b98:    9a00        ..      LDR      r2,[sp,#0]
        0x00004b9a:    f7fbfbf5    ....    BL       __aeabi_uldivmod ; 0x388
        0x00004b9e:    9b0e        ..      LDR      r3,[sp,#0x38]
        0x00004ba0:    468c        .F      MOV      r12,r1
        0x00004ba2:    5c9b        .\      LDRB     r3,[r3,r2]
        0x00004ba4:    9a0d        ..      LDR      r2,[sp,#0x34]
        0x00004ba6:    1e52        R.      SUBS     r2,r2,#1
        0x00004ba8:    920d        ..      STR      r2,[sp,#0x34]
        0x00004baa:    7013        .p      STRB     r3,[r2,#0]
        0x00004bac:    4661        aF      MOV      r1,r12
        0x00004bae:    4301        .C      ORRS     r1,r1,r0
        0x00004bb0:    d1f0        ..      BNE      0x4b94 ; _printf_core + 836
        0x00004bb2:    980d        ..      LDR      r0,[sp,#0x34]
        0x00004bb4:    a905        ..      ADD      r1,sp,#0x14
        0x00004bb6:    1a08        ..      SUBS     r0,r1,r0
        0x00004bb8:    3020         0      ADDS     r0,r0,#0x20
        0x00004bba:    9001        ..      STR      r0,[sp,#4]
        0x00004bbc:    0760        `.      LSLS     r0,r4,#29
        0x00004bbe:    d503        ..      BPL      0x4bc8 ; _printf_core + 888
        0x00004bc0:    2001        .       MOVS     r0,#1
        0x00004bc2:    0400        ..      LSLS     r0,r0,#16
        0x00004bc4:    4384        .C      BICS     r4,r4,r0
        0x00004bc6:    e000        ..      B        0x4bca ; _printf_core + 890
        0x00004bc8:    2701        .'      MOVS     r7,#1
        0x00004bca:    9801        ..      LDR      r0,[sp,#4]
        0x00004bcc:    4287        .B      CMP      r7,r0
        0x00004bce:    dd01        ..      BLE      0x4bd4 ; _printf_core + 900
        0x00004bd0:    1a38        8.      SUBS     r0,r7,r0
        0x00004bd2:    e000        ..      B        0x4bd6 ; _printf_core + 902
        0x00004bd4:    2000        .       MOVS     r0,#0
        0x00004bd6:    9901        ..      LDR      r1,[sp,#4]
        0x00004bd8:    9000        ..      STR      r0,[sp,#0]
        0x00004bda:    1841        A.      ADDS     r1,r0,r1
        0x00004bdc:    9802        ..      LDR      r0,[sp,#8]
        0x00004bde:    1809        ..      ADDS     r1,r1,r0
        0x00004be0:    9804        ..      LDR      r0,[sp,#0x10]
        0x00004be2:    1a40        @.      SUBS     r0,r0,r1
        0x00004be4:    9004        ..      STR      r0,[sp,#0x10]
        0x00004be6:    03e0        ..      LSLS     r0,r4,#15
        0x00004be8:    d406        ..      BMI      0x4bf8 ; _printf_core + 936
        0x00004bea:    4621        !F      MOV      r1,r4
        0x00004bec:    9b1a        ..      LDR      r3,[sp,#0x68]
        0x00004bee:    9a19        ..      LDR      r2,[sp,#0x64]
        0x00004bf0:    9804        ..      LDR      r0,[sp,#0x10]
        0x00004bf2:    f000f9b3    ....    BL       _printf_pre_padding ; 0x4f5c
        0x00004bf6:    1945        E.      ADDS     r5,r0,r5
        0x00004bf8:    2700        .'      MOVS     r7,#0
        0x00004bfa:    e006        ..      B        0x4c0a ; _printf_core + 954
        0x00004bfc:    a803        ..      ADD      r0,sp,#0xc
        0x00004bfe:    9a1a        ..      LDR      r2,[sp,#0x68]
        0x00004c00:    5dc0        .]      LDRB     r0,[r0,r7]
        0x00004c02:    9919        ..      LDR      r1,[sp,#0x64]
        0x00004c04:    4790        .G      BLX      r2
        0x00004c06:    1c6d        m.      ADDS     r5,r5,#1
        0x00004c08:    1c7f        ..      ADDS     r7,r7,#1
        0x00004c0a:    9802        ..      LDR      r0,[sp,#8]
        0x00004c0c:    4287        .B      CMP      r7,r0
        0x00004c0e:    dbf5        ..      BLT      0x4bfc ; _printf_core + 940
        0x00004c10:    03e0        ..      LSLS     r0,r4,#15
        0x00004c12:    d50c        ..      BPL      0x4c2e ; _printf_core + 990
        0x00004c14:    4621        !F      MOV      r1,r4
        0x00004c16:    9b1a        ..      LDR      r3,[sp,#0x68]
        0x00004c18:    9a19        ..      LDR      r2,[sp,#0x64]
        0x00004c1a:    9804        ..      LDR      r0,[sp,#0x10]
        0x00004c1c:    f000f99e    ....    BL       _printf_pre_padding ; 0x4f5c
        0x00004c20:    1945        E.      ADDS     r5,r0,r5
        0x00004c22:    e004        ..      B        0x4c2e ; _printf_core + 990
        0x00004c24:    9a1a        ..      LDR      r2,[sp,#0x68]
        0x00004c26:    2030        0       MOVS     r0,#0x30
        0x00004c28:    9919        ..      LDR      r1,[sp,#0x64]
        0x00004c2a:    4790        .G      BLX      r2
        0x00004c2c:    1c6d        m.      ADDS     r5,r5,#1
        0x00004c2e:    9900        ..      LDR      r1,[sp,#0]
        0x00004c30:    1e48        H.      SUBS     r0,r1,#1
        0x00004c32:    9000        ..      STR      r0,[sp,#0]
        0x00004c34:    2900        .)      CMP      r1,#0
        0x00004c36:    dcf5        ..      BGT      0x4c24 ; _printf_core + 980
        0x00004c38:    e008        ..      B        0x4c4c ; _printf_core + 1020
        0x00004c3a:    980d        ..      LDR      r0,[sp,#0x34]
        0x00004c3c:    990d        ..      LDR      r1,[sp,#0x34]
        0x00004c3e:    7800        .x      LDRB     r0,[r0,#0]
        0x00004c40:    1c49        I.      ADDS     r1,r1,#1
        0x00004c42:    910d        ..      STR      r1,[sp,#0x34]
        0x00004c44:    9a1a        ..      LDR      r2,[sp,#0x68]
        0x00004c46:    9919        ..      LDR      r1,[sp,#0x64]
        0x00004c48:    4790        .G      BLX      r2
        0x00004c4a:    1c6d        m.      ADDS     r5,r5,#1
        0x00004c4c:    9901        ..      LDR      r1,[sp,#4]
        0x00004c4e:    1e48        H.      SUBS     r0,r1,#1
        0x00004c50:    9001        ..      STR      r0,[sp,#4]
        0x00004c52:    2900        .)      CMP      r1,#0
        0x00004c54:    dcf1        ..      BGT      0x4c3a ; _printf_core + 1002
        0x00004c56:    e163        c.      B        0x4f20 ; _printf_core + 1744
    $d
        0x00004c58:    00012809    .(..    DCD    75785
        0x00004c5c:    33323130    0123    DCD    858927408
        0x00004c60:    37363534    4567    DCD    926299444
        0x00004c64:    62613938    89ab    DCD    1650538808
        0x00004c68:    66656463    cdef    DCD    1717920867
        0x00004c6c:    00000000    ....    DCD    0
        0x00004c70:    33323130    0123    DCD    858927408
        0x00004c74:    37363534    4567    DCD    926299444
        0x00004c78:    42413938    89AB    DCD    1111570744
        0x00004c7c:    46454443    CDEF    DCD    1178944579
        0x00004c80:    00000000    ....    DCD    0
    $t
        0x00004c84:    f000f95a    ..Z.    BL       _printf_post_padding ; 0x4f3c
        0x00004c88:    1945        E.      ADDS     r5,r0,r5
        0x00004c8a:    1c76        v.      ADDS     r6,r6,#1
        0x00004c8c:    7830        0x      LDRB     r0,[r6,#0]
        0x00004c8e:    2800        .(      CMP      r0,#0
        0x00004c90:    d000        ..      BEQ      0x4c94 ; _printf_core + 1092
        0x00004c92:    e5e2        ..      B        0x485a ; _printf_core + 10
        0x00004c94:    4628        (F      MOV      r0,r5
        0x00004c96:    b01b        ..      ADD      sp,sp,#0x6c
        0x00004c98:    bdf0        ..      POP      {r4-r7,pc}
        0x00004c9a:    0760        `.      LSLS     r0,r4,#29
        0x00004c9c:    d400        ..      BMI      0x4ca0 ; _printf_core + 1104
        0x00004c9e:    2706        .'      MOVS     r7,#6
        0x00004ca0:    9818        ..      LDR      r0,[sp,#0x60]
        0x00004ca2:    1dc0        ..      ADDS     r0,r0,#7
        0x00004ca4:    08c1        ..      LSRS     r1,r0,#3
        0x00004ca6:    00c9        ..      LSLS     r1,r1,#3
        0x00004ca8:    6848        Hh      LDR      r0,[r1,#4]
        0x00004caa:    680a        .h      LDR      r2,[r1,#0]
        0x00004cac:    3108        .1      ADDS     r1,r1,#8
        0x00004cae:    0fc3        ..      LSRS     r3,r0,#31
        0x00004cb0:    07db        ..      LSLS     r3,r3,#31
        0x00004cb2:    9118        ..      STR      r1,[sp,#0x60]
        0x00004cb4:    0019        ..      MOVS     r1,r3
        0x00004cb6:    d001        ..      BEQ      0x4cbc ; _printf_core + 1132
        0x00004cb8:    a19c        ..      ADR      r1,{pc}+0x274 ; 0x4f2c
        0x00004cba:    e008        ..      B        0x4cce ; _printf_core + 1150
        0x00004cbc:    0521        !.      LSLS     r1,r4,#20
        0x00004cbe:    d501        ..      BPL      0x4cc4 ; _printf_core + 1140
        0x00004cc0:    a19b        ..      ADR      r1,{pc}+0x270 ; 0x4f30
        0x00004cc2:    e004        ..      B        0x4cce ; _printf_core + 1150
        0x00004cc4:    07e1        ..      LSLS     r1,r4,#31
        0x00004cc6:    d001        ..      BEQ      0x4ccc ; _printf_core + 1148
        0x00004cc8:    a19a        ..      ADR      r1,{pc}+0x26c ; 0x4f34
        0x00004cca:    e000        ..      B        0x4cce ; _printf_core + 1150
        0x00004ccc:    a19a        ..      ADR      r1,{pc}+0x26c ; 0x4f38
        0x00004cce:    0043        C.      LSLS     r3,r0,#1
        0x00004cd0:    9811        ..      LDR      r0,[sp,#0x44]
        0x00004cd2:    085b        [.      LSRS     r3,r3,#1
        0x00004cd4:    9110        ..      STR      r1,[sp,#0x40]
        0x00004cd6:    2865        e(      CMP      r0,#0x65
        0x00004cd8:    d00c        ..      BEQ      0x4cf4 ; _printf_core + 1188
        0x00004cda:    dc06        ..      BGT      0x4cea ; _printf_core + 1178
        0x00004cdc:    2845        E(      CMP      r0,#0x45
        0x00004cde:    d009        ..      BEQ      0x4cf4 ; _printf_core + 1188
        0x00004ce0:    2846        F(      CMP      r0,#0x46
        0x00004ce2:    d01d        ..      BEQ      0x4d20 ; _printf_core + 1232
        0x00004ce4:    2847        G(      CMP      r0,#0x47
        0x00004ce6:    d141        A.      BNE      0x4d6c ; _printf_core + 1308
        0x00004ce8:    e041        A.      B        0x4d6e ; _printf_core + 1310
        0x00004cea:    2866        f(      CMP      r0,#0x66
        0x00004cec:    d018        ..      BEQ      0x4d20 ; _printf_core + 1232
        0x00004cee:    2867        g(      CMP      r0,#0x67
        0x00004cf0:    d13c        <.      BNE      0x4d6c ; _printf_core + 1308
        0x00004cf2:    e03c        <.      B        0x4d6e ; _printf_core + 1310
        0x00004cf4:    2100        .!      MOVS     r1,#0
        0x00004cf6:    2f11        ./      CMP      r7,#0x11
        0x00004cf8:    db01        ..      BLT      0x4cfe ; _printf_core + 1198
        0x00004cfa:    2011        .       MOVS     r0,#0x11
        0x00004cfc:    e000        ..      B        0x4d00 ; _printf_core + 1200
        0x00004cfe:    1c78        x.      ADDS     r0,r7,#1
        0x00004d00:    9101        ..      STR      r1,[sp,#4]
        0x00004d02:    9000        ..      STR      r0,[sp,#0]
        0x00004d04:    a908        ..      ADD      r1,sp,#0x20
        0x00004d06:    a811        ..      ADD      r0,sp,#0x44
        0x00004d08:    f7fffce0    ....    BL       _fp_digits ; 0x46cc
        0x00004d0c:    9913        ..      LDR      r1,[sp,#0x4c]
        0x00004d0e:    9105        ..      STR      r1,[sp,#0x14]
        0x00004d10:    2100        .!      MOVS     r1,#0
        0x00004d12:    9a11        ..      LDR      r2,[sp,#0x44]
        0x00004d14:    9215        ..      STR      r2,[sp,#0x54]
        0x00004d16:    1c7f        ..      ADDS     r7,r7,#1
        0x00004d18:    9812        ..      LDR      r0,[sp,#0x48]
        0x00004d1a:    9701        ..      STR      r7,[sp,#4]
        0x00004d1c:    9100        ..      STR      r1,[sp,#0]
        0x00004d1e:    e050        P.      B        0x4dc2 ; _printf_core + 1394
        0x00004d20:    2001        .       MOVS     r0,#1
        0x00004d22:    07c0        ..      LSLS     r0,r0,#31
        0x00004d24:    9003        ..      STR      r0,[sp,#0xc]
        0x00004d26:    2001        .       MOVS     r0,#1
        0x00004d28:    9001        ..      STR      r0,[sp,#4]
        0x00004d2a:    a908        ..      ADD      r1,sp,#0x20
        0x00004d2c:    9700        ..      STR      r7,[sp,#0]
        0x00004d2e:    a811        ..      ADD      r0,sp,#0x44
        0x00004d30:    f7fffccc    ....    BL       _fp_digits ; 0x46cc
        0x00004d34:    9a13        ..      LDR      r2,[sp,#0x4c]
        0x00004d36:    9914        ..      LDR      r1,[sp,#0x50]
        0x00004d38:    9205        ..      STR      r2,[sp,#0x14]
        0x00004d3a:    2200        ."      MOVS     r2,#0
        0x00004d3c:    9b11        ..      LDR      r3,[sp,#0x44]
        0x00004d3e:    9200        ..      STR      r2,[sp,#0]
        0x00004d40:    9812        ..      LDR      r0,[sp,#0x48]
        0x00004d42:    9315        ..      STR      r3,[sp,#0x54]
        0x00004d44:    9a05        ..      LDR      r2,[sp,#0x14]
        0x00004d46:    9201        ..      STR      r2,[sp,#4]
        0x00004d48:    2900        .)      CMP      r1,#0
        0x00004d4a:    d001        ..      BEQ      0x4d50 ; _printf_core + 1280
        0x00004d4c:    4610        .F      MOV      r0,r2
        0x00004d4e:    e002        ..      B        0x4d56 ; _printf_core + 1286
        0x00004d50:    1c79        y.      ADDS     r1,r7,#1
        0x00004d52:    1840        @.      ADDS     r0,r0,r1
        0x00004d54:    9001        ..      STR      r0,[sp,#4]
        0x00004d56:    1a38        8.      SUBS     r0,r7,r0
        0x00004d58:    d501        ..      BPL      0x4d5e ; _printf_core + 1294
        0x00004d5a:    9801        ..      LDR      r0,[sp,#4]
        0x00004d5c:    e004        ..      B        0x4d68 ; _printf_core + 1304
        0x00004d5e:    4240        @B      RSBS     r0,r0,#0
        0x00004d60:    1e40        @.      SUBS     r0,r0,#1
        0x00004d62:    9000        ..      STR      r0,[sp,#0]
        0x00004d64:    1c78        x.      ADDS     r0,r7,#1
        0x00004d66:    9001        ..      STR      r0,[sp,#4]
        0x00004d68:    1bc0        ..      SUBS     r0,r0,r7
        0x00004d6a:    9002        ..      STR      r0,[sp,#8]
        0x00004d6c:    e043        C.      B        0x4df6 ; _printf_core + 1446
        0x00004d6e:    2f01        ./      CMP      r7,#1
        0x00004d70:    da00        ..      BGE      0x4d74 ; _printf_core + 1316
        0x00004d72:    2701        .'      MOVS     r7,#1
        0x00004d74:    2100        .!      MOVS     r1,#0
        0x00004d76:    2f11        ./      CMP      r7,#0x11
        0x00004d78:    dd01        ..      BLE      0x4d7e ; _printf_core + 1326
        0x00004d7a:    2011        .       MOVS     r0,#0x11
        0x00004d7c:    e000        ..      B        0x4d80 ; _printf_core + 1328
        0x00004d7e:    4638        8F      MOV      r0,r7
        0x00004d80:    9101        ..      STR      r1,[sp,#4]
        0x00004d82:    9000        ..      STR      r0,[sp,#0]
        0x00004d84:    a908        ..      ADD      r1,sp,#0x20
        0x00004d86:    a811        ..      ADD      r0,sp,#0x44
        0x00004d88:    f7fffca0    ....    BL       _fp_digits ; 0x46cc
        0x00004d8c:    9913        ..      LDR      r1,[sp,#0x4c]
        0x00004d8e:    9105        ..      STR      r1,[sp,#0x14]
        0x00004d90:    9a11        ..      LDR      r2,[sp,#0x44]
        0x00004d92:    2100        .!      MOVS     r1,#0
        0x00004d94:    9812        ..      LDR      r0,[sp,#0x48]
        0x00004d96:    9215        ..      STR      r2,[sp,#0x54]
        0x00004d98:    9100        ..      STR      r1,[sp,#0]
        0x00004d9a:    9701        ..      STR      r7,[sp,#4]
        0x00004d9c:    0721        !.      LSLS     r1,r4,#28
        0x00004d9e:    d40c        ..      BMI      0x4dba ; _printf_core + 1386
        0x00004da0:    9905        ..      LDR      r1,[sp,#0x14]
        0x00004da2:    42b9        .B      CMP      r1,r7
        0x00004da4:    db01        ..      BLT      0x4daa ; _printf_core + 1370
        0x00004da6:    9901        ..      LDR      r1,[sp,#4]
        0x00004da8:    e000        ..      B        0x4dac ; _printf_core + 1372
        0x00004daa:    9101        ..      STR      r1,[sp,#4]
        0x00004dac:    2901        .)      CMP      r1,#1
        0x00004dae:    dd04        ..      BLE      0x4dba ; _printf_core + 1386
        0x00004db0:    9a15        ..      LDR      r2,[sp,#0x54]
        0x00004db2:    1e49        I.      SUBS     r1,r1,#1
        0x00004db4:    5c51        Q\      LDRB     r1,[r2,r1]
        0x00004db6:    2930        0)      CMP      r1,#0x30
        0x00004db8:    d006        ..      BEQ      0x4dc8 ; _printf_core + 1400
        0x00004dba:    42b8        .B      CMP      r0,r7
        0x00004dbc:    da01        ..      BGE      0x4dc2 ; _printf_core + 1394
        0x00004dbe:    1d01        ..      ADDS     r1,r0,#4
        0x00004dc0:    da05        ..      BGE      0x4dce ; _printf_core + 1406
        0x00004dc2:    2101        .!      MOVS     r1,#1
        0x00004dc4:    9102        ..      STR      r1,[sp,#8]
        0x00004dc6:    e015        ..      B        0x4df4 ; _printf_core + 1444
        0x00004dc8:    9901        ..      LDR      r1,[sp,#4]
        0x00004dca:    1e49        I.      SUBS     r1,r1,#1
        0x00004dcc:    e7ed        ..      B        0x4daa ; _printf_core + 1370
        0x00004dce:    2800        .(      CMP      r0,#0
        0x00004dd0:    dc05        ..      BGT      0x4dde ; _printf_core + 1422
        0x00004dd2:    9900        ..      LDR      r1,[sp,#0]
        0x00004dd4:    1841        A.      ADDS     r1,r0,r1
        0x00004dd6:    9100        ..      STR      r1,[sp,#0]
        0x00004dd8:    9901        ..      LDR      r1,[sp,#4]
        0x00004dda:    1a09        ..      SUBS     r1,r1,r0
        0x00004ddc:    e003        ..      B        0x4de6 ; _printf_core + 1430
        0x00004dde:    9a01        ..      LDR      r2,[sp,#4]
        0x00004de0:    1c41        A.      ADDS     r1,r0,#1
        0x00004de2:    4291        .B      CMP      r1,r2
        0x00004de4:    dd00        ..      BLE      0x4de8 ; _printf_core + 1432
        0x00004de6:    9101        ..      STR      r1,[sp,#4]
        0x00004de8:    9900        ..      LDR      r1,[sp,#0]
        0x00004dea:    1a40        @.      SUBS     r0,r0,r1
        0x00004dec:    1c40        @.      ADDS     r0,r0,#1
        0x00004dee:    9002        ..      STR      r0,[sp,#8]
        0x00004df0:    2001        .       MOVS     r0,#1
        0x00004df2:    07c0        ..      LSLS     r0,r0,#31
        0x00004df4:    9003        ..      STR      r0,[sp,#0xc]
        0x00004df6:    0720         .      LSLS     r0,r4,#28
        0x00004df8:    d406        ..      BMI      0x4e08 ; _printf_core + 1464
        0x00004dfa:    9902        ..      LDR      r1,[sp,#8]
        0x00004dfc:    9801        ..      LDR      r0,[sp,#4]
        0x00004dfe:    4281        .B      CMP      r1,r0
        0x00004e00:    db02        ..      BLT      0x4e08 ; _printf_core + 1464
        0x00004e02:    2000        .       MOVS     r0,#0
        0x00004e04:    43c0        .C      MVNS     r0,r0
        0x00004e06:    9002        ..      STR      r0,[sp,#8]
        0x00004e08:    2000        .       MOVS     r0,#0
        0x00004e0a:    4669        iF      MOV      r1,sp
        0x00004e0c:    77c8        .w      STRB     r0,[r1,#0x1f]
        0x00004e0e:    af07        ..      ADD      r7,sp,#0x1c
        0x00004e10:    2101        .!      MOVS     r1,#1
        0x00004e12:    9803        ..      LDR      r0,[sp,#0xc]
        0x00004e14:    3703        .7      ADDS     r7,#3
        0x00004e16:    07c9        ..      LSLS     r1,r1,#31
        0x00004e18:    4288        .B      CMP      r0,r1
        0x00004e1a:    d024        $.      BEQ      0x4e66 ; _printf_core + 1558
        0x00004e1c:    2002        .       MOVS     r0,#2
        0x00004e1e:    9011        ..      STR      r0,[sp,#0x44]
        0x00004e20:    202b        +       MOVS     r0,#0x2b
        0x00004e22:    9012        ..      STR      r0,[sp,#0x48]
        0x00004e24:    9803        ..      LDR      r0,[sp,#0xc]
        0x00004e26:    2800        .(      CMP      r0,#0
        0x00004e28:    da0c        ..      BGE      0x4e44 ; _printf_core + 1524
        0x00004e2a:    4240        @B      RSBS     r0,r0,#0
        0x00004e2c:    9003        ..      STR      r0,[sp,#0xc]
        0x00004e2e:    202d        -       MOVS     r0,#0x2d
        0x00004e30:    9012        ..      STR      r0,[sp,#0x48]
        0x00004e32:    e007        ..      B        0x4e44 ; _printf_core + 1524
        0x00004e34:    210a        .!      MOVS     r1,#0xa
        0x00004e36:    9803        ..      LDR      r0,[sp,#0xc]
        0x00004e38:    f7fcf864    ..d.    BL       __aeabi_uidiv$div0 ; 0xf04
        0x00004e3c:    3130        01      ADDS     r1,r1,#0x30
        0x00004e3e:    1e7f        ..      SUBS     r7,r7,#1
        0x00004e40:    9003        ..      STR      r0,[sp,#0xc]
        0x00004e42:    7039        9p      STRB     r1,[r7,#0]
        0x00004e44:    9911        ..      LDR      r1,[sp,#0x44]
        0x00004e46:    1e48        H.      SUBS     r0,r1,#1
        0x00004e48:    9011        ..      STR      r0,[sp,#0x44]
        0x00004e4a:    2900        .)      CMP      r1,#0
        0x00004e4c:    dcf2        ..      BGT      0x4e34 ; _printf_core + 1508
        0x00004e4e:    9803        ..      LDR      r0,[sp,#0xc]
        0x00004e50:    2800        .(      CMP      r0,#0
        0x00004e52:    d1ef        ..      BNE      0x4e34 ; _printf_core + 1508
        0x00004e54:    1e79        y.      SUBS     r1,r7,#1
        0x00004e56:    9812        ..      LDR      r0,[sp,#0x48]
        0x00004e58:    7008        .p      STRB     r0,[r1,#0]
        0x00004e5a:    7830        0x      LDRB     r0,[r6,#0]
        0x00004e5c:    2120         !      MOVS     r1,#0x20
        0x00004e5e:    4008        .@      ANDS     r0,r0,r1
        0x00004e60:    3045        E0      ADDS     r0,r0,#0x45
        0x00004e62:    1ebf        ..      SUBS     r7,r7,#2
        0x00004e64:    7038        8p      STRB     r0,[r7,#0]
        0x00004e66:    a806        ..      ADD      r0,sp,#0x18
        0x00004e68:    1bc0        ..      SUBS     r0,r0,r7
        0x00004e6a:    1dc0        ..      ADDS     r0,r0,#7
        0x00004e6c:    9003        ..      STR      r0,[sp,#0xc]
        0x00004e6e:    9810        ..      LDR      r0,[sp,#0x40]
        0x00004e70:    7800        .x      LDRB     r0,[r0,#0]
        0x00004e72:    2800        .(      CMP      r0,#0
        0x00004e74:    d000        ..      BEQ      0x4e78 ; _printf_core + 1576
        0x00004e76:    2001        .       MOVS     r0,#1
        0x00004e78:    9901        ..      LDR      r1,[sp,#4]
        0x00004e7a:    1841        A.      ADDS     r1,r0,r1
        0x00004e7c:    9802        ..      LDR      r0,[sp,#8]
        0x00004e7e:    17c0        ..      ASRS     r0,r0,#31
        0x00004e80:    1809        ..      ADDS     r1,r1,r0
        0x00004e82:    9803        ..      LDR      r0,[sp,#0xc]
        0x00004e84:    1809        ..      ADDS     r1,r1,r0
        0x00004e86:    9804        ..      LDR      r0,[sp,#0x10]
        0x00004e88:    1a40        @.      SUBS     r0,r0,r1
        0x00004e8a:    1e40        @.      SUBS     r0,r0,#1
        0x00004e8c:    9004        ..      STR      r0,[sp,#0x10]
        0x00004e8e:    03e0        ..      LSLS     r0,r4,#15
        0x00004e90:    d406        ..      BMI      0x4ea0 ; _printf_core + 1616
        0x00004e92:    4621        !F      MOV      r1,r4
        0x00004e94:    9b1a        ..      LDR      r3,[sp,#0x68]
        0x00004e96:    9a19        ..      LDR      r2,[sp,#0x64]
        0x00004e98:    9804        ..      LDR      r0,[sp,#0x10]
        0x00004e9a:    f000f85f    .._.    BL       _printf_pre_padding ; 0x4f5c
        0x00004e9e:    1945        E.      ADDS     r5,r0,r5
        0x00004ea0:    9810        ..      LDR      r0,[sp,#0x40]
        0x00004ea2:    7800        .x      LDRB     r0,[r0,#0]
        0x00004ea4:    2800        .(      CMP      r0,#0
        0x00004ea6:    d003        ..      BEQ      0x4eb0 ; _printf_core + 1632
        0x00004ea8:    9a1a        ..      LDR      r2,[sp,#0x68]
        0x00004eaa:    9919        ..      LDR      r1,[sp,#0x64]
        0x00004eac:    4790        .G      BLX      r2
        0x00004eae:    1c6d        m.      ADDS     r5,r5,#1
        0x00004eb0:    03e0        ..      LSLS     r0,r4,#15
        0x00004eb2:    d524        $.      BPL      0x4efe ; _printf_core + 1710
        0x00004eb4:    4621        !F      MOV      r1,r4
        0x00004eb6:    9b1a        ..      LDR      r3,[sp,#0x68]
        0x00004eb8:    9a19        ..      LDR      r2,[sp,#0x64]
        0x00004eba:    9804        ..      LDR      r0,[sp,#0x10]
        0x00004ebc:    f000f84e    ..N.    BL       _printf_pre_padding ; 0x4f5c
        0x00004ec0:    1945        E.      ADDS     r5,r0,r5
        0x00004ec2:    e01c        ..      B        0x4efe ; _printf_core + 1710
        0x00004ec4:    9800        ..      LDR      r0,[sp,#0]
        0x00004ec6:    2800        .(      CMP      r0,#0
        0x00004ec8:    db07        ..      BLT      0x4eda ; _printf_core + 1674
        0x00004eca:    9900        ..      LDR      r1,[sp,#0]
        0x00004ecc:    9805        ..      LDR      r0,[sp,#0x14]
        0x00004ece:    4288        .B      CMP      r0,r1
        0x00004ed0:    dd03        ..      BLE      0x4eda ; _printf_core + 1674
        0x00004ed2:    9815        ..      LDR      r0,[sp,#0x54]
        0x00004ed4:    5c40        @\      LDRB     r0,[r0,r1]
        0x00004ed6:    9919        ..      LDR      r1,[sp,#0x64]
        0x00004ed8:    e001        ..      B        0x4ede ; _printf_core + 1678
        0x00004eda:    9919        ..      LDR      r1,[sp,#0x64]
        0x00004edc:    2030        0       MOVS     r0,#0x30
        0x00004ede:    9a1a        ..      LDR      r2,[sp,#0x68]
        0x00004ee0:    4790        .G      BLX      r2
        0x00004ee2:    9800        ..      LDR      r0,[sp,#0]
        0x00004ee4:    1c6d        m.      ADDS     r5,r5,#1
        0x00004ee6:    1c40        @.      ADDS     r0,r0,#1
        0x00004ee8:    9000        ..      STR      r0,[sp,#0]
        0x00004eea:    9802        ..      LDR      r0,[sp,#8]
        0x00004eec:    1e40        @.      SUBS     r0,r0,#1
        0x00004eee:    9002        ..      STR      r0,[sp,#8]
        0x00004ef0:    2800        .(      CMP      r0,#0
        0x00004ef2:    d104        ..      BNE      0x4efe ; _printf_core + 1710
        0x00004ef4:    9a1a        ..      LDR      r2,[sp,#0x68]
        0x00004ef6:    202e        .       MOVS     r0,#0x2e
        0x00004ef8:    9919        ..      LDR      r1,[sp,#0x64]
        0x00004efa:    4790        .G      BLX      r2
        0x00004efc:    1c6d        m.      ADDS     r5,r5,#1
        0x00004efe:    9901        ..      LDR      r1,[sp,#4]
        0x00004f00:    1e48        H.      SUBS     r0,r1,#1
        0x00004f02:    9001        ..      STR      r0,[sp,#4]
        0x00004f04:    2900        .)      CMP      r1,#0
        0x00004f06:    dcdd        ..      BGT      0x4ec4 ; _printf_core + 1652
        0x00004f08:    e005        ..      B        0x4f16 ; _printf_core + 1734
        0x00004f0a:    7838        8x      LDRB     r0,[r7,#0]
        0x00004f0c:    9a1a        ..      LDR      r2,[sp,#0x68]
        0x00004f0e:    1c7f        ..      ADDS     r7,r7,#1
        0x00004f10:    9919        ..      LDR      r1,[sp,#0x64]
        0x00004f12:    4790        .G      BLX      r2
        0x00004f14:    1c6d        m.      ADDS     r5,r5,#1
        0x00004f16:    9903        ..      LDR      r1,[sp,#0xc]
        0x00004f18:    1e48        H.      SUBS     r0,r1,#1
        0x00004f1a:    9003        ..      STR      r0,[sp,#0xc]
        0x00004f1c:    2900        .)      CMP      r1,#0
        0x00004f1e:    dcf4        ..      BGT      0x4f0a ; _printf_core + 1722
        0x00004f20:    4621        !F      MOV      r1,r4
        0x00004f22:    9b1a        ..      LDR      r3,[sp,#0x68]
        0x00004f24:    9a19        ..      LDR      r2,[sp,#0x64]
        0x00004f26:    9804        ..      LDR      r0,[sp,#0x10]
        0x00004f28:    e6ac        ..      B        0x4c84 ; _printf_core + 1076
    $d
        0x00004f2a:    0000        ..      DCW    0
        0x00004f2c:    0000002d    -...    DCD    45
        0x00004f30:    0000002b    +...    DCD    43
        0x00004f34:    00000020     ...    DCD    32
        0x00004f38:    00000000    ....    DCD    0
    $t
    i._printf_post_padding
    _printf_post_padding
        0x00004f3c:    b5f8        ..      PUSH     {r3-r7,lr}
        0x00004f3e:    4604        .F      MOV      r4,r0
        0x00004f40:    2500        .%      MOVS     r5,#0
        0x00004f42:    461e        .F      MOV      r6,r3
        0x00004f44:    4617        .F      MOV      r7,r2
        0x00004f46:    0488        ..      LSLS     r0,r1,#18
        0x00004f48:    d404        ..      BMI      0x4f54 ; _printf_post_padding + 24
        0x00004f4a:    e005        ..      B        0x4f58 ; _printf_post_padding + 28
        0x00004f4c:    4639        9F      MOV      r1,r7
        0x00004f4e:    2020                MOVS     r0,#0x20
        0x00004f50:    47b0        .G      BLX      r6
        0x00004f52:    1c6d        m.      ADDS     r5,r5,#1
        0x00004f54:    1e64        d.      SUBS     r4,r4,#1
        0x00004f56:    d5f9        ..      BPL      0x4f4c ; _printf_post_padding + 16
        0x00004f58:    4628        (F      MOV      r0,r5
        0x00004f5a:    bdf8        ..      POP      {r3-r7,pc}
    i._printf_pre_padding
    _printf_pre_padding
        0x00004f5c:    b5ff        ..      PUSH     {r0-r7,lr}
        0x00004f5e:    4604        .F      MOV      r4,r0
        0x00004f60:    2500        .%      MOVS     r5,#0
        0x00004f62:    b081        ..      SUB      sp,sp,#4
        0x00004f64:    461e        .F      MOV      r6,r3
        0x00004f66:    03c8        ..      LSLS     r0,r1,#15
        0x00004f68:    d501        ..      BPL      0x4f6e ; _printf_pre_padding + 18
        0x00004f6a:    2730        0'      MOVS     r7,#0x30
        0x00004f6c:    e000        ..      B        0x4f70 ; _printf_pre_padding + 20
        0x00004f6e:    2720         '      MOVS     r7,#0x20
        0x00004f70:    0488        ..      LSLS     r0,r1,#18
        0x00004f72:    d504        ..      BPL      0x4f7e ; _printf_pre_padding + 34
        0x00004f74:    e005        ..      B        0x4f82 ; _printf_pre_padding + 38
        0x00004f76:    4638        8F      MOV      r0,r7
        0x00004f78:    9903        ..      LDR      r1,[sp,#0xc]
        0x00004f7a:    47b0        .G      BLX      r6
        0x00004f7c:    1c6d        m.      ADDS     r5,r5,#1
        0x00004f7e:    1e64        d.      SUBS     r4,r4,#1
        0x00004f80:    d5f9        ..      BPL      0x4f76 ; _printf_pre_padding + 26
        0x00004f82:    4628        (F      MOV      r0,r5
        0x00004f84:    b005        ..      ADD      sp,sp,#0x14
        0x00004f86:    bdf0        ..      POP      {r4-r7,pc}
    i._sputc
    _sputc
        0x00004f88:    680a        .h      LDR      r2,[r1,#0]
        0x00004f8a:    1c53        S.      ADDS     r3,r2,#1
        0x00004f8c:    600b        .`      STR      r3,[r1,#0]
        0x00004f8e:    7010        .p      STRB     r0,[r2,#0]
        0x00004f90:    4770        pG      BX       lr
    $d.realdata
    .constdata
    __ctype_categories
        0x00004f92:    dddd        ..      DCW    56797
        0x00004f94:    bbdcdddd    ....    DCD    3151814109
        0x00004f98:    ddddddbb    ....    DCD    3722304955
        0x00004f9c:    dddddddd    ....    DCD    3722304989
        0x00004fa0:    8898dddd    ....    DCD    2291719645
        0x00004fa4:    88888888    ....    DCD    2290649224
        0x00004fa8:    77778888    ..ww    DCD    2004322440
        0x00004fac:    88777777    www.    DCD    2289530743
        0x00004fb0:    55858888    ...U    DCD    1434814600
        0x00004fb4:    66665655    UVff    DCD    1717982805
        0x00004fb8:    66666666    ffff    DCD    1717986918
        0x00004fbc:    68666666    fffh    DCD    1751541350
        0x00004fc0:    33838888    ...3    DCD    864258184
        0x00004fc4:    22223233    32""    DCD    572666419
        0x00004fc8:    22222222    """"    DCD    572662306
        0x00004fcc:    28222222    """(    DCD    673325602
        0x00004fd0:    00048d88    ....    DCD    298376
        0x00004fd4:    00060006    ....    DCD    393222
        0x00004fd8:    00080007    ....    DCD    524295
        0x00004fdc:    00080008    ....    DCD    524296
        0x00004fe0:    000c0009    ....    DCD    786441
        0x00004fe4:    0010000d    ....    DCD    1048589
        0x00004fe8:    00120011    ....    DCD    1179665
        0x00004fec:    00000000    ....    DCD    0
        0x00004ff0:    00200000    .. .    DCD    2097152
        0x00004ff4:    00400030    0.@.    DCD    4194352
        0x00004ff8:    00800060    `...    DCD    8388704
        0x00004ffc:    00003c34    4<..    DCD    15412
        0x00005000:    5c544c44    DLT\    DCD    1549028420
        0x00005004:    7c740064    d.t|    DCD    2087977060
        0x00005008:    9c948c84    ....    DCD    2626980996
        0x0000500c:    bcb4aca4    ....    DCD    3165957284
        0x00005010:    000000c4    ....    DCD    196
        0x00005014:    0000ac74    t...    DCD    44148
        0x00005018:    0000ac8a    ....    DCD    44170
        0x0000501c:    00000000    ....    DCD    0
        0x00005020:    00000000    ....    DCD    0
        0x00005024:    0000acb3    ....    DCD    44211
        0x00005028:    0000aca8    ....    DCD    44200
        0x0000502c:    0000ac9d    ....    DCD    44189
        0x00005030:    0000ac99    ....    DCD    44185
        0x00005034:    0000ac79    y...    DCD    44153
        0x00005038:    00000000    ....    DCD    0
        0x0000503c:    0000ac6e    n...    DCD    44142
        0x00005040:    0000ac84    ....    DCD    44164
        0x00005044:    0000ac7e    ~...    DCD    44158
        0x00005048:    0000ac8f    ....    DCD    44175
        0x0000504c:    0000ac95    ....    DCD    44181
        0x00005050:    0000aca2    ....    DCD    44194
        0x00005054:    0000accc    ....    DCD    44236
        0x00005058:    0000acc3    ....    DCD    44227
        0x0000505c:    0000acc7    ....    DCD    44231
        0x00005060:    0000acc0    ....    DCD    44224
        0x00005064:    0000acac    ....    DCD    44204
        0x00005068:    0000acd0    ....    DCD    44240
        0x0000506c:    00000000    ....    DCD    0
        0x00005070:    00000000    ....    DCD    0
        0x00005074:    0000ac6e    n...    DCD    44142
        0x00005078:    0000ac79    y...    DCD    44153
        0x0000507c:    0000acc7    ....    DCD    44231
        0x00005080:    0000ac9d    ....    DCD    44189
        0x00005084:    00000000    ....    DCD    0
        0x00005088:    00000000    ....    DCD    0
        0x0000508c:    00000000    ....    DCD    0
        0x00005090:    00000000    ....    DCD    0
        0x00005094:    0000ac84    ....    DCD    44164
    _Curve
        0x00005098:    00000000    ....    DCD    0
        0x0000509c:    00000030    0...    DCD    48
        0x000050a0:    46464646    FFFF    DCD    1179010630
        0x000050a4:    46464646    FFFF    DCD    1179010630
        0x000050a8:    46464646    FFFF    DCD    1179010630
        0x000050ac:    46464646    FFFF    DCD    1179010630
        0x000050b0:    46464646    FFFF    DCD    1179010630
        0x000050b4:    46464646    FFFF    DCD    1179010630
        0x000050b8:    46464646    FFFF    DCD    1179010630
        0x000050bc:    45464646    FFFE    DCD    1162233414
        0x000050c0:    46464646    FFFF    DCD    1179010630
        0x000050c4:    46464646    FFFF    DCD    1179010630
        0x000050c8:    46464646    FFFF    DCD    1179010630
        0x000050cc:    43464646    FFFC    DCD    1128678982
        0x000050d0:    00000000    ....    DCD    0
        0x000050d4:    00000000    ....    DCD    0
        0x000050d8:    00000000    ....    DCD    0
        0x000050dc:    00000000    ....    DCD    0
        0x000050e0:    00000000    ....    DCD    0
        0x000050e4:    00000000    ....    DCD    0
        0x000050e8:    00000000    ....    DCD    0
        0x000050ec:    00000000    ....    DCD    0
        0x000050f0:    00000000    ....    DCD    0
        0x000050f4:    00000000    ....    DCD    0
        0x000050f8:    00000000    ....    DCD    0
        0x000050fc:    00000000    ....    DCD    0
        0x00005100:    00000000    ....    DCD    0
        0x00005104:    00000000    ....    DCD    0
        0x00005108:    00000000    ....    DCD    0
        0x0000510c:    00000000    ....    DCD    0
        0x00005110:    00000000    ....    DCD    0
        0x00005114:    00000000    ....    DCD    0
        0x00005118:    00000000    ....    DCD    0
        0x0000511c:    00000000    ....    DCD    0
        0x00005120:    00000000    ....    DCD    0
        0x00005124:    00000000    ....    DCD    0
        0x00005128:    00000000    ....    DCD    0
        0x0000512c:    00000000    ....    DCD    0
        0x00005130:    31323436    6421    DCD    825373750
        0x00005134:    39313530    0519    DCD    959526192
        0x00005138:    63393565    e59c    DCD    1664693605
        0x0000513c:    37653038    80e7    DCD    929378360
        0x00005140:    37616630    0fa7    DCD    929130032
        0x00005144:    62613965    e9ab    DCD    1650538853
        0x00005148:    34323237    7224    DCD    875704887
        0x0000514c:    39343033    3049    DCD    959721523
        0x00005150:    38626566    feb8    DCD    945972582
        0x00005154:    63656564    deec    DCD    1667589476
        0x00005158:    36343163    c146    DCD    909390179
        0x0000515c:    31623962    b9b1    DCD    828520802
        0x00005160:    00000000    ....    DCD    0
        0x00005164:    00000000    ....    DCD    0
        0x00005168:    00000000    ....    DCD    0
        0x0000516c:    00000000    ....    DCD    0
        0x00005170:    00000000    ....    DCD    0
        0x00005174:    00000000    ....    DCD    0
        0x00005178:    00000000    ....    DCD    0
        0x0000517c:    00000000    ....    DCD    0
        0x00005180:    00000000    ....    DCD    0
        0x00005184:    00000000    ....    DCD    0
        0x00005188:    00000000    ....    DCD    0
        0x0000518c:    00000000    ....    DCD    0
        0x00005190:    00000000    ....    DCD    0
        0x00005194:    00000000    ....    DCD    0
        0x00005198:    00000000    ....    DCD    0
        0x0000519c:    00000000    ....    DCD    0
        0x000051a0:    00000000    ....    DCD    0
        0x000051a4:    00000000    ....    DCD    0
        0x000051a8:    00000000    ....    DCD    0
        0x000051ac:    00000000    ....    DCD    0
        0x000051b0:    00000000    ....    DCD    0
        0x000051b4:    00000000    ....    DCD    0
        0x000051b8:    00000000    ....    DCD    0
        0x000051bc:    00000000    ....    DCD    0
        0x000051c0:    64383831    188d    DCD    1681406001
        0x000051c4:    65303861    a80e    DCD    1697658977
        0x000051c8:    30333062    b030    DCD    808661090
        0x000051cc:    36663039    90f6    DCD    912666681
        0x000051d0:    66626337    7cbf    DCD    1717723959
        0x000051d4:    62653032    20eb    DCD    1650798642
        0x000051d8:    31613334    43a1    DCD    828453684
        0x000051dc:    30303838    8800    DCD    808466488
        0x000051e0:    66663466    f4ff    DCD    1717974118
        0x000051e4:    64666130    0afd    DCD    1684431152
        0x000051e8:    66663238    82ff    DCD    1717973560
        0x000051ec:    32313031    1012    DCD    842084401
        0x000051f0:    00000000    ....    DCD    0
        0x000051f4:    00000000    ....    DCD    0
        0x000051f8:    00000000    ....    DCD    0
        0x000051fc:    00000000    ....    DCD    0
        0x00005200:    00000000    ....    DCD    0
        0x00005204:    00000000    ....    DCD    0
        0x00005208:    00000000    ....    DCD    0
        0x0000520c:    00000000    ....    DCD    0
        0x00005210:    00000000    ....    DCD    0
        0x00005214:    00000000    ....    DCD    0
        0x00005218:    00000000    ....    DCD    0
        0x0000521c:    00000000    ....    DCD    0
        0x00005220:    00000000    ....    DCD    0
        0x00005224:    00000000    ....    DCD    0
        0x00005228:    00000000    ....    DCD    0
        0x0000522c:    00000000    ....    DCD    0
        0x00005230:    00000000    ....    DCD    0
        0x00005234:    00000000    ....    DCD    0
        0x00005238:    00000000    ....    DCD    0
        0x0000523c:    00000000    ....    DCD    0
        0x00005240:    00000000    ....    DCD    0
        0x00005244:    00000000    ....    DCD    0
        0x00005248:    00000000    ....    DCD    0
        0x0000524c:    00000000    ....    DCD    0
        0x00005250:    39313730    0719    DCD    959526704
        0x00005254:    35396232    2b95    DCD    892953138
        0x00005258:    38636666    ffc8    DCD    946038374
        0x0000525c:    38376164    da78    DCD    943153508
        0x00005260:    30313336    6310    DCD    808530742
        0x00005264:    64653131    11ed    DCD    1684353329
        0x00005268:    34326236    6b24    DCD    875717174
        0x0000526c:    35646463    cdd5    DCD    895771747
        0x00005270:    39663337    73f9    DCD    962999095
        0x00005274:    31613737    77a1    DCD    828454711
        0x00005278:    39376531    1e79    DCD    959931697
        0x0000527c:    31313834    4811    DCD    825309236
        0x00005280:    00000000    ....    DCD    0
        0x00005284:    00000000    ....    DCD    0
        0x00005288:    00000000    ....    DCD    0
        0x0000528c:    00000000    ....    DCD    0
        0x00005290:    00000000    ....    DCD    0
        0x00005294:    00000000    ....    DCD    0
        0x00005298:    00000000    ....    DCD    0
        0x0000529c:    00000000    ....    DCD    0
        0x000052a0:    00000000    ....    DCD    0
        0x000052a4:    00000000    ....    DCD    0
        0x000052a8:    00000000    ....    DCD    0
        0x000052ac:    00000000    ....    DCD    0
        0x000052b0:    00000000    ....    DCD    0
        0x000052b4:    00000000    ....    DCD    0
        0x000052b8:    00000000    ....    DCD    0
        0x000052bc:    00000000    ....    DCD    0
        0x000052c0:    00000000    ....    DCD    0
        0x000052c4:    00000000    ....    DCD    0
        0x000052c8:    00000000    ....    DCD    0
        0x000052cc:    00000000    ....    DCD    0
        0x000052d0:    00000000    ....    DCD    0
        0x000052d4:    00000000    ....    DCD    0
        0x000052d8:    00000000    ....    DCD    0
        0x000052dc:    00000000    ....    DCD    0
        0x000052e0:    0000003a    :...    DCD    58
        0x000052e4:    46464646    FFFF    DCD    1179010630
        0x000052e8:    46464646    FFFF    DCD    1179010630
        0x000052ec:    46464646    FFFF    DCD    1179010630
        0x000052f0:    46464646    FFFF    DCD    1179010630
        0x000052f4:    46464646    FFFF    DCD    1179010630
        0x000052f8:    46464646    FFFF    DCD    1179010630
        0x000052fc:    46464646    FFFF    DCD    1179010630
        0x00005300:    45464646    FFFE    DCD    1162233414
        0x00005304:    46464646    FFFF    DCD    1179010630
        0x00005308:    46464646    FFFF    DCD    1179010630
        0x0000530c:    46464646    FFFF    DCD    1179010630
        0x00005310:    46464646    FFFF    DCD    1179010630
        0x00005314:    00000000    ....    DCD    0
        0x00005318:    00000000    ....    DCD    0
        0x0000531c:    00000000    ....    DCD    0
        0x00005320:    00000000    ....    DCD    0
        0x00005324:    00000000    ....    DCD    0
        0x00005328:    00000000    ....    DCD    0
        0x0000532c:    00000000    ....    DCD    0
        0x00005330:    00000000    ....    DCD    0
        0x00005334:    00000000    ....    DCD    0
        0x00005338:    00000000    ....    DCD    0
        0x0000533c:    00000000    ....    DCD    0
        0x00005340:    00000000    ....    DCD    0
        0x00005344:    00000000    ....    DCD    0
        0x00005348:    00000000    ....    DCD    0
        0x0000534c:    00000000    ....    DCD    0
        0x00005350:    00000000    ....    DCD    0
        0x00005354:    00000000    ....    DCD    0
        0x00005358:    00000000    ....    DCD    0
        0x0000535c:    00000000    ....    DCD    0
        0x00005360:    00000000    ....    DCD    0
        0x00005364:    00000000    ....    DCD    0
        0x00005368:    00000000    ....    DCD    0
        0x0000536c:    00000000    ....    DCD    0
        0x00005370:    00000000    ....    DCD    0
        0x00005374:    00000000    ....    DCD    0
        0x00005378:    00000000    ....    DCD    0
        0x0000537c:    00000000    ....    DCD    0
        0x00005380:    00000000    ....    DCD    0
        0x00005384:    00000000    ....    DCD    0
        0x00005388:    00000000    ....    DCD    0
        0x0000538c:    00000000    ....    DCD    0
        0x00005390:    00000000    ....    DCD    0
        0x00005394:    0000003a    :...    DCD    58
        0x00005398:    46464646    FFFF    DCD    1179010630
        0x0000539c:    46464646    FFFF    DCD    1179010630
        0x000053a0:    46464646    FFFF    DCD    1179010630
        0x000053a4:    46464646    FFFF    DCD    1179010630
        0x000053a8:    46464646    FFFF    DCD    1179010630
        0x000053ac:    46464646    FFFF    DCD    1179010630
        0x000053b0:    45443939    99DE    DCD    1162099001
        0x000053b4:    36333846    F836    DCD    909326406
        0x000053b8:    42363431    146B    DCD    1110848561
        0x000053bc:    31423943    C9B1    DCD    826423619
        0x000053c0:    32443442    B4D2    DCD    843330626
        0x000053c4:    31333832    2831    DCD    825440306
        0x000053c8:    00000000    ....    DCD    0
        0x000053cc:    00000000    ....    DCD    0
        0x000053d0:    00000000    ....    DCD    0
        0x000053d4:    00000000    ....    DCD    0
        0x000053d8:    00000000    ....    DCD    0
        0x000053dc:    00000000    ....    DCD    0
        0x000053e0:    00000000    ....    DCD    0
        0x000053e4:    00000000    ....    DCD    0
        0x000053e8:    00000000    ....    DCD    0
        0x000053ec:    00000000    ....    DCD    0
        0x000053f0:    00000000    ....    DCD    0
        0x000053f4:    00000000    ....    DCD    0
        0x000053f8:    00000000    ....    DCD    0
        0x000053fc:    00000000    ....    DCD    0
        0x00005400:    00000000    ....    DCD    0
        0x00005404:    00000000    ....    DCD    0
        0x00005408:    00000000    ....    DCD    0
        0x0000540c:    00000000    ....    DCD    0
        0x00005410:    00000000    ....    DCD    0
        0x00005414:    00000000    ....    DCD    0
        0x00005418:    00000000    ....    DCD    0
        0x0000541c:    00000000    ....    DCD    0
        0x00005420:    00000000    ....    DCD    0
        0x00005424:    00000000    ....    DCD    0
        0x00005428:    00000000    ....    DCD    0
        0x0000542c:    00000000    ....    DCD    0
        0x00005430:    00000000    ....    DCD    0
        0x00005434:    00000000    ....    DCD    0
        0x00005438:    00000000    ....    DCD    0
        0x0000543c:    00000000    ....    DCD    0
        0x00005440:    00000000    ....    DCD    0
        0x00005444:    00000000    ....    DCD    0
        0x00005448:    000000c0    ....    DCD    192
        0x0000544c:    00000007    ....    DCD    7
        0x00005450:    00000002    ....    DCD    2
        0x00005454:    00000001    ....    DCD    1
        0x00005458:    00000000    ....    DCD    0
        0x0000545c:    00000001    ....    DCD    1
        0x00005460:    00000038    8...    DCD    56
        0x00005464:    46464646    FFFF    DCD    1179010630
        0x00005468:    46464646    FFFF    DCD    1179010630
        0x0000546c:    46464646    FFFF    DCD    1179010630
        0x00005470:    46464646    FFFF    DCD    1179010630
        0x00005474:    46464646    FFFF    DCD    1179010630
        0x00005478:    46464646    FFFF    DCD    1179010630
        0x0000547c:    46464646    FFFF    DCD    1179010630
        0x00005480:    45464646    FFFE    DCD    1162233414
        0x00005484:    46464646    FFFF    DCD    1179010630
        0x00005488:    46464646    FFFF    DCD    1179010630
        0x0000548c:    46464646    FFFF    DCD    1179010630
        0x00005490:    46464646    FFFF    DCD    1179010630
        0x00005494:    46464646    FFFF    DCD    1179010630
        0x00005498:    45464646    FFFE    DCD    1162233414
        0x0000549c:    00000000    ....    DCD    0
        0x000054a0:    00000000    ....    DCD    0
        0x000054a4:    00000000    ....    DCD    0
        0x000054a8:    00000000    ....    DCD    0
        0x000054ac:    00000000    ....    DCD    0
        0x000054b0:    00000000    ....    DCD    0
        0x000054b4:    00000000    ....    DCD    0
        0x000054b8:    00000000    ....    DCD    0
        0x000054bc:    00000000    ....    DCD    0
        0x000054c0:    00000000    ....    DCD    0
        0x000054c4:    00000000    ....    DCD    0
        0x000054c8:    00000000    ....    DCD    0
        0x000054cc:    00000000    ....    DCD    0
        0x000054d0:    00000000    ....    DCD    0
        0x000054d4:    00000000    ....    DCD    0
        0x000054d8:    00000000    ....    DCD    0
        0x000054dc:    00000000    ....    DCD    0
        0x000054e0:    00000000    ....    DCD    0
        0x000054e4:    00000000    ....    DCD    0
        0x000054e8:    00000000    ....    DCD    0
        0x000054ec:    00000000    ....    DCD    0
        0x000054f0:    00000000    ....    DCD    0
        0x000054f4:    35303462    b405    DCD    892351586
        0x000054f8:    35386130    0a85    DCD    892887344
        0x000054fc:    34306330    0c04    DCD    875586352
        0x00005500:    62613362    b3ab    DCD    1650537314
        0x00005504:    31343566    f541    DCD    825505126
        0x00005508:    36353233    3256    DCD    909455923
        0x0000550c:    34343035    5044    DCD    875835445
        0x00005510:    37623062    b0b7    DCD    929181794
        0x00005514:    66623764    d7bf    DCD    1717712740
        0x00005518:    61623864    d8ba    DCD    1633826916
        0x0000551c:    62303732    270b    DCD    1647327026
        0x00005520:    33343933    3943    DCD    859060531
        0x00005524:    35353332    2355    DCD    892678962
        0x00005528:    34626666    ffb4    DCD    878863974
        0x0000552c:    00000000    ....    DCD    0
        0x00005530:    00000000    ....    DCD    0
        0x00005534:    00000000    ....    DCD    0
        0x00005538:    00000000    ....    DCD    0
        0x0000553c:    00000000    ....    DCD    0
        0x00005540:    00000000    ....    DCD    0
        0x00005544:    00000000    ....    DCD    0
        0x00005548:    00000000    ....    DCD    0
        0x0000554c:    00000000    ....    DCD    0
        0x00005550:    00000000    ....    DCD    0
        0x00005554:    00000000    ....    DCD    0
        0x00005558:    00000000    ....    DCD    0
        0x0000555c:    00000000    ....    DCD    0
        0x00005560:    00000000    ....    DCD    0
        0x00005564:    00000000    ....    DCD    0
        0x00005568:    00000000    ....    DCD    0
        0x0000556c:    00000000    ....    DCD    0
        0x00005570:    00000000    ....    DCD    0
        0x00005574:    00000000    ....    DCD    0
        0x00005578:    00000000    ....    DCD    0
        0x0000557c:    00000000    ....    DCD    0
        0x00005580:    00000000    ....    DCD    0
        0x00005584:    65303762    b70e    DCD    1697658722
        0x00005588:    64626330    0cbd    DCD    1684169520
        0x0000558c:    34626236    6bb4    DCD    878862902
        0x00005590:    66376662    bf7f    DCD    1714906722
        0x00005594:    33313233    3213    DCD    858862131
        0x00005598:    39623039    90b9    DCD    962736185
        0x0000559c:    33306134    4a03    DCD    858808628
        0x000055a0:    33643163    c1d3    DCD    862204259
        0x000055a4:    32633635    56c2    DCD    845362741
        0x000055a8:    32323131    1122    DCD    842150193
        0x000055ac:    32333433    3432    DCD    842216499
        0x000055b0:    36643038    80d6    DCD    912535608
        0x000055b4:    63353131    115c    DCD    1664430385
        0x000055b8:    31326431    1d21    DCD    825386033
        0x000055bc:    00000000    ....    DCD    0
        0x000055c0:    00000000    ....    DCD    0
        0x000055c4:    00000000    ....    DCD    0
        0x000055c8:    00000000    ....    DCD    0
        0x000055cc:    00000000    ....    DCD    0
        0x000055d0:    00000000    ....    DCD    0
        0x000055d4:    00000000    ....    DCD    0
        0x000055d8:    00000000    ....    DCD    0
        0x000055dc:    00000000    ....    DCD    0
        0x000055e0:    00000000    ....    DCD    0
        0x000055e4:    00000000    ....    DCD    0
        0x000055e8:    00000000    ....    DCD    0
        0x000055ec:    00000000    ....    DCD    0
        0x000055f0:    00000000    ....    DCD    0
        0x000055f4:    00000000    ....    DCD    0
        0x000055f8:    00000000    ....    DCD    0
        0x000055fc:    00000000    ....    DCD    0
        0x00005600:    00000000    ....    DCD    0
        0x00005604:    00000000    ....    DCD    0
        0x00005608:    00000000    ....    DCD    0
        0x0000560c:    00000000    ....    DCD    0
        0x00005610:    00000000    ....    DCD    0
        0x00005614:    37336462    bd37    DCD    926114914
        0x00005618:    38383336    6388    DCD    943207222
        0x0000561c:    37663562    b5f7    DCD    929445218
        0x00005620:    62663332    23fb    DCD    1650864946
        0x00005624:    32326334    4c22    DCD    842162996
        0x00005628:    36656664    dfe6    DCD    912615012
        0x0000562c:    33346463    cd43    DCD    859071587
        0x00005630:    30613537    75a0    DCD    811676983
        0x00005634:    37306135    5a07    DCD    925917493
        0x00005638:    34363734    4764    DCD    875968308
        0x0000563c:    35643434    44d5    DCD    895759412
        0x00005640:    39393138    8199    DCD    960049464
        0x00005644:    30303538    8500    DCD    808465720
        0x00005648:    34336537    7e34    DCD    875783479
        0x0000564c:    00000000    ....    DCD    0
        0x00005650:    00000000    ....    DCD    0
        0x00005654:    00000000    ....    DCD    0
        0x00005658:    00000000    ....    DCD    0
        0x0000565c:    00000000    ....    DCD    0
        0x00005660:    00000000    ....    DCD    0
        0x00005664:    00000000    ....    DCD    0
        0x00005668:    00000000    ....    DCD    0
        0x0000566c:    00000000    ....    DCD    0
        0x00005670:    00000000    ....    DCD    0
        0x00005674:    00000000    ....    DCD    0
        0x00005678:    00000000    ....    DCD    0
        0x0000567c:    00000000    ....    DCD    0
        0x00005680:    00000000    ....    DCD    0
        0x00005684:    00000000    ....    DCD    0
        0x00005688:    00000000    ....    DCD    0
        0x0000568c:    00000000    ....    DCD    0
        0x00005690:    00000000    ....    DCD    0
        0x00005694:    00000000    ....    DCD    0
        0x00005698:    00000000    ....    DCD    0
        0x0000569c:    00000000    ....    DCD    0
        0x000056a0:    00000000    ....    DCD    0
        0x000056a4:    00000046    F...    DCD    70
        0x000056a8:    46464646    FFFF    DCD    1179010630
        0x000056ac:    46464646    FFFF    DCD    1179010630
        0x000056b0:    46464646    FFFF    DCD    1179010630
        0x000056b4:    46464646    FFFF    DCD    1179010630
        0x000056b8:    46464646    FFFF    DCD    1179010630
        0x000056bc:    46464646    FFFF    DCD    1179010630
        0x000056c0:    46464646    FFFF    DCD    1179010630
        0x000056c4:    46464646    FFFF    DCD    1179010630
        0x000056c8:    30303030    0000    DCD    808464432
        0x000056cc:    30303030    0000    DCD    808464432
        0x000056d0:    30303030    0000    DCD    808464432
        0x000056d4:    30303030    0000    DCD    808464432
        0x000056d8:    30303030    0000    DCD    808464432
        0x000056dc:    31303030    0001    DCD    825241648
        0x000056e0:    00000000    ....    DCD    0
        0x000056e4:    00000000    ....    DCD    0
        0x000056e8:    00000000    ....    DCD    0
        0x000056ec:    00000000    ....    DCD    0
        0x000056f0:    00000000    ....    DCD    0
        0x000056f4:    00000000    ....    DCD    0
        0x000056f8:    00000000    ....    DCD    0
        0x000056fc:    00000000    ....    DCD    0
        0x00005700:    00000000    ....    DCD    0
        0x00005704:    00000000    ....    DCD    0
        0x00005708:    00000000    ....    DCD    0
        0x0000570c:    00000000    ....    DCD    0
        0x00005710:    00000000    ....    DCD    0
        0x00005714:    00000000    ....    DCD    0
        0x00005718:    00000000    ....    DCD    0
        0x0000571c:    00000000    ....    DCD    0
        0x00005720:    00000000    ....    DCD    0
        0x00005724:    00000000    ....    DCD    0
        0x00005728:    00000000    ....    DCD    0
        0x0000572c:    00000000    ....    DCD    0
        0x00005730:    00000000    ....    DCD    0
        0x00005734:    00000000    ....    DCD    0
        0x00005738:    00000000    ....    DCD    0
        0x0000573c:    00000000    ....    DCD    0
        0x00005740:    00000000    ....    DCD    0
        0x00005744:    00000000    ....    DCD    0
        0x00005748:    00000000    ....    DCD    0
        0x0000574c:    00000000    ....    DCD    0
        0x00005750:    00000000    ....    DCD    0
        0x00005754:    00000000    ....    DCD    0
        0x00005758:    00000046    F...    DCD    70
        0x0000575c:    46464646    FFFF    DCD    1179010630
        0x00005760:    46464646    FFFF    DCD    1179010630
        0x00005764:    46464646    FFFF    DCD    1179010630
        0x00005768:    46464646    FFFF    DCD    1179010630
        0x0000576c:    46464646    FFFF    DCD    1179010630
        0x00005770:    46464646    FFFF    DCD    1179010630
        0x00005774:    46464646    FFFF    DCD    1179010630
        0x00005778:    32413631    16A2    DCD    843134513
        0x0000577c:    38423045    E0B8    DCD    943861829
        0x00005780:    45333046    F03E    DCD    1160982598
        0x00005784:    44443331    13DD    DCD    1145320241
        0x00005788:    35343932    2945    DCD    892614962
        0x0000578c:    43354335    5C5C    DCD    1127564085
        0x00005790:    44334132    2A3D    DCD    1144209714
        0x00005794:    00000000    ....    DCD    0
        0x00005798:    00000000    ....    DCD    0
        0x0000579c:    00000000    ....    DCD    0
        0x000057a0:    00000000    ....    DCD    0
        0x000057a4:    00000000    ....    DCD    0
        0x000057a8:    00000000    ....    DCD    0
        0x000057ac:    00000000    ....    DCD    0
        0x000057b0:    00000000    ....    DCD    0
        0x000057b4:    00000000    ....    DCD    0
        0x000057b8:    00000000    ....    DCD    0
        0x000057bc:    00000000    ....    DCD    0
        0x000057c0:    00000000    ....    DCD    0
        0x000057c4:    00000000    ....    DCD    0
        0x000057c8:    00000000    ....    DCD    0
        0x000057cc:    00000000    ....    DCD    0
        0x000057d0:    00000000    ....    DCD    0
        0x000057d4:    00000000    ....    DCD    0
        0x000057d8:    00000000    ....    DCD    0
        0x000057dc:    00000000    ....    DCD    0
        0x000057e0:    00000000    ....    DCD    0
        0x000057e4:    00000000    ....    DCD    0
        0x000057e8:    00000000    ....    DCD    0
        0x000057ec:    00000000    ....    DCD    0
        0x000057f0:    00000000    ....    DCD    0
        0x000057f4:    00000000    ....    DCD    0
        0x000057f8:    00000000    ....    DCD    0
        0x000057fc:    00000000    ....    DCD    0
        0x00005800:    00000000    ....    DCD    0
        0x00005804:    00000000    ....    DCD    0
        0x00005808:    00000000    ....    DCD    0
        0x0000580c:    000000e0    ....    DCD    224
        0x00005810:    00000009    ....    DCD    9
        0x00005814:    00000008    ....    DCD    8
        0x00005818:    00000003    ....    DCD    3
        0x0000581c:    00000000    ....    DCD    0
        0x00005820:    00000002    ....    DCD    2
        0x00005824:    00000040    @...    DCD    64
        0x00005828:    46464646    FFFF    DCD    1179010630
        0x0000582c:    46464646    FFFF    DCD    1179010630
        0x00005830:    30303030    0000    DCD    808464432
        0x00005834:    31303030    0001    DCD    825241648
        0x00005838:    30303030    0000    DCD    808464432
        0x0000583c:    30303030    0000    DCD    808464432
        0x00005840:    30303030    0000    DCD    808464432
        0x00005844:    30303030    0000    DCD    808464432
        0x00005848:    30303030    0000    DCD    808464432
        0x0000584c:    30303030    0000    DCD    808464432
        0x00005850:    46464646    FFFF    DCD    1179010630
        0x00005854:    46464646    FFFF    DCD    1179010630
        0x00005858:    46464646    FFFF    DCD    1179010630
        0x0000585c:    46464646    FFFF    DCD    1179010630
        0x00005860:    46464646    FFFF    DCD    1179010630
        0x00005864:    43464646    FFFC    DCD    1128678982
        0x00005868:    00000000    ....    DCD    0
        0x0000586c:    00000000    ....    DCD    0
        0x00005870:    00000000    ....    DCD    0
        0x00005874:    00000000    ....    DCD    0
        0x00005878:    00000000    ....    DCD    0
        0x0000587c:    00000000    ....    DCD    0
        0x00005880:    00000000    ....    DCD    0
        0x00005884:    00000000    ....    DCD    0
        0x00005888:    00000000    ....    DCD    0
        0x0000588c:    00000000    ....    DCD    0
        0x00005890:    00000000    ....    DCD    0
        0x00005894:    00000000    ....    DCD    0
        0x00005898:    00000000    ....    DCD    0
        0x0000589c:    00000000    ....    DCD    0
        0x000058a0:    00000000    ....    DCD    0
        0x000058a4:    00000000    ....    DCD    0
        0x000058a8:    00000000    ....    DCD    0
        0x000058ac:    00000000    ....    DCD    0
        0x000058b0:    00000000    ....    DCD    0
        0x000058b4:    00000000    ....    DCD    0
        0x000058b8:    36636135    5ac6    DCD    912482613
        0x000058bc:    38643533    35d8    DCD    946091315
        0x000058c0:    61336161    aa3a    DCD    1630757217
        0x000058c4:    37653339    93e7    DCD    929379129
        0x000058c8:    62653362    b3eb    DCD    1650799458
        0x000058cc:    35356462    bd55    DCD    892691554
        0x000058d0:    38393637    7698    DCD    943273527
        0x000058d4:    63623638    86bc    DCD    1667380792
        0x000058d8:    64313536    651d    DCD    1680946486
        0x000058dc:    30623630    06b0    DCD    811742768
        0x000058e0:    33356363    cc53    DCD    859136867
        0x000058e4:    36663062    b0f6    DCD    912666722
        0x000058e8:    65636233    3bce    DCD    1701012019
        0x000058ec:    65336333    3c3e    DCD    1697866547
        0x000058f0:    32643732    27d2    DCD    845428530
        0x000058f4:    62343036    604b    DCD    1647587382
        0x000058f8:    00000000    ....    DCD    0
        0x000058fc:    00000000    ....    DCD    0
        0x00005900:    00000000    ....    DCD    0
        0x00005904:    00000000    ....    DCD    0
        0x00005908:    00000000    ....    DCD    0
        0x0000590c:    00000000    ....    DCD    0
        0x00005910:    00000000    ....    DCD    0
        0x00005914:    00000000    ....    DCD    0
        0x00005918:    00000000    ....    DCD    0
        0x0000591c:    00000000    ....    DCD    0
        0x00005920:    00000000    ....    DCD    0
        0x00005924:    00000000    ....    DCD    0
        0x00005928:    00000000    ....    DCD    0
        0x0000592c:    00000000    ....    DCD    0
        0x00005930:    00000000    ....    DCD    0
        0x00005934:    00000000    ....    DCD    0
        0x00005938:    00000000    ....    DCD    0
        0x0000593c:    00000000    ....    DCD    0
        0x00005940:    00000000    ....    DCD    0
        0x00005944:    00000000    ....    DCD    0
        0x00005948:    37316236    6b17    DCD    925983286
        0x0000594c:    32663164    d1f2    DCD    845558116
        0x00005950:    63323165    e12c    DCD    1664233829
        0x00005954:    37343234    4247    DCD    926167604
        0x00005958:    63623866    f8bc    DCD    1667381350
        0x0000595c:    35653665    e6e5    DCD    895825509
        0x00005960:    34613336    63a4    DCD    878785334
        0x00005964:    32663034    40f2    DCD    845557812
        0x00005968:    33303737    7703    DCD    858797879
        0x0000596c:    31386437    7d81    DCD    825779255
        0x00005970:    62656432    2deb    DCD    1650811954
        0x00005974:    30613333    33a0    DCD    811676467
        0x00005978:    31613466    f4a1    DCD    828453990
        0x0000597c:    35343933    3945    DCD    892614963
        0x00005980:    38393864    d898    DCD    943274084
        0x00005984:    36393263    c296    DCD    909718115
        0x00005988:    00000000    ....    DCD    0
        0x0000598c:    00000000    ....    DCD    0
        0x00005990:    00000000    ....    DCD    0
        0x00005994:    00000000    ....    DCD    0
        0x00005998:    00000000    ....    DCD    0
        0x0000599c:    00000000    ....    DCD    0
        0x000059a0:    00000000    ....    DCD    0
        0x000059a4:    00000000    ....    DCD    0
        0x000059a8:    00000000    ....    DCD    0
        0x000059ac:    00000000    ....    DCD    0
        0x000059b0:    00000000    ....    DCD    0
        0x000059b4:    00000000    ....    DCD    0
        0x000059b8:    00000000    ....    DCD    0
        0x000059bc:    00000000    ....    DCD    0
        0x000059c0:    00000000    ....    DCD    0
        0x000059c4:    00000000    ....    DCD    0
        0x000059c8:    00000000    ....    DCD    0
        0x000059cc:    00000000    ....    DCD    0
        0x000059d0:    00000000    ....    DCD    0
        0x000059d4:    00000000    ....    DCD    0
        0x000059d8:    33656634    4fe3    DCD    862283316
        0x000059dc:    32653234    42e2    DCD    845492788
        0x000059e0:    61316566    fe1a    DCD    1630627174
        0x000059e4:    62396637    7f9b    DCD    1647928887
        0x000059e8:    37656538    8ee7    DCD    929391928
        0x000059ec:    61346265    eb4a    DCD    1630823013
        0x000059f0:    66306337    7c0f    DCD    1714447159
        0x000059f4:    36316539    9e16    DCD    909206841
        0x000059f8:    65636232    2bce    DCD    1701012018
        0x000059fc:    37353333    3357    DCD    926233395
        0x00005a00:    31336236    6b31    DCD    825451062
        0x00005a04:    65636535    5ece    DCD    1701012789
        0x00005a08:    36626263    cbb6    DCD    912417379
        0x00005a0c:    38363034    4068    DCD    943075380
        0x00005a10:    66623733    37bf    DCD    1717712691
        0x00005a14:    35663135    51f5    DCD    895889717
        0x00005a18:    00000000    ....    DCD    0
        0x00005a1c:    00000000    ....    DCD    0
        0x00005a20:    00000000    ....    DCD    0
        0x00005a24:    00000000    ....    DCD    0
        0x00005a28:    00000000    ....    DCD    0
        0x00005a2c:    00000000    ....    DCD    0
        0x00005a30:    00000000    ....    DCD    0
        0x00005a34:    00000000    ....    DCD    0
        0x00005a38:    00000000    ....    DCD    0
        0x00005a3c:    00000000    ....    DCD    0
        0x00005a40:    00000000    ....    DCD    0
        0x00005a44:    00000000    ....    DCD    0
        0x00005a48:    00000000    ....    DCD    0
        0x00005a4c:    00000000    ....    DCD    0
        0x00005a50:    00000000    ....    DCD    0
        0x00005a54:    00000000    ....    DCD    0
        0x00005a58:    00000000    ....    DCD    0
        0x00005a5c:    00000000    ....    DCD    0
        0x00005a60:    00000000    ....    DCD    0
        0x00005a64:    00000000    ....    DCD    0
        0x00005a68:    0000004e    N...    DCD    78
        0x00005a6c:    46464646    FFFF    DCD    1179010630
        0x00005a70:    46464646    FFFF    DCD    1179010630
        0x00005a74:    30303030    0000    DCD    808464432
        0x00005a78:    31303030    0001    DCD    825241648
        0x00005a7c:    30303030    0000    DCD    808464432
        0x00005a80:    30303030    0000    DCD    808464432
        0x00005a84:    30303030    0000    DCD    808464432
        0x00005a88:    30303030    0000    DCD    808464432
        0x00005a8c:    30303030    0000    DCD    808464432
        0x00005a90:    30303030    0000    DCD    808464432
        0x00005a94:    46464646    FFFF    DCD    1179010630
        0x00005a98:    46464646    FFFF    DCD    1179010630
        0x00005a9c:    46464646    FFFF    DCD    1179010630
        0x00005aa0:    46464646    FFFF    DCD    1179010630
        0x00005aa4:    46464646    FFFF    DCD    1179010630
        0x00005aa8:    46464646    FFFF    DCD    1179010630
        0x00005aac:    00000000    ....    DCD    0
        0x00005ab0:    00000000    ....    DCD    0
        0x00005ab4:    00000000    ....    DCD    0
        0x00005ab8:    00000000    ....    DCD    0
        0x00005abc:    00000000    ....    DCD    0
        0x00005ac0:    00000000    ....    DCD    0
        0x00005ac4:    00000000    ....    DCD    0
        0x00005ac8:    00000000    ....    DCD    0
        0x00005acc:    00000000    ....    DCD    0
        0x00005ad0:    00000000    ....    DCD    0
        0x00005ad4:    00000000    ....    DCD    0
        0x00005ad8:    00000000    ....    DCD    0
        0x00005adc:    00000000    ....    DCD    0
        0x00005ae0:    00000000    ....    DCD    0
        0x00005ae4:    00000000    ....    DCD    0
        0x00005ae8:    00000000    ....    DCD    0
        0x00005aec:    00000000    ....    DCD    0
        0x00005af0:    00000000    ....    DCD    0
        0x00005af4:    00000000    ....    DCD    0
        0x00005af8:    00000000    ....    DCD    0
        0x00005afc:    00000000    ....    DCD    0
        0x00005b00:    00000000    ....    DCD    0
        0x00005b04:    00000000    ....    DCD    0
        0x00005b08:    00000000    ....    DCD    0
        0x00005b0c:    00000000    ....    DCD    0
        0x00005b10:    00000000    ....    DCD    0
        0x00005b14:    00000000    ....    DCD    0
        0x00005b18:    00000000    ....    DCD    0
        0x00005b1c:    0000004e    N...    DCD    78
        0x00005b20:    46464646    FFFF    DCD    1179010630
        0x00005b24:    46464646    FFFF    DCD    1179010630
        0x00005b28:    30303030    0000    DCD    808464432
        0x00005b2c:    30303030    0000    DCD    808464432
        0x00005b30:    46464646    FFFF    DCD    1179010630
        0x00005b34:    46464646    FFFF    DCD    1179010630
        0x00005b38:    46464646    FFFF    DCD    1179010630
        0x00005b3c:    46464646    FFFF    DCD    1179010630
        0x00005b40:    36454342    BCE6    DCD    910508866
        0x00005b44:    44414146    FAAD    DCD    1145127238
        0x00005b48:    37313741    A717    DCD    925972289
        0x00005b4c:    34384539    9E84    DCD    876102969
        0x00005b50:    39423346    F3B9    DCD    960639814
        0x00005b54:    32434143    CAC2    DCD    843268419
        0x00005b58:    33364346    FC63    DCD    859194182
        0x00005b5c:    31353532    2551    DCD    825570610
        0x00005b60:    00000000    ....    DCD    0
        0x00005b64:    00000000    ....    DCD    0
        0x00005b68:    00000000    ....    DCD    0
        0x00005b6c:    00000000    ....    DCD    0
        0x00005b70:    00000000    ....    DCD    0
        0x00005b74:    00000000    ....    DCD    0
        0x00005b78:    00000000    ....    DCD    0
        0x00005b7c:    00000000    ....    DCD    0
        0x00005b80:    00000000    ....    DCD    0
        0x00005b84:    00000000    ....    DCD    0
        0x00005b88:    00000000    ....    DCD    0
        0x00005b8c:    00000000    ....    DCD    0
        0x00005b90:    00000000    ....    DCD    0
        0x00005b94:    00000000    ....    DCD    0
        0x00005b98:    00000000    ....    DCD    0
        0x00005b9c:    00000000    ....    DCD    0
        0x00005ba0:    00000000    ....    DCD    0
        0x00005ba4:    00000000    ....    DCD    0
        0x00005ba8:    00000000    ....    DCD    0
        0x00005bac:    00000000    ....    DCD    0
        0x00005bb0:    00000000    ....    DCD    0
        0x00005bb4:    00000000    ....    DCD    0
        0x00005bb8:    00000000    ....    DCD    0
        0x00005bbc:    00000000    ....    DCD    0
        0x00005bc0:    00000000    ....    DCD    0
        0x00005bc4:    00000000    ....    DCD    0
        0x00005bc8:    00000000    ....    DCD    0
        0x00005bcc:    00000000    ....    DCD    0
        0x00005bd0:    00000100    ....    DCD    256
        0x00005bd4:    0000000a    ....    DCD    10
        0x00005bd8:    00000005    ....    DCD    5
        0x00005bdc:    00000002    ....    DCD    2
        0x00005be0:    00000000    ....    DCD    0
        0x00005be4:    00000003    ....    DCD    3
        0x00005be8:    00000060    `...    DCD    96
        0x00005bec:    46464646    FFFF    DCD    1179010630
        0x00005bf0:    46464646    FFFF    DCD    1179010630
        0x00005bf4:    46464646    FFFF    DCD    1179010630
        0x00005bf8:    46464646    FFFF    DCD    1179010630
        0x00005bfc:    46464646    FFFF    DCD    1179010630
        0x00005c00:    46464646    FFFF    DCD    1179010630
        0x00005c04:    46464646    FFFF    DCD    1179010630
        0x00005c08:    46464646    FFFF    DCD    1179010630
        0x00005c0c:    46464646    FFFF    DCD    1179010630
        0x00005c10:    46464646    FFFF    DCD    1179010630
        0x00005c14:    46464646    FFFF    DCD    1179010630
        0x00005c18:    46464646    FFFF    DCD    1179010630
        0x00005c1c:    46464646    FFFF    DCD    1179010630
        0x00005c20:    46464646    FFFF    DCD    1179010630
        0x00005c24:    46464646    FFFF    DCD    1179010630
        0x00005c28:    45464646    FFFE    DCD    1162233414
        0x00005c2c:    46464646    FFFF    DCD    1179010630
        0x00005c30:    46464646    FFFF    DCD    1179010630
        0x00005c34:    30303030    0000    DCD    808464432
        0x00005c38:    30303030    0000    DCD    808464432
        0x00005c3c:    30303030    0000    DCD    808464432
        0x00005c40:    30303030    0000    DCD    808464432
        0x00005c44:    46464646    FFFF    DCD    1179010630
        0x00005c48:    43464646    FFFC    DCD    1128678982
        0x00005c4c:    00000000    ....    DCD    0
        0x00005c50:    00000000    ....    DCD    0
        0x00005c54:    00000000    ....    DCD    0
        0x00005c58:    00000000    ....    DCD    0
        0x00005c5c:    00000000    ....    DCD    0
        0x00005c60:    00000000    ....    DCD    0
        0x00005c64:    00000000    ....    DCD    0
        0x00005c68:    00000000    ....    DCD    0
        0x00005c6c:    00000000    ....    DCD    0
        0x00005c70:    00000000    ....    DCD    0
        0x00005c74:    00000000    ....    DCD    0
        0x00005c78:    00000000    ....    DCD    0
        0x00005c7c:    31333362    b331    DCD    825439074
        0x00005c80:    37616632    2fa7    DCD    929130034
        0x00005c84:    65333265    e23e    DCD    1697854053
        0x00005c88:    34653765    e7e4    DCD    879048549
        0x00005c8c:    65383839    988e    DCD    1698183225
        0x00005c90:    62363530    056b    DCD    1647719728
        0x00005c94:    38663365    e3f8    DCD    946221925
        0x00005c98:    39316432    2d19    DCD    959538226
        0x00005c9c:    64313831    181d    DCD    1680947249
        0x00005ca0:    65366339    9c6e    DCD    1698063161
        0x00005ca4:    31386566    fe81    DCD    825779558
        0x00005ca8:    32313134    4112    DCD    842084660
        0x00005cac:    34313330    0314    DCD    875639600
        0x00005cb0:    66383830    088f    DCD    1714960432
        0x00005cb4:    33313035    5013    DCD    858861621
        0x00005cb8:    61353738    875a    DCD    1630877496
        0x00005cbc:    36353663    c656    DCD    909456995
        0x00005cc0:    64383933    398d    DCD    1681406259
        0x00005cc4:    65326138    8a2e    DCD    1697800504
        0x00005cc8:    64393164    d19d    DCD    1681469796
        0x00005ccc:    35386132    2a85    DCD    892887346
        0x00005cd0:    64653863    c8ed    DCD    1684355171
        0x00005cd4:    63653364    d3ec    DCD    1667576676
        0x00005cd8:    66656132    2aef    DCD    1717920050
        0x00005cdc:    00000000    ....    DCD    0
        0x00005ce0:    00000000    ....    DCD    0
        0x00005ce4:    00000000    ....    DCD    0
        0x00005ce8:    00000000    ....    DCD    0
        0x00005cec:    00000000    ....    DCD    0
        0x00005cf0:    00000000    ....    DCD    0
        0x00005cf4:    00000000    ....    DCD    0
        0x00005cf8:    00000000    ....    DCD    0
        0x00005cfc:    00000000    ....    DCD    0
        0x00005d00:    00000000    ....    DCD    0
        0x00005d04:    00000000    ....    DCD    0
        0x00005d08:    00000000    ....    DCD    0
        0x00005d0c:    37386161    aa87    DCD    926441825
        0x00005d10:    32326163    ca22    DCD    842162531
        0x00005d14:    62386562    be8b    DCD    1647863138
        0x00005d18:    37333530    0537    DCD    926102832
        0x00005d1c:    31626538    8eb1    DCD    828532024
        0x00005d20:    65313763    c71e    DCD    1697724259
        0x00005d24:    30323366    f320    DCD    808596326
        0x00005d28:    34376461    ad74    DCD    876045409
        0x00005d2c:    64316536    6e1d    DCD    1680958774
        0x00005d30:    32366233    3b62    DCD    842424883
        0x00005d34:    37616238    8ba7    DCD    929129016
        0x00005d38:    38396239    9b98    DCD    943284793
        0x00005d3c:    37663935    59f7    DCD    929446197
        0x00005d40:    30653134    41e0    DCD    811938100
        0x00005d44:    34353238    8254    DCD    875901496
        0x00005d48:    38336132    2a38    DCD    942891314
        0x00005d4c:    32303535    5502    DCD    842020149
        0x00005d50:    64353266    f25d    DCD    1681207910
        0x00005d54:    35356662    bf55    DCD    892692066
        0x00005d58:    63363932    296c    DCD    1664497970
        0x00005d5c:    34356133    3a54    DCD    875913523
        0x00005d60:    38336535    5e38    DCD    942892341
        0x00005d64:    36373237    7276    DCD    909586999
        0x00005d68:    37626130    0ab7    DCD    929194288
        0x00005d6c:    00000000    ....    DCD    0
        0x00005d70:    00000000    ....    DCD    0
        0x00005d74:    00000000    ....    DCD    0
        0x00005d78:    00000000    ....    DCD    0
        0x00005d7c:    00000000    ....    DCD    0
        0x00005d80:    00000000    ....    DCD    0
        0x00005d84:    00000000    ....    DCD    0
        0x00005d88:    00000000    ....    DCD    0
        0x00005d8c:    00000000    ....    DCD    0
        0x00005d90:    00000000    ....    DCD    0
        0x00005d94:    00000000    ....    DCD    0
        0x00005d98:    00000000    ....    DCD    0
        0x00005d9c:    37313633    3617    DCD    925972019
        0x00005da0:    61346564    de4a    DCD    1630823780
        0x00005da4:    36323639    9626    DCD    909260345
        0x00005da8:    66366332    2c6f    DCD    1714840370
        0x00005dac:    65396435    5d9e    DCD    1698260021
        0x00005db0:    66623839    98bf    DCD    1717712953
        0x00005db4:    32393239    9292    DCD    842609209
        0x00005db8:    39326364    dc29    DCD    959603556
        0x00005dbc:    34663866    f8f4    DCD    879114342
        0x00005dc0:    64626431    1dbd    DCD    1684169777
        0x00005dc4:    61393832    289a    DCD    1631139890
        0x00005dc8:    63373431    147c    DCD    1664562225
        0x00005dcc:    61643965    e9da    DCD    1633958245
        0x00005dd0:    33313133    3113    DCD    858861875
        0x00005dd4:    30663562    b5f0    DCD    812004706
        0x00005dd8:    30633862    b8c0    DCD    811808866
        0x00005ddc:    30366130    0a60    DCD    808870192
        0x00005de0:    65633162    b1ce    DCD    1700999522
        0x00005de4:    65376431    1d7e    DCD    1698128945
        0x00005de8:    64393138    819d    DCD    1681469752
        0x00005dec:    33346137    7a43    DCD    859070775
        0x00005df0:    63376431    1d7c    DCD    1664574513
        0x00005df4:    61653039    90ea    DCD    1634021433
        0x00005df8:    66356530    0e5f    DCD    1714775344
        0x00005dfc:    00000000    ....    DCD    0
        0x00005e00:    00000000    ....    DCD    0
        0x00005e04:    00000000    ....    DCD    0
        0x00005e08:    00000000    ....    DCD    0
        0x00005e0c:    00000000    ....    DCD    0
        0x00005e10:    00000000    ....    DCD    0
        0x00005e14:    00000000    ....    DCD    0
        0x00005e18:    00000000    ....    DCD    0
        0x00005e1c:    00000000    ....    DCD    0
        0x00005e20:    00000000    ....    DCD    0
        0x00005e24:    00000000    ....    DCD    0
        0x00005e28:    00000000    ....    DCD    0
        0x00005e2c:    00000074    t...    DCD    116
        0x00005e30:    46464646    FFFF    DCD    1179010630
        0x00005e34:    46464646    FFFF    DCD    1179010630
        0x00005e38:    46464646    FFFF    DCD    1179010630
        0x00005e3c:    46464646    FFFF    DCD    1179010630
        0x00005e40:    46464646    FFFF    DCD    1179010630
        0x00005e44:    46464646    FFFF    DCD    1179010630
        0x00005e48:    46464646    FFFF    DCD    1179010630
        0x00005e4c:    46464646    FFFF    DCD    1179010630
        0x00005e50:    46464646    FFFF    DCD    1179010630
        0x00005e54:    46464646    FFFF    DCD    1179010630
        0x00005e58:    46464646    FFFF    DCD    1179010630
        0x00005e5c:    46464646    FFFF    DCD    1179010630
        0x00005e60:    46464646    FFFF    DCD    1179010630
        0x00005e64:    46464646    FFFF    DCD    1179010630
        0x00005e68:    46464646    FFFF    DCD    1179010630
        0x00005e6c:    45464646    FFFE    DCD    1162233414
        0x00005e70:    46464646    FFFF    DCD    1179010630
        0x00005e74:    46464646    FFFF    DCD    1179010630
        0x00005e78:    30303030    0000    DCD    808464432
        0x00005e7c:    30303030    0000    DCD    808464432
        0x00005e80:    30303030    0000    DCD    808464432
        0x00005e84:    30303030    0000    DCD    808464432
        0x00005e88:    46464646    FFFF    DCD    1179010630
        0x00005e8c:    46464646    FFFF    DCD    1179010630
        0x00005e90:    00000000    ....    DCD    0
        0x00005e94:    00000000    ....    DCD    0
        0x00005e98:    00000000    ....    DCD    0
        0x00005e9c:    00000000    ....    DCD    0
        0x00005ea0:    00000000    ....    DCD    0
        0x00005ea4:    00000000    ....    DCD    0
        0x00005ea8:    00000000    ....    DCD    0
        0x00005eac:    00000000    ....    DCD    0
        0x00005eb0:    00000000    ....    DCD    0
        0x00005eb4:    00000000    ....    DCD    0
        0x00005eb8:    00000000    ....    DCD    0
        0x00005ebc:    00000000    ....    DCD    0
        0x00005ec0:    00000000    ....    DCD    0
        0x00005ec4:    00000000    ....    DCD    0
        0x00005ec8:    00000000    ....    DCD    0
        0x00005ecc:    00000000    ....    DCD    0
        0x00005ed0:    00000000    ....    DCD    0
        0x00005ed4:    00000000    ....    DCD    0
        0x00005ed8:    00000000    ....    DCD    0
        0x00005edc:    00000000    ....    DCD    0
        0x00005ee0:    00000074    t...    DCD    116
        0x00005ee4:    46464646    FFFF    DCD    1179010630
        0x00005ee8:    46464646    FFFF    DCD    1179010630
        0x00005eec:    46464646    FFFF    DCD    1179010630
        0x00005ef0:    46464646    FFFF    DCD    1179010630
        0x00005ef4:    46464646    FFFF    DCD    1179010630
        0x00005ef8:    46464646    FFFF    DCD    1179010630
        0x00005efc:    46464646    FFFF    DCD    1179010630
        0x00005f00:    46464646    FFFF    DCD    1179010630
        0x00005f04:    46464646    FFFF    DCD    1179010630
        0x00005f08:    46464646    FFFF    DCD    1179010630
        0x00005f0c:    46464646    FFFF    DCD    1179010630
        0x00005f10:    46464646    FFFF    DCD    1179010630
        0x00005f14:    33363743    C763    DCD    859191107
        0x00005f18:    31384434    4D81    DCD    825771060
        0x00005f1c:    37333446    F437    DCD    926102598
        0x00005f20:    46444432    2DDF    DCD    1178879026
        0x00005f24:    41313835    581A    DCD    1093744693
        0x00005f28:    32424430    0DB2    DCD    843203632
        0x00005f2c:    30423834    48B0    DCD    809646132
        0x00005f30:    41373741    A77A    DCD    1094137665
        0x00005f34:    43454345    ECEC    DCD    1128612677
        0x00005f38:    41363931    196A    DCD    1094072625
        0x00005f3c:    35434343    CCC5    DCD    893600579
        0x00005f40:    33373932    2973    DCD    859257138
        0x00005f44:    00000000    ....    DCD    0
        0x00005f48:    00000000    ....    DCD    0
        0x00005f4c:    00000000    ....    DCD    0
        0x00005f50:    00000000    ....    DCD    0
        0x00005f54:    00000000    ....    DCD    0
        0x00005f58:    00000000    ....    DCD    0
        0x00005f5c:    00000000    ....    DCD    0
        0x00005f60:    00000000    ....    DCD    0
        0x00005f64:    00000000    ....    DCD    0
        0x00005f68:    00000000    ....    DCD    0
        0x00005f6c:    00000000    ....    DCD    0
        0x00005f70:    00000000    ....    DCD    0
        0x00005f74:    00000000    ....    DCD    0
        0x00005f78:    00000000    ....    DCD    0
        0x00005f7c:    00000000    ....    DCD    0
        0x00005f80:    00000000    ....    DCD    0
        0x00005f84:    00000000    ....    DCD    0
        0x00005f88:    00000000    ....    DCD    0
        0x00005f8c:    00000000    ....    DCD    0
        0x00005f90:    00000000    ....    DCD    0
        0x00005f94:    00000180    ....    DCD    384
        0x00005f98:    0000000c    ....    DCD    12
        0x00005f9c:    00000003    ....    DCD    3
        0x00005fa0:    00000002    ....    DCD    2
        0x00005fa4:    00000000    ....    DCD    0
        0x00005fa8:    00000004    ....    DCD    4
        0x00005fac:    00000083    ....    DCD    131
        0x00005fb0:    46464631    1FFF    DCD    1179010609
        0x00005fb4:    46464646    FFFF    DCD    1179010630
        0x00005fb8:    46464646    FFFF    DCD    1179010630
        0x00005fbc:    46464646    FFFF    DCD    1179010630
        0x00005fc0:    46464646    FFFF    DCD    1179010630
        0x00005fc4:    46464646    FFFF    DCD    1179010630
        0x00005fc8:    46464646    FFFF    DCD    1179010630
        0x00005fcc:    46464646    FFFF    DCD    1179010630
        0x00005fd0:    46464646    FFFF    DCD    1179010630
        0x00005fd4:    46464646    FFFF    DCD    1179010630
        0x00005fd8:    46464646    FFFF    DCD    1179010630
        0x00005fdc:    46464646    FFFF    DCD    1179010630
        0x00005fe0:    46464646    FFFF    DCD    1179010630
        0x00005fe4:    46464646    FFFF    DCD    1179010630
        0x00005fe8:    46464646    FFFF    DCD    1179010630
        0x00005fec:    46464646    FFFF    DCD    1179010630
        0x00005ff0:    46464646    FFFF    DCD    1179010630
        0x00005ff4:    46464646    FFFF    DCD    1179010630
        0x00005ff8:    46464646    FFFF    DCD    1179010630
        0x00005ffc:    46464646    FFFF    DCD    1179010630
        0x00006000:    46464646    FFFF    DCD    1179010630
        0x00006004:    46464646    FFFF    DCD    1179010630
        0x00006008:    46464646    FFFF    DCD    1179010630
        0x0000600c:    46464646    FFFF    DCD    1179010630
        0x00006010:    46464646    FFFF    DCD    1179010630
        0x00006014:    46464646    FFFF    DCD    1179010630
        0x00006018:    46464646    FFFF    DCD    1179010630
        0x0000601c:    46464646    FFFF    DCD    1179010630
        0x00006020:    46464646    FFFF    DCD    1179010630
        0x00006024:    46464646    FFFF    DCD    1179010630
        0x00006028:    46464646    FFFF    DCD    1179010630
        0x0000602c:    46464646    FFFF    DCD    1179010630
        0x00006030:    00434646    FFC.    DCD    4408902
        0x00006034:    00000000    ....    DCD    0
        0x00006038:    00000000    ....    DCD    0
        0x0000603c:    00000000    ....    DCD    0
        0x00006040:    39313530    0519    DCD    959526192
        0x00006044:    62653335    53eb    DCD    1650799413
        0x00006048:    38313639    9618    DCD    942749241
        0x0000604c:    39633165    e1c9    DCD    962802021
        0x00006050:    39663161    a1f9    DCD    962998625
        0x00006054:    32613932    29a2    DCD    845232434
        0x00006058:    62306131    1a0b    DCD    1647337777
        0x0000605c:    34353836    6854    DCD    875903030
        0x00006060:    61656530    0eea    DCD    1634034992
        0x00006064:    37616432    2da7    DCD    929129522
        0x00006068:    39623532    25b9    DCD    962737458
        0x0000606c:    31336239    9b31    DCD    825451065
        0x00006070:    62336635    5f3b    DCD    1647535669
        0x00006074:    38346238    8b48    DCD    942957112
        0x00006078:    38313939    9918    DCD    942750009
        0x0000607c:    30316665    ef10    DCD    808543845
        0x00006080:    35316539    9e15    DCD    892429625
        0x00006084:    33393136    6193    DCD    859386166
        0x00006088:    65313539    951e    DCD    1697723705
        0x0000608c:    39653763    c7e9    DCD    962934627
        0x00006090:    31623733    37b1    DCD    828520243
        0x00006094:    63323536    652c    DCD    1664234806
        0x00006098:    33646230    0bd3    DCD    862216752
        0x0000609c:    62316262    bb1b    DCD    1647403618
        0x000060a0:    33373066    f073    DCD    859254886
        0x000060a4:    64333735    573d    DCD    1681078069
        0x000060a8:    33383866    f883    DCD    859322470
        0x000060ac:    33633264    d2c3    DCD    862138980
        0x000060b0:    65316634    4f1e    DCD    1697736244
        0x000060b4:    31353466    f451    DCD    825570406
        0x000060b8:    36346466    fd46    DCD    909403238
        0x000060bc:    33303562    b503    DCD    858797410
        0x000060c0:    00303066    f00.    DCD    3158118
        0x000060c4:    00000000    ....    DCD    0
        0x000060c8:    00000000    ....    DCD    0
        0x000060cc:    00000000    ....    DCD    0
        0x000060d0:    38366330    0c68    DCD    943088432
        0x000060d4:    30653835    58e0    DCD    811939893
        0x000060d8:    30376236    6b70    DCD    808935990
        0x000060dc:    65343034    404e    DCD    1697919028
        0x000060e0:    39646339    9cd9    DCD    962880313
        0x000060e4:    63653365    e3ec    DCD    1667576677
        0x000060e8:    32363662    b662    DCD    842413666
        0x000060ec:    62353933    395b    DCD    1647655219
        0x000060f0:    39323434    4429    DCD    959591476
        0x000060f4:    38343663    c648    DCD    942945891
        0x000060f8:    30393331    1390    DCD    809055025
        0x000060fc:    62663335    53fb    DCD    1650864949
        0x00006100:    66313235    521f    DCD    1714500149
        0x00006104:    61383238    828a    DCD    1631072824
        0x00006108:    36303666    f606    DCD    909129318
        0x0000610c:    33643462    b4d3    DCD    862205026
        0x00006110:    61616264    dbaa    DCD    1633772132
        0x00006114:    35623431    14b5    DCD    895628337
        0x00006118:    65373765    e77e    DCD    1698117477
        0x0000611c:    35376566    fe75    DCD    892822886
        0x00006120:    66383239    928f    DCD    1714958905
        0x00006124:    63643165    e1dc    DCD    1667510629
        0x00006128:    61373231    127a    DCD    1631007281
        0x0000612c:    61666632    2ffa    DCD    1634100786
        0x00006130:    33656438    8de3    DCD    862282808
        0x00006134:    62383433    348b    DCD    1647850547
        0x00006138:    38316333    3c18    DCD    942760755
        0x0000613c:    34613635    56a4    DCD    878786101
        0x00006140:    66623932    29bf    DCD    1717713202
        0x00006144:    37653739    97e7    DCD    929380153
        0x00006148:    63313365    e31c    DCD    1664168805
        0x0000614c:    62356532    2e5b    DCD    1647666482
        0x00006150:    00363664    d66.    DCD    3552868
        0x00006154:    00000000    ....    DCD    0
        0x00006158:    00000000    ....    DCD    0
        0x0000615c:    00000000    ....    DCD    0
        0x00006160:    33383131    1183    DCD    859320625
        0x00006164:    36393239    9296    DCD    909718073
        0x00006168:    39383761    a789    DCD    959985505
        0x0000616c:    63623361    a3bc    DCD    1667380065
        0x00006170:    35343030    0045    DCD    892612656
        0x00006174:    35613863    c8a5    DCD    895563875
        0x00006178:    32346266    fb42    DCD    842293862
        0x0000617c:    31643763    c7d1    DCD    828651363
        0x00006180:    39396462    bd99    DCD    960062562
        0x00006184:    34356638    8f54    DCD    875914808
        0x00006188:    35393434    4495    DCD    892941364
        0x0000618c:    34623937    79b4    DCD    878852407
        0x00006190:    31383634    4681    DCD    825767476
        0x00006194:    62666137    7afb    DCD    1650876727
        0x00006198:    32373164    d172    DCD    842477924
        0x0000619c:    36653337    73e6    DCD    912601911
        0x000061a0:    39633236    62c9    DCD    962802230
        0x000061a4:    37656537    7ee7    DCD    929391927
        0x000061a8:    35393932    2995    DCD    892942642
        0x000061ac:    32346665    ef42    DCD    842294885
        0x000061b0:    63303436    640c    DCD    1664103478
        0x000061b4:    62303535    550b    DCD    1647326517
        0x000061b8:    33313039    9013    DCD    858861625
        0x000061bc:    30646166    fad0    DCD    811884902
        0x000061c0:    33313637    7613    DCD    858863159
        0x000061c4:    37633335    53c7    DCD    929248053
        0x000061c8:    61363830    086a    DCD    1630943280
        0x000061cc:    63323732    272c    DCD    1664235314
        0x000061d0:    38303432    2408    DCD    942683186
        0x000061d4:    39656238    8be9    DCD    962945592
        0x000061d8:    39363734    4769    DCD    959854388
        0x000061dc:    36316466    fd16    DCD    909206630
        0x000061e0:    00303536    650.    DCD    3159350
        0x000061e4:    00000000    ....    DCD    0
        0x000061e8:    00000000    ....    DCD    0
        0x000061ec:    00000000    ....    DCD    0
        0x000061f0:    0000009d    ....    DCD    157
        0x000061f4:    46464631    1FFF    DCD    1179010609
        0x000061f8:    46464646    FFFF    DCD    1179010630
        0x000061fc:    46464646    FFFF    DCD    1179010630
        0x00006200:    46464646    FFFF    DCD    1179010630
        0x00006204:    46464646    FFFF    DCD    1179010630
        0x00006208:    46464646    FFFF    DCD    1179010630
        0x0000620c:    46464646    FFFF    DCD    1179010630
        0x00006210:    46464646    FFFF    DCD    1179010630
        0x00006214:    46464646    FFFF    DCD    1179010630
        0x00006218:    46464646    FFFF    DCD    1179010630
        0x0000621c:    46464646    FFFF    DCD    1179010630
        0x00006220:    46464646    FFFF    DCD    1179010630
        0x00006224:    46464646    FFFF    DCD    1179010630
        0x00006228:    46464646    FFFF    DCD    1179010630
        0x0000622c:    46464646    FFFF    DCD    1179010630
        0x00006230:    46464646    FFFF    DCD    1179010630
        0x00006234:    46464646    FFFF    DCD    1179010630
        0x00006238:    46464646    FFFF    DCD    1179010630
        0x0000623c:    46464646    FFFF    DCD    1179010630
        0x00006240:    46464646    FFFF    DCD    1179010630
        0x00006244:    46464646    FFFF    DCD    1179010630
        0x00006248:    46464646    FFFF    DCD    1179010630
        0x0000624c:    46464646    FFFF    DCD    1179010630
        0x00006250:    46464646    FFFF    DCD    1179010630
        0x00006254:    46464646    FFFF    DCD    1179010630
        0x00006258:    46464646    FFFF    DCD    1179010630
        0x0000625c:    46464646    FFFF    DCD    1179010630
        0x00006260:    46464646    FFFF    DCD    1179010630
        0x00006264:    46464646    FFFF    DCD    1179010630
        0x00006268:    46464646    FFFF    DCD    1179010630
        0x0000626c:    46464646    FFFF    DCD    1179010630
        0x00006270:    46464646    FFFF    DCD    1179010630
        0x00006274:    00464646    FFF.    DCD    4605510
        0x00006278:    00000000    ....    DCD    0
        0x0000627c:    00000000    ....    DCD    0
        0x00006280:    00000000    ....    DCD    0
        0x00006284:    00000000    ....    DCD    0
        0x00006288:    00000000    ....    DCD    0
        0x0000628c:    00000000    ....    DCD    0
        0x00006290:    00000000    ....    DCD    0
        0x00006294:    00000000    ....    DCD    0
        0x00006298:    00000000    ....    DCD    0
        0x0000629c:    00000000    ....    DCD    0
        0x000062a0:    00000000    ....    DCD    0
        0x000062a4:    0000009d    ....    DCD    157
        0x000062a8:    46464631    1FFF    DCD    1179010609
        0x000062ac:    46464646    FFFF    DCD    1179010630
        0x000062b0:    46464646    FFFF    DCD    1179010630
        0x000062b4:    46464646    FFFF    DCD    1179010630
        0x000062b8:    46464646    FFFF    DCD    1179010630
        0x000062bc:    46464646    FFFF    DCD    1179010630
        0x000062c0:    46464646    FFFF    DCD    1179010630
        0x000062c4:    46464646    FFFF    DCD    1179010630
        0x000062c8:    46464646    FFFF    DCD    1179010630
        0x000062cc:    46464646    FFFF    DCD    1179010630
        0x000062d0:    46464646    FFFF    DCD    1179010630
        0x000062d4:    46464646    FFFF    DCD    1179010630
        0x000062d8:    46464646    FFFF    DCD    1179010630
        0x000062dc:    46464646    FFFF    DCD    1179010630
        0x000062e0:    46464646    FFFF    DCD    1179010630
        0x000062e4:    46464646    FFFF    DCD    1179010630
        0x000062e8:    35414646    FFA5    DCD    893470278
        0x000062ec:    38363831    1868    DCD    943077425
        0x000062f0:    42333837    783B    DCD    1110652983
        0x000062f4:    39463246    F2F9    DCD    960901702
        0x000062f8:    37423636    66B7    DCD    927086134
        0x000062fc:    30434346    FCC0    DCD    809714502
        0x00006300:    46383431    148F    DCD    1178088497
        0x00006304:    41393037    709A    DCD    1094266935
        0x00006308:    33304435    5D03    DCD    858801205
        0x0000630c:    43354242    BB5C    DCD    1127563842
        0x00006310:    38384239    9B88    DCD    943211065
        0x00006314:    34433939    99C4    DCD    876820793
        0x00006318:    42454137    7AEB    DCD    1111834935
        0x0000631c:    42463642    B6FB    DCD    1111897666
        0x00006320:    39453137    71E9    DCD    960835895
        0x00006324:    36383331    1386    DCD    909652785
        0x00006328:    00393034    409.    DCD    3747892
        0x0000632c:    00000000    ....    DCD    0
        0x00006330:    00000000    ....    DCD    0
        0x00006334:    00000000    ....    DCD    0
        0x00006338:    00000000    ....    DCD    0
        0x0000633c:    00000000    ....    DCD    0
        0x00006340:    00000000    ....    DCD    0
        0x00006344:    00000000    ....    DCD    0
        0x00006348:    00000000    ....    DCD    0
        0x0000634c:    00000000    ....    DCD    0
        0x00006350:    00000000    ....    DCD    0
        0x00006354:    00000000    ....    DCD    0
        0x00006358:    00000209    ....    DCD    521
        0x0000635c:    00000020     ...    DCD    32
        0x00006360:    00000020     ...    DCD    32
        0x00006364:    00000020     ...    DCD    32
        0x00006368:    00000000    ....    DCD    0
        0x0000636c:    0000000a    ....    DCD    10
        0x00006370:    00000029    )...    DCD    41
        0x00006374:    30303030    0000    DCD    808464432
        0x00006378:    30303030    0000    DCD    808464432
        0x0000637c:    30303030    0000    DCD    808464432
        0x00006380:    30303030    0000    DCD    808464432
        0x00006384:    30303030    0000    DCD    808464432
        0x00006388:    30303030    0000    DCD    808464432
        0x0000638c:    30303030    0000    DCD    808464432
        0x00006390:    30303030    0000    DCD    808464432
        0x00006394:    30303030    0000    DCD    808464432
        0x00006398:    30303030    0000    DCD    808464432
        0x0000639c:    00000031    1...    DCD    49
        0x000063a0:    00000000    ....    DCD    0
        0x000063a4:    00000000    ....    DCD    0
        0x000063a8:    00000000    ....    DCD    0
        0x000063ac:    00000000    ....    DCD    0
        0x000063b0:    00000000    ....    DCD    0
        0x000063b4:    00000000    ....    DCD    0
        0x000063b8:    00000000    ....    DCD    0
        0x000063bc:    00000000    ....    DCD    0
        0x000063c0:    00000000    ....    DCD    0
        0x000063c4:    00000000    ....    DCD    0
        0x000063c8:    00000000    ....    DCD    0
        0x000063cc:    00000000    ....    DCD    0
        0x000063d0:    00000000    ....    DCD    0
        0x000063d4:    00000000    ....    DCD    0
        0x000063d8:    00000000    ....    DCD    0
        0x000063dc:    00000000    ....    DCD    0
        0x000063e0:    00000000    ....    DCD    0
        0x000063e4:    00000000    ....    DCD    0
        0x000063e8:    00000000    ....    DCD    0
        0x000063ec:    00000000    ....    DCD    0
        0x000063f0:    00000000    ....    DCD    0
        0x000063f4:    00000000    ....    DCD    0
        0x000063f8:    00000000    ....    DCD    0
        0x000063fc:    00000000    ....    DCD    0
        0x00006400:    00000000    ....    DCD    0
        0x00006404:    36613032    20a6    DCD    912338994
        0x00006408:    30393130    0190    DCD    809054512
        0x0000640c:    63386237    7b8c    DCD    1664639543
        0x00006410:    63333539    953c    DCD    1664300345
        0x00006414:    38343161    a148    DCD    942944609
        0x00006418:    31626531    1eb1    DCD    828532017
        0x0000641c:    32313530    0512    DCD    842085680
        0x00006420:    37383766    f787    DCD    926431078
        0x00006424:    33613434    44a3    DCD    862008372
        0x00006428:    66353032    205f    DCD    1714761778
        0x0000642c:    00000064    d...    DCD    100
        0x00006430:    00000000    ....    DCD    0
        0x00006434:    00000000    ....    DCD    0
        0x00006438:    00000000    ....    DCD    0
        0x0000643c:    00000000    ....    DCD    0
        0x00006440:    00000000    ....    DCD    0
        0x00006444:    00000000    ....    DCD    0
        0x00006448:    00000000    ....    DCD    0
        0x0000644c:    00000000    ....    DCD    0
        0x00006450:    00000000    ....    DCD    0
        0x00006454:    00000000    ....    DCD    0
        0x00006458:    00000000    ....    DCD    0
        0x0000645c:    00000000    ....    DCD    0
        0x00006460:    00000000    ....    DCD    0
        0x00006464:    00000000    ....    DCD    0
        0x00006468:    00000000    ....    DCD    0
        0x0000646c:    00000000    ....    DCD    0
        0x00006470:    00000000    ....    DCD    0
        0x00006474:    00000000    ....    DCD    0
        0x00006478:    00000000    ....    DCD    0
        0x0000647c:    00000000    ....    DCD    0
        0x00006480:    00000000    ....    DCD    0
        0x00006484:    00000000    ....    DCD    0
        0x00006488:    00000000    ....    DCD    0
        0x0000648c:    00000000    ....    DCD    0
        0x00006490:    00000000    ....    DCD    0
        0x00006494:    65306633    3f0e    DCD    1697670707
        0x00006498:    36316162    ba16    DCD    909205858
        0x0000649c:    61363832    286a    DCD    1630943282
        0x000064a0:    37356432    2d57    DCD    926245938
        0x000064a4:    39306165    ea09    DCD    959471973
        0x000064a8:    36313139    9116    DCD    909193529
        0x000064ac:    39346438    8d49    DCD    959734840
        0x000064b0:    33363439    9463    DCD    859190329
        0x000064b4:    33386537    7e83    DCD    859333943
        0x000064b8:    33653334    43e3    DCD    862270260
        0x000064bc:    00000036    6...    DCD    54
        0x000064c0:    00000000    ....    DCD    0
        0x000064c4:    00000000    ....    DCD    0
        0x000064c8:    00000000    ....    DCD    0
        0x000064cc:    00000000    ....    DCD    0
        0x000064d0:    00000000    ....    DCD    0
        0x000064d4:    00000000    ....    DCD    0
        0x000064d8:    00000000    ....    DCD    0
        0x000064dc:    00000000    ....    DCD    0
        0x000064e0:    00000000    ....    DCD    0
        0x000064e4:    00000000    ....    DCD    0
        0x000064e8:    00000000    ....    DCD    0
        0x000064ec:    00000000    ....    DCD    0
        0x000064f0:    00000000    ....    DCD    0
        0x000064f4:    00000000    ....    DCD    0
        0x000064f8:    00000000    ....    DCD    0
        0x000064fc:    00000000    ....    DCD    0
        0x00006500:    00000000    ....    DCD    0
        0x00006504:    00000000    ....    DCD    0
        0x00006508:    00000000    ....    DCD    0
        0x0000650c:    00000000    ....    DCD    0
        0x00006510:    00000000    ....    DCD    0
        0x00006514:    00000000    ....    DCD    0
        0x00006518:    00000000    ....    DCD    0
        0x0000651c:    00000000    ....    DCD    0
        0x00006520:    00000000    ....    DCD    0
        0x00006524:    31356430    0d51    DCD    825582640
        0x00006528:    36636266    fbc6    DCD    912482918
        0x0000652c:    61313763    c71a    DCD    1630615395
        0x00006530:    34393030    0094    DCD    876163120
        0x00006534:    63326166    fa2c    DCD    1664246118
        0x00006538:    34356464    dd54    DCD    875914340
        0x0000653c:    31316235    5b11    DCD    825319989
        0x00006540:    30633563    c5c0    DCD    811808099
        0x00006544:    37393763    c797    DCD    926496611
        0x00006548:    66343233    324f    DCD    1714696755
        0x0000654c:    00000031    1...    DCD    49
        0x00006550:    00000000    ....    DCD    0
        0x00006554:    00000000    ....    DCD    0
        0x00006558:    00000000    ....    DCD    0
        0x0000655c:    00000000    ....    DCD    0
        0x00006560:    00000000    ....    DCD    0
        0x00006564:    00000000    ....    DCD    0
        0x00006568:    00000000    ....    DCD    0
        0x0000656c:    00000000    ....    DCD    0
        0x00006570:    00000000    ....    DCD    0
        0x00006574:    00000000    ....    DCD    0
        0x00006578:    00000000    ....    DCD    0
        0x0000657c:    00000000    ....    DCD    0
        0x00006580:    00000000    ....    DCD    0
        0x00006584:    00000000    ....    DCD    0
        0x00006588:    00000000    ....    DCD    0
        0x0000658c:    00000000    ....    DCD    0
        0x00006590:    00000000    ....    DCD    0
        0x00006594:    00000000    ....    DCD    0
        0x00006598:    00000000    ....    DCD    0
        0x0000659c:    00000000    ....    DCD    0
        0x000065a0:    00000000    ....    DCD    0
        0x000065a4:    00000000    ....    DCD    0
        0x000065a8:    00000000    ....    DCD    0
        0x000065ac:    00000000    ....    DCD    0
        0x000065b0:    00000000    ....    DCD    0
        0x000065b4:    00000044    D...    DCD    68
        0x000065b8:    46464646    FFFF    DCD    1179010630
        0x000065bc:    46464646    FFFF    DCD    1179010630
        0x000065c0:    46464646    FFFF    DCD    1179010630
        0x000065c4:    46464646    FFFF    DCD    1179010630
        0x000065c8:    46464646    FFFF    DCD    1179010630
        0x000065cc:    46464646    FFFF    DCD    1179010630
        0x000065d0:    46464646    FFFF    DCD    1179010630
        0x000065d4:    46464646    FFFF    DCD    1179010630
        0x000065d8:    30303030    0000    DCD    808464432
        0x000065dc:    30303030    0000    DCD    808464432
        0x000065e0:    30303030    0000    DCD    808464432
        0x000065e4:    30303030    0000    DCD    808464432
        0x000065e8:    30303030    0000    DCD    808464432
        0x000065ec:    31303030    0001    DCD    825241648
        0x000065f0:    00000000    ....    DCD    0
        0x000065f4:    00000000    ....    DCD    0
        0x000065f8:    00000000    ....    DCD    0
        0x000065fc:    00000000    ....    DCD    0
        0x00006600:    00000000    ....    DCD    0
        0x00006604:    00000000    ....    DCD    0
        0x00006608:    00000000    ....    DCD    0
        0x0000660c:    00000000    ....    DCD    0
        0x00006610:    00000000    ....    DCD    0
        0x00006614:    00000000    ....    DCD    0
        0x00006618:    00000000    ....    DCD    0
        0x0000661c:    00000000    ....    DCD    0
        0x00006620:    00000000    ....    DCD    0
        0x00006624:    00000000    ....    DCD    0
        0x00006628:    00000000    ....    DCD    0
        0x0000662c:    00000000    ....    DCD    0
        0x00006630:    00000000    ....    DCD    0
        0x00006634:    00000000    ....    DCD    0
        0x00006638:    00000000    ....    DCD    0
        0x0000663c:    00000000    ....    DCD    0
        0x00006640:    00000000    ....    DCD    0
        0x00006644:    00000000    ....    DCD    0
        0x00006648:    00000000    ....    DCD    0
        0x0000664c:    00000000    ....    DCD    0
        0x00006650:    00000000    ....    DCD    0
        0x00006654:    00000000    ....    DCD    0
        0x00006658:    00000000    ....    DCD    0
        0x0000665c:    00000000    ....    DCD    0
        0x00006660:    00000000    ....    DCD    0
        0x00006664:    00000000    ....    DCD    0
        0x00006668:    00000031    1...    DCD    49
        0x0000666c:    30303034    4000    DCD    808464436
        0x00006670:    30303030    0000    DCD    808464432
        0x00006674:    30303030    0000    DCD    808464432
        0x00006678:    30303030    0000    DCD    808464432
        0x0000667c:    30303030    0000    DCD    808464432
        0x00006680:    46323932    292F    DCD    1177696562
        0x00006684:    45373745    E77E    DCD    1161246533
        0x00006688:    31433037    70C1    DCD    826486839
        0x0000668c:    32344132    2A42    DCD    842285362
        0x00006690:    33433433    34C3    DCD    860042291
        0x00006694:    00000033    3...    DCD    51
        0x00006698:    00000000    ....    DCD    0
        0x0000669c:    00000000    ....    DCD    0
        0x000066a0:    00000000    ....    DCD    0
        0x000066a4:    00000000    ....    DCD    0
        0x000066a8:    00000000    ....    DCD    0
        0x000066ac:    00000000    ....    DCD    0
        0x000066b0:    00000000    ....    DCD    0
        0x000066b4:    00000000    ....    DCD    0
        0x000066b8:    00000000    ....    DCD    0
        0x000066bc:    00000000    ....    DCD    0
        0x000066c0:    00000000    ....    DCD    0
        0x000066c4:    00000000    ....    DCD    0
        0x000066c8:    00000000    ....    DCD    0
        0x000066cc:    00000000    ....    DCD    0
        0x000066d0:    00000000    ....    DCD    0
        0x000066d4:    00000000    ....    DCD    0
        0x000066d8:    00000000    ....    DCD    0
        0x000066dc:    00000000    ....    DCD    0
        0x000066e0:    00000000    ....    DCD    0
        0x000066e4:    00000000    ....    DCD    0
        0x000066e8:    00000000    ....    DCD    0
        0x000066ec:    00000000    ....    DCD    0
        0x000066f0:    00000000    ....    DCD    0
        0x000066f4:    00000000    ....    DCD    0
        0x000066f8:    00000000    ....    DCD    0
        0x000066fc:    00000000    ....    DCD    0
        0x00006700:    00000000    ....    DCD    0
        0x00006704:    00000000    ....    DCD    0
        0x00006708:    00000000    ....    DCD    0
        0x0000670c:    00000000    ....    DCD    0
        0x00006710:    00000000    ....    DCD    0
        0x00006714:    00000000    ....    DCD    0
        0x00006718:    00000000    ....    DCD    0
        0x0000671c:    000000a3    ....    DCD    163
        0x00006720:    00000007    ....    DCD    7
        0x00006724:    00000006    ....    DCD    6
        0x00006728:    00000003    ....    DCD    3
        0x0000672c:    00000001    ....    DCD    1
        0x00006730:    0000000b    ....    DCD    11
        0x00006734:    0000003b    ;...    DCD    59
        0x00006738:    30303030    0000    DCD    808464432
        0x0000673c:    30303030    0000    DCD    808464432
        0x00006740:    30303030    0000    DCD    808464432
        0x00006744:    30303030    0000    DCD    808464432
        0x00006748:    30303030    0000    DCD    808464432
        0x0000674c:    30303030    0000    DCD    808464432
        0x00006750:    30303030    0000    DCD    808464432
        0x00006754:    30303030    0000    DCD    808464432
        0x00006758:    30303030    0000    DCD    808464432
        0x0000675c:    30303030    0000    DCD    808464432
        0x00006760:    30303030    0000    DCD    808464432
        0x00006764:    30303030    0000    DCD    808464432
        0x00006768:    30303030    0000    DCD    808464432
        0x0000676c:    30303030    0000    DCD    808464432
        0x00006770:    00313030    001.    DCD    3223600
        0x00006774:    00000000    ....    DCD    0
        0x00006778:    00000000    ....    DCD    0
        0x0000677c:    00000000    ....    DCD    0
        0x00006780:    00000000    ....    DCD    0
        0x00006784:    00000000    ....    DCD    0
        0x00006788:    00000000    ....    DCD    0
        0x0000678c:    00000000    ....    DCD    0
        0x00006790:    00000000    ....    DCD    0
        0x00006794:    00000000    ....    DCD    0
        0x00006798:    00000000    ....    DCD    0
        0x0000679c:    00000000    ....    DCD    0
        0x000067a0:    00000000    ....    DCD    0
        0x000067a4:    00000000    ....    DCD    0
        0x000067a8:    00000000    ....    DCD    0
        0x000067ac:    00000000    ....    DCD    0
        0x000067b0:    00000000    ....    DCD    0
        0x000067b4:    00000000    ....    DCD    0
        0x000067b8:    00000000    ....    DCD    0
        0x000067bc:    00000000    ....    DCD    0
        0x000067c0:    00000000    ....    DCD    0
        0x000067c4:    00000000    ....    DCD    0
        0x000067c8:    36363630    0666    DCD    909522480
        0x000067cc:    64653734    47ed    DCD    1684354868
        0x000067d0:    33633665    e6c3    DCD    862140005
        0x000067d4:    37633233    32c7    DCD    929247795
        0x000067d8:    30633866    f8c0    DCD    811808870
        0x000067dc:    62333239    923b    DCD    1647522361
        0x000067e0:    32383562    b582    DCD    842544482
        0x000067e4:    33623331    13b3    DCD    862073649
        0x000067e8:    32623333    33b2    DCD    845296435
        0x000067ec:    63396530    0e9c    DCD    1664705840
        0x000067f0:    38323465    e428    DCD    942814309
        0x000067f4:    31656631    1fe1    DCD    828728881
        0x000067f8:    37663531    15f7    DCD    929445169
        0x000067fc:    39663864    d8f9    DCD    963000420
        0x00006800:    00646130    0ad.    DCD    6578480
        0x00006804:    00000000    ....    DCD    0
        0x00006808:    00000000    ....    DCD    0
        0x0000680c:    00000000    ....    DCD    0
        0x00006810:    00000000    ....    DCD    0
        0x00006814:    00000000    ....    DCD    0
        0x00006818:    00000000    ....    DCD    0
        0x0000681c:    00000000    ....    DCD    0
        0x00006820:    00000000    ....    DCD    0
        0x00006824:    00000000    ....    DCD    0
        0x00006828:    00000000    ....    DCD    0
        0x0000682c:    00000000    ....    DCD    0
        0x00006830:    00000000    ....    DCD    0
        0x00006834:    00000000    ....    DCD    0
        0x00006838:    00000000    ....    DCD    0
        0x0000683c:    00000000    ....    DCD    0
        0x00006840:    00000000    ....    DCD    0
        0x00006844:    00000000    ....    DCD    0
        0x00006848:    00000000    ....    DCD    0
        0x0000684c:    00000000    ....    DCD    0
        0x00006850:    00000000    ....    DCD    0
        0x00006854:    00000000    ....    DCD    0
        0x00006858:    63616630    0fac    DCD    1667327536
        0x0000685c:    63666439    9dfc    DCD    1667654713
        0x00006860:    38636162    bac8    DCD    946037090
        0x00006864:    62333133    313b    DCD    1647522099
        0x00006868:    33313262    b213    DCD    858862178
        0x0000686c:    62316639    9f1b    DCD    1647404601
        0x00006870:    35353762    b755    DCD    892680034
        0x00006874:    36666566    fef6    DCD    912680294
        0x00006878:    33636235    5bc3    DCD    862151221
        0x0000687c:    38663139    91f8    DCD    946221369
        0x00006880:    66363362    b36f    DCD    1714828130
        0x00006884:    65386638    8f8e    DCD    1698195000
        0x00006888:    37333762    b737    DCD    926103394
        0x0000688c:    35646631    1fd5    DCD    895772209
        0x00006890:    00623835    58b.    DCD    6436917
        0x00006894:    00000000    ....    DCD    0
        0x00006898:    00000000    ....    DCD    0
        0x0000689c:    00000000    ....    DCD    0
        0x000068a0:    00000000    ....    DCD    0
        0x000068a4:    00000000    ....    DCD    0
        0x000068a8:    00000000    ....    DCD    0
        0x000068ac:    00000000    ....    DCD    0
        0x000068b0:    00000000    ....    DCD    0
        0x000068b4:    00000000    ....    DCD    0
        0x000068b8:    00000000    ....    DCD    0
        0x000068bc:    00000000    ....    DCD    0
        0x000068c0:    00000000    ....    DCD    0
        0x000068c4:    00000000    ....    DCD    0
        0x000068c8:    00000000    ....    DCD    0
        0x000068cc:    00000000    ....    DCD    0
        0x000068d0:    00000000    ....    DCD    0
        0x000068d4:    00000000    ....    DCD    0
        0x000068d8:    00000000    ....    DCD    0
        0x000068dc:    00000000    ....    DCD    0
        0x000068e0:    00000000    ....    DCD    0
        0x000068e4:    00000000    ....    DCD    0
        0x000068e8:    36303031    1006    DCD    909127729
        0x000068ec:    61383061    a08a    DCD    1631072353
        0x000068f0:    30393134    4190    DCD    809054516
        0x000068f4:    30353333    3350    DCD    808792883
        0x000068f8:    65383736    678e    DCD    1698182966
        0x000068fc:    32353835    5852    DCD    842348597
        0x00006900:    62656238    8beb    DCD    1650811448
        0x00006904:    30613866    f8a0    DCD    811677798
        0x00006908:    66666562    beff    DCD    1717986658
        0x0000690c:    61373638    867a    DCD    1631008312
        0x00006910:    33616337    7ca3    DCD    862020407
        0x00006914:    36313736    6716    DCD    909195062
        0x00006918:    30653766    f7e0    DCD    811939686
        0x0000691c:    31386631    1f81    DCD    825779761
        0x00006920:    00323530    052.    DCD    3290416
        0x00006924:    00000000    ....    DCD    0
        0x00006928:    00000000    ....    DCD    0
        0x0000692c:    00000000    ....    DCD    0
        0x00006930:    00000000    ....    DCD    0
        0x00006934:    00000000    ....    DCD    0
        0x00006938:    00000000    ....    DCD    0
        0x0000693c:    00000000    ....    DCD    0
        0x00006940:    00000000    ....    DCD    0
        0x00006944:    00000000    ....    DCD    0
        0x00006948:    00000000    ....    DCD    0
        0x0000694c:    00000000    ....    DCD    0
        0x00006950:    00000000    ....    DCD    0
        0x00006954:    00000000    ....    DCD    0
        0x00006958:    00000000    ....    DCD    0
        0x0000695c:    00000000    ....    DCD    0
        0x00006960:    00000000    ....    DCD    0
        0x00006964:    00000000    ....    DCD    0
        0x00006968:    00000000    ....    DCD    0
        0x0000696c:    00000000    ....    DCD    0
        0x00006970:    00000000    ....    DCD    0
        0x00006974:    00000000    ....    DCD    0
        0x00006978:    00000044    D...    DCD    68
        0x0000697c:    46464646    FFFF    DCD    1179010630
        0x00006980:    46464646    FFFF    DCD    1179010630
        0x00006984:    46464646    FFFF    DCD    1179010630
        0x00006988:    46464646    FFFF    DCD    1179010630
        0x0000698c:    46464646    FFFF    DCD    1179010630
        0x00006990:    46464646    FFFF    DCD    1179010630
        0x00006994:    46464646    FFFF    DCD    1179010630
        0x00006998:    46464646    FFFF    DCD    1179010630
        0x0000699c:    30303030    0000    DCD    808464432
        0x000069a0:    30303030    0000    DCD    808464432
        0x000069a4:    30303030    0000    DCD    808464432
        0x000069a8:    30303030    0000    DCD    808464432
        0x000069ac:    30303030    0000    DCD    808464432
        0x000069b0:    31303030    0001    DCD    825241648
        0x000069b4:    00000000    ....    DCD    0
        0x000069b8:    00000000    ....    DCD    0
        0x000069bc:    00000000    ....    DCD    0
        0x000069c0:    00000000    ....    DCD    0
        0x000069c4:    00000000    ....    DCD    0
        0x000069c8:    00000000    ....    DCD    0
        0x000069cc:    00000000    ....    DCD    0
        0x000069d0:    00000000    ....    DCD    0
        0x000069d4:    00000000    ....    DCD    0
        0x000069d8:    00000000    ....    DCD    0
        0x000069dc:    00000000    ....    DCD    0
        0x000069e0:    00000000    ....    DCD    0
        0x000069e4:    00000000    ....    DCD    0
        0x000069e8:    00000000    ....    DCD    0
        0x000069ec:    00000000    ....    DCD    0
        0x000069f0:    00000000    ....    DCD    0
        0x000069f4:    00000000    ....    DCD    0
        0x000069f8:    00000000    ....    DCD    0
        0x000069fc:    00000000    ....    DCD    0
        0x00006a00:    00000000    ....    DCD    0
        0x00006a04:    00000000    ....    DCD    0
        0x00006a08:    00000000    ....    DCD    0
        0x00006a0c:    00000000    ....    DCD    0
        0x00006a10:    00000000    ....    DCD    0
        0x00006a14:    00000000    ....    DCD    0
        0x00006a18:    00000000    ....    DCD    0
        0x00006a1c:    00000000    ....    DCD    0
        0x00006a20:    00000000    ....    DCD    0
        0x00006a24:    00000000    ....    DCD    0
        0x00006a28:    00000000    ....    DCD    0
        0x00006a2c:    00000046    F...    DCD    70
        0x00006a30:    30303031    1000    DCD    808464433
        0x00006a34:    30303030    0000    DCD    808464432
        0x00006a38:    30303030    0000    DCD    808464432
        0x00006a3c:    30303030    0000    DCD    808464432
        0x00006a40:    30303030    0000    DCD    808464432
        0x00006a44:    30303030    0000    DCD    808464432
        0x00006a48:    30303030    0000    DCD    808464432
        0x00006a4c:    45333130    013E    DCD    1160982832
        0x00006a50:    45343739    974E    DCD    1161049913
        0x00006a54:    38463237    72F8    DCD    944124471
        0x00006a58:    32393641    A692    DCD    842610241
        0x00006a5c:    31333032    2031    DCD    825438258
        0x00006a60:    30363244    D260    DCD    808858180
        0x00006a64:    45464333    3CFE    DCD    1162232627
        0x00006a68:    00374430    0D7.    DCD    3621936
        0x00006a6c:    00000000    ....    DCD    0
        0x00006a70:    00000000    ....    DCD    0
        0x00006a74:    00000000    ....    DCD    0
        0x00006a78:    00000000    ....    DCD    0
        0x00006a7c:    00000000    ....    DCD    0
        0x00006a80:    00000000    ....    DCD    0
        0x00006a84:    00000000    ....    DCD    0
        0x00006a88:    00000000    ....    DCD    0
        0x00006a8c:    00000000    ....    DCD    0
        0x00006a90:    00000000    ....    DCD    0
        0x00006a94:    00000000    ....    DCD    0
        0x00006a98:    00000000    ....    DCD    0
        0x00006a9c:    00000000    ....    DCD    0
        0x00006aa0:    00000000    ....    DCD    0
        0x00006aa4:    00000000    ....    DCD    0
        0x00006aa8:    00000000    ....    DCD    0
        0x00006aac:    00000000    ....    DCD    0
        0x00006ab0:    00000000    ....    DCD    0
        0x00006ab4:    00000000    ....    DCD    0
        0x00006ab8:    00000000    ....    DCD    0
        0x00006abc:    00000000    ....    DCD    0
        0x00006ac0:    00000000    ....    DCD    0
        0x00006ac4:    00000000    ....    DCD    0
        0x00006ac8:    00000000    ....    DCD    0
        0x00006acc:    00000000    ....    DCD    0
        0x00006ad0:    00000000    ....    DCD    0
        0x00006ad4:    00000000    ....    DCD    0
        0x00006ad8:    00000000    ....    DCD    0
        0x00006adc:    00000000    ....    DCD    0
        0x00006ae0:    000000e9    ....    DCD    233
        0x00006ae4:    0000004a    J...    DCD    74
        0x00006ae8:    0000004a    J...    DCD    74
        0x00006aec:    0000004a    J...    DCD    74
        0x00006af0:    00000001    ....    DCD    1
        0x00006af4:    0000000c    ....    DCD    12
        0x00006af8:    00000047    G...    DCD    71
        0x00006afc:    30303030    0000    DCD    808464432
        0x00006b00:    30303030    0000    DCD    808464432
        0x00006b04:    30303030    0000    DCD    808464432
        0x00006b08:    30303030    0000    DCD    808464432
        0x00006b0c:    30303030    0000    DCD    808464432
        0x00006b10:    30303030    0000    DCD    808464432
        0x00006b14:    30303030    0000    DCD    808464432
        0x00006b18:    30303030    0000    DCD    808464432
        0x00006b1c:    30303030    0000    DCD    808464432
        0x00006b20:    30303030    0000    DCD    808464432
        0x00006b24:    30303030    0000    DCD    808464432
        0x00006b28:    30303030    0000    DCD    808464432
        0x00006b2c:    30303030    0000    DCD    808464432
        0x00006b30:    30303030    0000    DCD    808464432
        0x00006b34:    30303030    0000    DCD    808464432
        0x00006b38:    30303030    0000    DCD    808464432
        0x00006b3c:    30303030    0000    DCD    808464432
        0x00006b40:    00313030    001.    DCD    3223600
        0x00006b44:    00000000    ....    DCD    0
        0x00006b48:    00000000    ....    DCD    0
        0x00006b4c:    00000000    ....    DCD    0
        0x00006b50:    00000000    ....    DCD    0
        0x00006b54:    00000000    ....    DCD    0
        0x00006b58:    00000000    ....    DCD    0
        0x00006b5c:    00000000    ....    DCD    0
        0x00006b60:    00000000    ....    DCD    0
        0x00006b64:    00000000    ....    DCD    0
        0x00006b68:    00000000    ....    DCD    0
        0x00006b6c:    00000000    ....    DCD    0
        0x00006b70:    00000000    ....    DCD    0
        0x00006b74:    00000000    ....    DCD    0
        0x00006b78:    00000000    ....    DCD    0
        0x00006b7c:    00000000    ....    DCD    0
        0x00006b80:    00000000    ....    DCD    0
        0x00006b84:    00000000    ....    DCD    0
        0x00006b88:    00000000    ....    DCD    0
        0x00006b8c:    36623732    27b6    DCD    912406322
        0x00006b90:    63613038    80ac    DCD    1667313720
        0x00006b94:    35386238    8b85    DCD    892887608
        0x00006b98:    61643639    96da    DCD    1633957433
        0x00006b9c:    61346135    5a4a    DCD    1630822709
        0x00006ba0:    31613866    f8a1    DCD    828455014
        0x00006ba4:    33306139    9a03    DCD    858808633
        0x00006ba8:    63663330    03fc    DCD    1667642160
        0x00006bac:    66373961    a97f    DCD    1714895201
        0x00006bb0:    34363764    d764    DCD    875968356
        0x00006bb4:    39303335    5309    DCD    959460149
        0x00006bb8:    61326166    fa2a    DCD    1630691686
        0x00006bbc:    34313835    5814    DCD    875640885
        0x00006bc0:    66613538    85af    DCD    1717646648
        0x00006bc4:    33363236    6263    DCD    859189814
        0x00006bc8:    33313365    e313    DCD    858862437
        0x00006bcc:    61393762    b79a    DCD    1631139682
        0x00006bd0:    00356632    2f5.    DCD    3499570
        0x00006bd4:    00000000    ....    DCD    0
        0x00006bd8:    00000000    ....    DCD    0
        0x00006bdc:    00000000    ....    DCD    0
        0x00006be0:    00000000    ....    DCD    0
        0x00006be4:    00000000    ....    DCD    0
        0x00006be8:    00000000    ....    DCD    0
        0x00006bec:    00000000    ....    DCD    0
        0x00006bf0:    00000000    ....    DCD    0
        0x00006bf4:    00000000    ....    DCD    0
        0x00006bf8:    00000000    ....    DCD    0
        0x00006bfc:    00000000    ....    DCD    0
        0x00006c00:    00000000    ....    DCD    0
        0x00006c04:    00000000    ....    DCD    0
        0x00006c08:    00000000    ....    DCD    0
        0x00006c0c:    00000000    ....    DCD    0
        0x00006c10:    00000000    ....    DCD    0
        0x00006c14:    00000000    ....    DCD    0
        0x00006c18:    00000000    ....    DCD    0
        0x00006c1c:    33396635    5f93    DCD    859399733
        0x00006c20:    38353239    9258    DCD    943010361
        0x00006c24:    64376264    db7d    DCD    1681351268
        0x00006c28:    65303964    d90e    DCD    1697659236
        0x00006c2c:    34333931    1934    DCD    875772209
        0x00006c30:    37633866    f8c7    DCD    929249382
        0x00006c34:    64306230    0b0d    DCD    1680892464
        0x00006c38:    32636566    fec2    DCD    845374822
        0x00006c3c:    32646565    eed2    DCD    845440357
        0x00006c40:    35386235    5b85    DCD    892887605
        0x00006c44:    61653735    57ea    DCD    1634023221
        0x00006c48:    38633963    c9c8    DCD    946026851
        0x00006c4c:    65326530    0e2e    DCD    1697801520
        0x00006c50:    66383931    198f    DCD    1714960689
        0x00006c54:    62646338    8cdb    DCD    1650746168
        0x00006c58:    38646365    ecd8    DCD    946103141
        0x00006c5c:    32316236    6b12    DCD    842097206
        0x00006c60:    00333530    053.    DCD    3355952
        0x00006c64:    00000000    ....    DCD    0
        0x00006c68:    00000000    ....    DCD    0
        0x00006c6c:    00000000    ....    DCD    0
        0x00006c70:    00000000    ....    DCD    0
        0x00006c74:    00000000    ....    DCD    0
        0x00006c78:    00000000    ....    DCD    0
        0x00006c7c:    00000000    ....    DCD    0
        0x00006c80:    00000000    ....    DCD    0
        0x00006c84:    00000000    ....    DCD    0
        0x00006c88:    00000000    ....    DCD    0
        0x00006c8c:    00000000    ....    DCD    0
        0x00006c90:    00000000    ....    DCD    0
        0x00006c94:    00000000    ....    DCD    0
        0x00006c98:    00000000    ....    DCD    0
        0x00006c9c:    00000000    ....    DCD    0
        0x00006ca0:    00000000    ....    DCD    0
        0x00006ca4:    00000000    ....    DCD    0
        0x00006ca8:    00000000    ....    DCD    0
        0x00006cac:    36373633    3676    DCD    909588019
        0x00006cb0:    66343538    854f    DCD    1714697528
        0x00006cb4:    31343265    e241    DCD    825504357
        0x00006cb8:    62633134    41cb    DCD    1650667828
        0x00006cbc:    65663839    98fe    DCD    1701197881
        0x00006cc0:    62346436    6d4b    DCD    1647600694
        0x00006cc4:    30643032    20d0    DCD    811872306
        0x00006cc8:    35346232    2b45    DCD    892625458
        0x00006ccc:    66663631    16ff    DCD    1717974577
        0x00006cd0:    33323037    7023    DCD    858927159
        0x00006cd4:    64653035    50ed    DCD    1684353077
        0x00006cd8:    38306264    db08    DCD    942695012
        0x00006cdc:    37373632    2677    DCD    926365234
        0x00006ce0:    31386339    9c81    DCD    825779001
        0x00006ce4:    64306633    3f0d    DCD    1680893491
        0x00006ce8:    62353466    f45b    DCD    1647653990
        0x00006cec:    31313865    e811    DCD    825309285
        0x00006cf0:    00346632    2f4.    DCD    3434034
        0x00006cf4:    00000000    ....    DCD    0
        0x00006cf8:    00000000    ....    DCD    0
        0x00006cfc:    00000000    ....    DCD    0
        0x00006d00:    00000000    ....    DCD    0
        0x00006d04:    00000000    ....    DCD    0
        0x00006d08:    00000000    ....    DCD    0
        0x00006d0c:    00000000    ....    DCD    0
        0x00006d10:    00000000    ....    DCD    0
        0x00006d14:    00000000    ....    DCD    0
        0x00006d18:    00000000    ....    DCD    0
        0x00006d1c:    00000000    ....    DCD    0
        0x00006d20:    00000000    ....    DCD    0
        0x00006d24:    00000000    ....    DCD    0
        0x00006d28:    00000000    ....    DCD    0
        0x00006d2c:    00000000    ....    DCD    0
        0x00006d30:    00000000    ....    DCD    0
        0x00006d34:    00000000    ....    DCD    0
        0x00006d38:    00000000    ....    DCD    0
        0x00006d3c:    00000044    D...    DCD    68
        0x00006d40:    46464646    FFFF    DCD    1179010630
        0x00006d44:    46464646    FFFF    DCD    1179010630
        0x00006d48:    46464646    FFFF    DCD    1179010630
        0x00006d4c:    46464646    FFFF    DCD    1179010630
        0x00006d50:    46464646    FFFF    DCD    1179010630
        0x00006d54:    46464646    FFFF    DCD    1179010630
        0x00006d58:    46464646    FFFF    DCD    1179010630
        0x00006d5c:    46464646    FFFF    DCD    1179010630
        0x00006d60:    30303030    0000    DCD    808464432
        0x00006d64:    30303030    0000    DCD    808464432
        0x00006d68:    30303030    0000    DCD    808464432
        0x00006d6c:    30303030    0000    DCD    808464432
        0x00006d70:    30303030    0000    DCD    808464432
        0x00006d74:    31303030    0001    DCD    825241648
        0x00006d78:    00000000    ....    DCD    0
        0x00006d7c:    00000000    ....    DCD    0
        0x00006d80:    00000000    ....    DCD    0
        0x00006d84:    00000000    ....    DCD    0
        0x00006d88:    00000000    ....    DCD    0
        0x00006d8c:    00000000    ....    DCD    0
        0x00006d90:    00000000    ....    DCD    0
        0x00006d94:    00000000    ....    DCD    0
        0x00006d98:    00000000    ....    DCD    0
        0x00006d9c:    00000000    ....    DCD    0
        0x00006da0:    00000000    ....    DCD    0
        0x00006da4:    00000000    ....    DCD    0
        0x00006da8:    00000000    ....    DCD    0
        0x00006dac:    00000000    ....    DCD    0
        0x00006db0:    00000000    ....    DCD    0
        0x00006db4:    00000000    ....    DCD    0
        0x00006db8:    00000000    ....    DCD    0
        0x00006dbc:    00000000    ....    DCD    0
        0x00006dc0:    00000000    ....    DCD    0
        0x00006dc4:    00000000    ....    DCD    0
        0x00006dc8:    00000000    ....    DCD    0
        0x00006dcc:    00000000    ....    DCD    0
        0x00006dd0:    00000000    ....    DCD    0
        0x00006dd4:    00000000    ....    DCD    0
        0x00006dd8:    00000000    ....    DCD    0
        0x00006ddc:    00000000    ....    DCD    0
        0x00006de0:    00000000    ....    DCD    0
        0x00006de4:    00000000    ....    DCD    0
        0x00006de8:    00000000    ....    DCD    0
        0x00006dec:    00000000    ....    DCD    0
        0x00006df0:    00000055    U...    DCD    85
        0x00006df4:    46464633    3FFF    DCD    1179010611
        0x00006df8:    46464646    FFFF    DCD    1179010630
        0x00006dfc:    46464646    FFFF    DCD    1179010630
        0x00006e00:    46464646    FFFF    DCD    1179010630
        0x00006e04:    46464646    FFFF    DCD    1179010630
        0x00006e08:    46464646    FFFF    DCD    1179010630
        0x00006e0c:    46464646    FFFF    DCD    1179010630
        0x00006e10:    46464646    FFFF    DCD    1179010630
        0x00006e14:    45464646    FFFE    DCD    1162233414
        0x00006e18:    33303946    F903    DCD    858798406
        0x00006e1c:    36363939    9966    DCD    909523257
        0x00006e20:    39434630    0FC9    DCD    960710192
        0x00006e24:    39413833    38A9    DCD    960575539
        0x00006e28:    35363130    0165    DCD    892743984
        0x00006e2c:    32343042    B042    DCD    842281026
        0x00006e30:    45433741    A7CE    DCD    1162032961
        0x00006e34:    42444146    FADB    DCD    1111769414
        0x00006e38:    00373033    307.    DCD    3616819
        0x00006e3c:    00000000    ....    DCD    0
        0x00006e40:    00000000    ....    DCD    0
        0x00006e44:    00000000    ....    DCD    0
        0x00006e48:    00000000    ....    DCD    0
        0x00006e4c:    00000000    ....    DCD    0
        0x00006e50:    00000000    ....    DCD    0
        0x00006e54:    00000000    ....    DCD    0
        0x00006e58:    00000000    ....    DCD    0
        0x00006e5c:    00000000    ....    DCD    0
        0x00006e60:    00000000    ....    DCD    0
        0x00006e64:    00000000    ....    DCD    0
        0x00006e68:    00000000    ....    DCD    0
        0x00006e6c:    00000000    ....    DCD    0
        0x00006e70:    00000000    ....    DCD    0
        0x00006e74:    00000000    ....    DCD    0
        0x00006e78:    00000000    ....    DCD    0
        0x00006e7c:    00000000    ....    DCD    0
        0x00006e80:    00000000    ....    DCD    0
        0x00006e84:    00000000    ....    DCD    0
        0x00006e88:    00000000    ....    DCD    0
        0x00006e8c:    00000000    ....    DCD    0
        0x00006e90:    00000000    ....    DCD    0
        0x00006e94:    00000000    ....    DCD    0
        0x00006e98:    00000000    ....    DCD    0
        0x00006e9c:    00000000    ....    DCD    0
        0x00006ea0:    00000000    ....    DCD    0
        0x00006ea4:    0000011b    ....    DCD    283
        0x00006ea8:    0000000c    ....    DCD    12
        0x00006eac:    00000007    ....    DCD    7
        0x00006eb0:    00000005    ....    DCD    5
        0x00006eb4:    00000001    ....    DCD    1
        0x00006eb8:    0000000d    ....    DCD    13
        0x00006ebc:    00000067    g...    DCD    103
        0x00006ec0:    30303030    0000    DCD    808464432
        0x00006ec4:    30303030    0000    DCD    808464432
        0x00006ec8:    30303030    0000    DCD    808464432
        0x00006ecc:    30303030    0000    DCD    808464432
        0x00006ed0:    30303030    0000    DCD    808464432
        0x00006ed4:    30303030    0000    DCD    808464432
        0x00006ed8:    30303030    0000    DCD    808464432
        0x00006edc:    30303030    0000    DCD    808464432
        0x00006ee0:    30303030    0000    DCD    808464432
        0x00006ee4:    30303030    0000    DCD    808464432
        0x00006ee8:    30303030    0000    DCD    808464432
        0x00006eec:    30303030    0000    DCD    808464432
        0x00006ef0:    30303030    0000    DCD    808464432
        0x00006ef4:    30303030    0000    DCD    808464432
        0x00006ef8:    30303030    0000    DCD    808464432
        0x00006efc:    30303030    0000    DCD    808464432
        0x00006f00:    30303030    0000    DCD    808464432
        0x00006f04:    30303030    0000    DCD    808464432
        0x00006f08:    30303030    0000    DCD    808464432
        0x00006f0c:    30303030    0000    DCD    808464432
        0x00006f10:    30303030    0000    DCD    808464432
        0x00006f14:    30303030    0000    DCD    808464432
        0x00006f18:    30303030    0000    DCD    808464432
        0x00006f1c:    30303030    0000    DCD    808464432
        0x00006f20:    30303030    0000    DCD    808464432
        0x00006f24:    00313030    001.    DCD    3223600
        0x00006f28:    00000000    ....    DCD    0
        0x00006f2c:    00000000    ....    DCD    0
        0x00006f30:    00000000    ....    DCD    0
        0x00006f34:    00000000    ....    DCD    0
        0x00006f38:    00000000    ....    DCD    0
        0x00006f3c:    00000000    ....    DCD    0
        0x00006f40:    00000000    ....    DCD    0
        0x00006f44:    00000000    ....    DCD    0
        0x00006f48:    00000000    ....    DCD    0
        0x00006f4c:    00000000    ....    DCD    0
        0x00006f50:    61313230    021a    DCD    1630614064
        0x00006f54:    63326335    5c2c    DCD    1664246581
        0x00006f58:    39656538    8ee9    DCD    962946360
        0x00006f5c:    35626566    feb5    DCD    895640934
        0x00006f60:    39623463    c4b9    DCD    962737251
        0x00006f64:    33353761    a753    DCD    859125601
        0x00006f68:    34623762    b7b4    DCD    878851938
        0x00006f6c:    37623637    76b7    DCD    929183287
        0x00006f70:    34366466    fd64    DCD    875979878
        0x00006f74:    66653232    22ef    DCD    1717908018
        0x00006f78:    64336631    1f3d    DCD    1681090097
        0x00006f7c:    34373664    d674    DCD    876033636
        0x00006f80:    66313637    761f    DCD    1714501175
        0x00006f84:    64393961    a99d    DCD    1681471841
        0x00006f88:    32636136    6ac2    DCD    845373750
        0x00006f8c:    61386337    7c8a    DCD    1631085367
        0x00006f90:    39316139    9a19    DCD    959537465
        0x00006f94:    37326237    7b27    DCD    926048823
        0x00006f98:    32323832    2822    DCD    842151986
        0x00006f9c:    64633666    f6cd    DCD    1684223590
        0x00006fa0:    35613735    57a5    DCD    895563573
        0x00006fa4:    34616135    5aa4    DCD    878797109
        0x00006fa8:    61303566    f50a    DCD    1630549350
        0x00006fac:    37313365    e317    DCD    925971301
        0x00006fb0:    35333162    b135    DCD    892547426
        0x00006fb4:    00663534    45f.    DCD    6698292
        0x00006fb8:    00000000    ....    DCD    0
        0x00006fbc:    00000000    ....    DCD    0
        0x00006fc0:    00000000    ....    DCD    0
        0x00006fc4:    00000000    ....    DCD    0
        0x00006fc8:    00000000    ....    DCD    0
        0x00006fcc:    00000000    ....    DCD    0
        0x00006fd0:    00000000    ....    DCD    0
        0x00006fd4:    00000000    ....    DCD    0
        0x00006fd8:    00000000    ....    DCD    0
        0x00006fdc:    00000000    ....    DCD    0
        0x00006fe0:    34643531    15d4    DCD    878982449
        0x00006fe4:    64303638    860d    DCD    1680881208
        0x00006fe8:    64383830    088d    DCD    1681406000
        0x00006fec:    34336264    db34    DCD    875782756
        0x00006ff0:    30623639    96b0    DCD    811742777
        0x00006ff4:    36303663    c606    DCD    909129315
        0x00006ff8:    36353734    4756    DCD    909457204
        0x00006ffc:    34303632    2604    DCD    875574834
        0x00007000:    64633134    41cd    DCD    1684222260
        0x00007004:    66613465    e4af    DCD    1717646437
        0x00007008:    31373731    1771    DCD    825702193
        0x0000700c:    62643464    d4db    DCD    1650734180
        0x00007010:    66663130    01ff    DCD    1717973296
        0x00007014:    33623565    e5b3    DCD    862074213
        0x00007018:    39356534    4e59    DCD    959800628
        0x0000701c:    64333037    703d    DCD    1681076279
        0x00007020:    35353263    c255    DCD    892678755
        0x00007024:    38363861    a868    DCD    943077473
        0x00007028:    38313161    a118    DCD    942748001
        0x0000702c:    35313530    0515    DCD    892417328
        0x00007030:    61333036    603a    DCD    1630744630
        0x00007034:    36626165    eab6    DCD    912417125
        0x00007038:    34393730    0794    DCD    876164912
        0x0000703c:    62343565    e54b    DCD    1647588709
        0x00007040:    39393762    b799    DCD    960051042
        0x00007044:    00376136    6a7.    DCD    3629366
        0x00007048:    00000000    ....    DCD    0
        0x0000704c:    00000000    ....    DCD    0
        0x00007050:    00000000    ....    DCD    0
        0x00007054:    00000000    ....    DCD    0
        0x00007058:    00000000    ....    DCD    0
        0x0000705c:    00000000    ....    DCD    0
        0x00007060:    00000000    ....    DCD    0
        0x00007064:    00000000    ....    DCD    0
        0x00007068:    00000000    ....    DCD    0
        0x0000706c:    00000000    ....    DCD    0
        0x00007070:    62313630    061b    DCD    1647392304
        0x00007074:    61666331    1cfa    DCD    1634100017
        0x00007078:    65623662    b6be    DCD    1700935266
        0x0000707c:    32336635    5f32    DCD    842229301
        0x00007080:    61666262    bbfa    DCD    1634099810
        0x00007084:    32333837    7832    DCD    842217527
        0x00007088:    31646534    4ed1    DCD    828663092
        0x0000708c:    37613630    06a7    DCD    929117744
        0x00007090:    62363336    636b    DCD    1647719222
        0x00007094:    61356339    9c5a    DCD    1630888761
        0x00007098:    31646237    7bd1    DCD    828662327
        0x0000709c:    30643839    98d0    DCD    811874361
        0x000070a0:    61383531    158a    DCD    1631073585
        0x000070a4:    35663461    a4f5    DCD    895890529
        0x000070a8:    64383834    488d    DCD    1681406004
        0x000070ac:    33663830    08f3    DCD    862337072
        0x000070b0:    34313538    8514    DCD    875640120
        0x000070b4:    64663166    f1fd    DCD    1684418918
        0x000070b8:    34623466    f4b4    DCD    878851174
        0x000070bc:    64303466    f40d    DCD    1680880742
        0x000070c0:    31383132    2181    DCD    825766194
        0x000070c4:    38363362    b368    DCD    943076194
        0x000070c8:    36336331    1c36    DCD    909337393
        0x000070cc:    30616234    4ba0    DCD    811688500
        0x000070d0:    63333732    273c    DCD    1664300850
        0x000070d4:    00363037    706.    DCD    3551287
        0x000070d8:    00000000    ....    DCD    0
        0x000070dc:    00000000    ....    DCD    0
        0x000070e0:    00000000    ....    DCD    0
        0x000070e4:    00000000    ....    DCD    0
        0x000070e8:    00000000    ....    DCD    0
        0x000070ec:    00000000    ....    DCD    0
        0x000070f0:    00000000    ....    DCD    0
        0x000070f4:    00000000    ....    DCD    0
        0x000070f8:    00000000    ....    DCD    0
        0x000070fc:    00000000    ....    DCD    0
        0x00007100:    00000044    D...    DCD    68
        0x00007104:    46464646    FFFF    DCD    1179010630
        0x00007108:    46464646    FFFF    DCD    1179010630
        0x0000710c:    46464646    FFFF    DCD    1179010630
        0x00007110:    46464646    FFFF    DCD    1179010630
        0x00007114:    46464646    FFFF    DCD    1179010630
        0x00007118:    46464646    FFFF    DCD    1179010630
        0x0000711c:    46464646    FFFF    DCD    1179010630
        0x00007120:    46464646    FFFF    DCD    1179010630
        0x00007124:    30303030    0000    DCD    808464432
        0x00007128:    30303030    0000    DCD    808464432
        0x0000712c:    30303030    0000    DCD    808464432
        0x00007130:    30303030    0000    DCD    808464432
        0x00007134:    30303030    0000    DCD    808464432
        0x00007138:    31303030    0001    DCD    825241648
        0x0000713c:    00000000    ....    DCD    0
        0x00007140:    00000000    ....    DCD    0
        0x00007144:    00000000    ....    DCD    0
        0x00007148:    00000000    ....    DCD    0
        0x0000714c:    00000000    ....    DCD    0
        0x00007150:    00000000    ....    DCD    0
        0x00007154:    00000000    ....    DCD    0
        0x00007158:    00000000    ....    DCD    0
        0x0000715c:    00000000    ....    DCD    0
        0x00007160:    00000000    ....    DCD    0
        0x00007164:    00000000    ....    DCD    0
        0x00007168:    00000000    ....    DCD    0
        0x0000716c:    00000000    ....    DCD    0
        0x00007170:    00000000    ....    DCD    0
        0x00007174:    00000000    ....    DCD    0
        0x00007178:    00000000    ....    DCD    0
        0x0000717c:    00000000    ....    DCD    0
        0x00007180:    00000000    ....    DCD    0
        0x00007184:    00000000    ....    DCD    0
        0x00007188:    00000000    ....    DCD    0
        0x0000718c:    00000000    ....    DCD    0
        0x00007190:    00000000    ....    DCD    0
        0x00007194:    00000000    ....    DCD    0
        0x00007198:    00000000    ....    DCD    0
        0x0000719c:    00000000    ....    DCD    0
        0x000071a0:    00000000    ....    DCD    0
        0x000071a4:    00000000    ....    DCD    0
        0x000071a8:    00000000    ....    DCD    0
        0x000071ac:    00000000    ....    DCD    0
        0x000071b0:    00000000    ....    DCD    0
        0x000071b4:    0000007b    {...    DCD    123
        0x000071b8:    30303031    1000    DCD    808464433
        0x000071bc:    30303030    0000    DCD    808464432
        0x000071c0:    30303030    0000    DCD    808464432
        0x000071c4:    30303030    0000    DCD    808464432
        0x000071c8:    30303030    0000    DCD    808464432
        0x000071cc:    30303030    0000    DCD    808464432
        0x000071d0:    30303030    0000    DCD    808464432
        0x000071d4:    30303030    0000    DCD    808464432
        0x000071d8:    30303030    0000    DCD    808464432
        0x000071dc:    30303030    0000    DCD    808464432
        0x000071e0:    30303030    0000    DCD    808464432
        0x000071e4:    30303030    0000    DCD    808464432
        0x000071e8:    30303030    0000    DCD    808464432
        0x000071ec:    41324531    1E2A    DCD    1093813553
        0x000071f0:    41364441    AD6A    DCD    1094075457
        0x000071f4:    46323136    612F    DCD    1177694518
        0x000071f8:    30333333    3330    DCD    808661811
        0x000071fc:    35454237    7BE5    DCD    893731383
        0x00007200:    37344146    FA47    DCD    926171462
        0x00007204:    39433343    C3C9    DCD    960705347
        0x00007208:    32353045    E052    DCD    842346565
        0x0000720c:    38333846    F838    DCD    942880838
        0x00007210:    43343631    164C    DCD    1127495217
        0x00007214:    44373344    D37D    DCD    1144468292
        0x00007218:    31324139    9A21    DCD    825377081
        0x0000721c:    00333731    173.    DCD    3356465
        0x00007220:    00000000    ....    DCD    0
        0x00007224:    00000000    ....    DCD    0
        0x00007228:    00000000    ....    DCD    0
        0x0000722c:    00000000    ....    DCD    0
        0x00007230:    00000000    ....    DCD    0
        0x00007234:    00000000    ....    DCD    0
        0x00007238:    00000000    ....    DCD    0
        0x0000723c:    00000000    ....    DCD    0
        0x00007240:    00000000    ....    DCD    0
        0x00007244:    00000000    ....    DCD    0
        0x00007248:    00000000    ....    DCD    0
        0x0000724c:    00000000    ....    DCD    0
        0x00007250:    00000000    ....    DCD    0
        0x00007254:    00000000    ....    DCD    0
        0x00007258:    00000000    ....    DCD    0
        0x0000725c:    00000000    ....    DCD    0
        0x00007260:    00000000    ....    DCD    0
        0x00007264:    00000000    ....    DCD    0
        0x00007268:    00000199    ....    DCD    409
        0x0000726c:    00000057    W...    DCD    87
        0x00007270:    00000057    W...    DCD    87
        0x00007274:    00000057    W...    DCD    87
        0x00007278:    00000001    ....    DCD    1
        0x0000727c:    0000000e    ....    DCD    14
        0x00007280:    0000008f    ....    DCD    143
        0x00007284:    30303030    0000    DCD    808464432
        0x00007288:    30303030    0000    DCD    808464432
        0x0000728c:    30303030    0000    DCD    808464432
        0x00007290:    30303030    0000    DCD    808464432
        0x00007294:    30303030    0000    DCD    808464432
        0x00007298:    30303030    0000    DCD    808464432
        0x0000729c:    30303030    0000    DCD    808464432
        0x000072a0:    30303030    0000    DCD    808464432
        0x000072a4:    30303030    0000    DCD    808464432
        0x000072a8:    30303030    0000    DCD    808464432
        0x000072ac:    30303030    0000    DCD    808464432
        0x000072b0:    30303030    0000    DCD    808464432
        0x000072b4:    30303030    0000    DCD    808464432
        0x000072b8:    30303030    0000    DCD    808464432
        0x000072bc:    30303030    0000    DCD    808464432
        0x000072c0:    30303030    0000    DCD    808464432
        0x000072c4:    30303030    0000    DCD    808464432
        0x000072c8:    30303030    0000    DCD    808464432
        0x000072cc:    30303030    0000    DCD    808464432
        0x000072d0:    30303030    0000    DCD    808464432
        0x000072d4:    30303030    0000    DCD    808464432
        0x000072d8:    30303030    0000    DCD    808464432
        0x000072dc:    30303030    0000    DCD    808464432
        0x000072e0:    30303030    0000    DCD    808464432
        0x000072e4:    30303030    0000    DCD    808464432
        0x000072e8:    30303030    0000    DCD    808464432
        0x000072ec:    30303030    0000    DCD    808464432
        0x000072f0:    30303030    0000    DCD    808464432
        0x000072f4:    30303030    0000    DCD    808464432
        0x000072f8:    30303030    0000    DCD    808464432
        0x000072fc:    30303030    0000    DCD    808464432
        0x00007300:    30303030    0000    DCD    808464432
        0x00007304:    30303030    0000    DCD    808464432
        0x00007308:    30303030    0000    DCD    808464432
        0x0000730c:    30303030    0000    DCD    808464432
        0x00007310:    00313030    001.    DCD    3223600
        0x00007314:    30346632    2f40    DCD    808740402
        0x00007318:    32653765    e7e2    DCD    845494117
        0x0000731c:    66313232    221f    DCD    1714500146
        0x00007320:    64353932    295d    DCD    1681209650
        0x00007324:    37393265    e297    DCD    926495333
        0x00007328:    62373131    117b    DCD    1647784241
        0x0000732c:    64336637    7f3d    DCD    1681090103
        0x00007330:    35663236    62f5    DCD    895889974
        0x00007334:    39613663    c6a9    DCD    962672227
        0x00007338:    63666637    7ffc    DCD    1667655223
        0x0000733c:    65633862    b8ce    DCD    1701001314
        0x00007340:    63316666    ff1c    DCD    1664181862
        0x00007344:    61623664    d6ba    DCD    1633826404
        0x00007348:    34656338    8ce4    DCD    879059768
        0x0000734c:    31613961    a9a1    DCD    828455265
        0x00007350:    38646138    8ad8    DCD    946102584
        0x00007354:    61666634    4ffa    DCD    1634100788
        0x00007358:    38646262    bbd8    DCD    946102882
        0x0000735c:    35616665    efa5    DCD    895575653
        0x00007360:    32333339    9332    DCD    842216249
        0x00007364:    61376562    be7a    DCD    1631020386
        0x00007368:    35373664    d675    DCD    892810852
        0x0000736c:    36366136    6a66    DCD    909533494
        0x00007370:    34393265    e294    DCD    876163685
        0x00007374:    31646661    afd1    DCD    828663393
        0x00007378:    37613538    85a7    DCD    929117496
        0x0000737c:    31666638    8ff1    DCD    828794424
        0x00007380:    35616132    2aa5    DCD    895574322
        0x00007384:    34653032    20e4    DCD    879046706
        0x00007388:    33376564    de73    DCD    859268452
        0x0000738c:    63616239    9bac    DCD    1667326521
        0x00007390:    37633061    a0c7    DCD    929247329
        0x00007394:    66656666    ffef    DCD    1717921382
        0x00007398:    32663766    f7f2    DCD    845559654
        0x0000739c:    37353539    9557    DCD    926233913
        0x000073a0:    00613732    27a.    DCD    6371122
        0x000073a4:    30333033    3030    DCD    808661043
        0x000073a8:    33643130    01d3    DCD    862204208
        0x000073ac:    35386234    4b85    DCD    892887604
        0x000073b0:    36393236    6296    DCD    909718070
        0x000073b4:    63363163    c16c    DCD    1664495971
        0x000073b8:    30346430    0d40    DCD    808739888
        0x000073bc:    64633364    d3cd    DCD    1684222820
        0x000073c0:    30353737    7750    DCD    808793911
        0x000073c4:    64333961    a93d    DCD    1681078625
        0x000073c8:    39326431    1d29    DCD    959603761
        0x000073cc:    61663535    55fa    DCD    1634088245
        0x000073d0:    61613038    80aa    DCD    1633759288
        0x000073d4:    30346635    5f40    DCD    808740405
        0x000073d8:    64386366    fc8d    DCD    1681417062
        0x000073dc:    32623762    b7b2    DCD    845297506
        0x000073e0:    62646261    abdb    DCD    1650745953
        0x000073e4:    33356564    de53    DCD    859137380
        0x000073e8:    66303539    950f    DCD    1714435385
        0x000073ec:    64306334    4c0d    DCD    1680892724
        0x000073f0:    63333932    293c    DCD    1664301362
        0x000073f4:    31376464    dd71    DCD    825713764
        0x000073f8:    35336131    1a35    DCD    892559665
        0x000073fc:    66373662    b67f    DCD    1714894434
        0x00007400:    39343162    b149    DCD    959721826
        0x00007404:    36656139    9ae6    DCD    912613689
        0x00007408:    38333030    0038    DCD    942878768
        0x0000740c:    66343136    614f    DCD    1714696502
        0x00007410:    34393331    1394    DCD    876163889
        0x00007414:    61666261    abfa    DCD    1634099809
        0x00007418:    63346233    3b4c    DCD    1664377395
        0x0000741c:    64303538    850d    DCD    1680880952
        0x00007420:    65373239    927e    DCD    1698116153
        0x00007424:    37376531    1e77    DCD    926377265
        0x00007428:    38633936    69c8    DCD    946026806
        0x0000742c:    32636565    eec2    DCD    845374821
        0x00007430:    00393164    d19.    DCD    3748196
        0x00007434:    66623733    37bf    DCD    1717712691
        0x00007438:    34333732    2734    DCD    875771698
        0x0000743c:    36616432    2da6    DCD    912352306
        0x00007440:    36623933    39b6    DCD    912406835
        0x00007444:    66636364    dccf    DCD    1717789540
        0x00007448:    62656666    ffeb    DCD    1650812518
        0x0000744c:    36643337    73d6    DCD    912536375
        0x00007450:    38376439    9d78    DCD    943154233
        0x00007454:    32633663    c6c2    DCD    845362787
        0x00007458:    30366137    7a60    DCD    808870199
        0x0000745c:    62633930    09cb    DCD    1650669872
        0x00007460:    31616362    bca1    DCD    828466018
        0x00007464:    66303839    980f    DCD    1714436153
        0x00007468:    33333538    8533    DCD    858993976
        0x0000746c:    65313239    921e    DCD    1697722937
        0x00007470:    38366138    8a68    DCD    943087928
        0x00007474:    33323434    4423    DCD    858928180
        0x00007478:    62333465    e43b    DCD    1647522917
        0x0000747c:    38306261    ab08    DCD    942695009
        0x00007480:    36373561    a576    DCD    909587809
        0x00007484:    61313932    291a    DCD    1630615858
        0x00007488:    34663866    f8f4    DCD    879114342
        0x0000748c:    62623136    61bb    DCD    1650602294
        0x00007490:    62386132    2a8b    DCD    1647862066
        0x00007494:    31333533    3531    DCD    825439539
        0x00007498:    30663264    d2f0    DCD    812003940
        0x0000749c:    63353834    485c    DCD    1664432180
        0x000074a0:    31623931    19b1    DCD    828520753
        0x000074a4:    66326536    6e2f    DCD    1714578742
        0x000074a8:    36313531    1516    DCD    909194545
        0x000074ac:    64333265    e23d    DCD    1681076837
        0x000074b0:    31633364    d3c1    DCD    828584804
        0x000074b4:    32383461    a482    DCD    842544225
        0x000074b8:    31666137    7af1    DCD    828793143
        0x000074bc:    63613862    b8ac    DCD    1667315810
        0x000074c0:    00623531    15b.    DCD    6436145
        0x000074c4:    00000044    D...    DCD    68
        0x000074c8:    46464646    FFFF    DCD    1179010630
        0x000074cc:    46464646    FFFF    DCD    1179010630
        0x000074d0:    46464646    FFFF    DCD    1179010630
        0x000074d4:    46464646    FFFF    DCD    1179010630
        0x000074d8:    46464646    FFFF    DCD    1179010630
        0x000074dc:    46464646    FFFF    DCD    1179010630
        0x000074e0:    46464646    FFFF    DCD    1179010630
        0x000074e4:    46464646    FFFF    DCD    1179010630
        0x000074e8:    30303030    0000    DCD    808464432
        0x000074ec:    30303030    0000    DCD    808464432
        0x000074f0:    30303030    0000    DCD    808464432
        0x000074f4:    30303030    0000    DCD    808464432
        0x000074f8:    30303030    0000    DCD    808464432
        0x000074fc:    31303030    0001    DCD    825241648
        0x00007500:    00000000    ....    DCD    0
        0x00007504:    00000000    ....    DCD    0
        0x00007508:    00000000    ....    DCD    0
        0x0000750c:    00000000    ....    DCD    0
        0x00007510:    00000000    ....    DCD    0
        0x00007514:    00000000    ....    DCD    0
        0x00007518:    00000000    ....    DCD    0
        0x0000751c:    00000000    ....    DCD    0
        0x00007520:    00000000    ....    DCD    0
        0x00007524:    00000000    ....    DCD    0
        0x00007528:    00000000    ....    DCD    0
        0x0000752c:    00000000    ....    DCD    0
        0x00007530:    00000000    ....    DCD    0
        0x00007534:    00000000    ....    DCD    0
        0x00007538:    00000000    ....    DCD    0
        0x0000753c:    00000000    ....    DCD    0
        0x00007540:    00000000    ....    DCD    0
        0x00007544:    00000000    ....    DCD    0
        0x00007548:    00000000    ....    DCD    0
        0x0000754c:    00000000    ....    DCD    0
        0x00007550:    00000000    ....    DCD    0
        0x00007554:    00000000    ....    DCD    0
        0x00007558:    00000000    ....    DCD    0
        0x0000755c:    00000000    ....    DCD    0
        0x00007560:    00000000    ....    DCD    0
        0x00007564:    00000000    ....    DCD    0
        0x00007568:    00000000    ....    DCD    0
        0x0000756c:    00000000    ....    DCD    0
        0x00007570:    00000000    ....    DCD    0
        0x00007574:    00000000    ....    DCD    0
        0x00007578:    000000ac    ....    DCD    172
        0x0000757c:    46464633    3FFF    DCD    1179010611
        0x00007580:    46464646    FFFF    DCD    1179010630
        0x00007584:    46464646    FFFF    DCD    1179010630
        0x00007588:    46464646    FFFF    DCD    1179010630
        0x0000758c:    46464646    FFFF    DCD    1179010630
        0x00007590:    46464646    FFFF    DCD    1179010630
        0x00007594:    46464646    FFFF    DCD    1179010630
        0x00007598:    46464646    FFFF    DCD    1179010630
        0x0000759c:    46464646    FFFF    DCD    1179010630
        0x000075a0:    46464646    FFFF    DCD    1179010630
        0x000075a4:    46464646    FFFF    DCD    1179010630
        0x000075a8:    46464646    FFFF    DCD    1179010630
        0x000075ac:    46464646    FFFF    DCD    1179010630
        0x000075b0:    46464646    FFFF    DCD    1179010630
        0x000075b4:    46464646    FFFF    DCD    1179010630
        0x000075b8:    46464646    FFFF    DCD    1179010630
        0x000075bc:    46464646    FFFF    DCD    1179010630
        0x000075c0:    45464646    FFFE    DCD    1162233414
        0x000075c4:    43313636    661C    DCD    1127298614
        0x000075c8:    46383145    E18F    DCD    1178087749
        0x000075cc:    39353546    F559    DCD    959788358
        0x000075d0:    30333738    8730    DCD    808662840
        0x000075d4:    39353038    8059    DCD    959787064
        0x000075d8:    36383142    B186    DCD    909652290
        0x000075dc:    38333238    8238    DCD    942879288
        0x000075e0:    43453135    51EC    DCD    1128608053
        0x000075e4:    39444437    7DD9    DCD    960775223
        0x000075e8:    31314143    CA11    DCD    825311555
        0x000075ec:    45443136    61DE    DCD    1162096950
        0x000075f0:    35443339    93D5    DCD    893662009
        0x000075f4:    44343731    174D    DCD    1144272689
        0x000075f8:    38453636    66E8    DCD    944059958
        0x000075fc:    45323833    382E    DCD    1160919091
        0x00007600:    32424239    9BB2    DCD    843203129
        0x00007604:    34384546    FE84    DCD    876102982
        0x00007608:    00373445    E47.    DCD    3617861
        0x0000760c:    00000000    ....    DCD    0
        0x00007610:    00000000    ....    DCD    0
        0x00007614:    00000000    ....    DCD    0
        0x00007618:    00000000    ....    DCD    0
        0x0000761c:    00000000    ....    DCD    0
        0x00007620:    00000000    ....    DCD    0
        0x00007624:    00000000    ....    DCD    0
        0x00007628:    00000000    ....    DCD    0
        0x0000762c:    0000023b    ;...    DCD    571
        0x00007630:    0000000a    ....    DCD    10
        0x00007634:    00000005    ....    DCD    5
        0x00007638:    00000002    ....    DCD    2
        0x0000763c:    00000001    ....    DCD    1
        0x00007640:    00000005    ....    DCD    5
        0x00007644:    00000029    )...    DCD    41
        0x00007648:    30303030    0000    DCD    808464432
        0x0000764c:    30303030    0000    DCD    808464432
        0x00007650:    30303030    0000    DCD    808464432
        0x00007654:    30303030    0000    DCD    808464432
        0x00007658:    30303030    0000    DCD    808464432
        0x0000765c:    30303030    0000    DCD    808464432
        0x00007660:    30303030    0000    DCD    808464432
        0x00007664:    30303030    0000    DCD    808464432
        0x00007668:    30303030    0000    DCD    808464432
        0x0000766c:    30303030    0000    DCD    808464432
        0x00007670:    00000031    1...    DCD    49
        0x00007674:    00000000    ....    DCD    0
        0x00007678:    00000000    ....    DCD    0
        0x0000767c:    00000000    ....    DCD    0
        0x00007680:    00000000    ....    DCD    0
        0x00007684:    00000000    ....    DCD    0
        0x00007688:    00000000    ....    DCD    0
        0x0000768c:    00000000    ....    DCD    0
        0x00007690:    00000000    ....    DCD    0
        0x00007694:    00000000    ....    DCD    0
        0x00007698:    00000000    ....    DCD    0
        0x0000769c:    00000000    ....    DCD    0
        0x000076a0:    00000000    ....    DCD    0
        0x000076a4:    00000000    ....    DCD    0
        0x000076a8:    00000000    ....    DCD    0
        0x000076ac:    00000000    ....    DCD    0
        0x000076b0:    00000000    ....    DCD    0
        0x000076b4:    00000000    ....    DCD    0
        0x000076b8:    00000000    ....    DCD    0
        0x000076bc:    00000000    ....    DCD    0
        0x000076c0:    00000000    ....    DCD    0
        0x000076c4:    00000000    ....    DCD    0
        0x000076c8:    00000000    ....    DCD    0
        0x000076cc:    00000000    ....    DCD    0
        0x000076d0:    00000000    ....    DCD    0
        0x000076d4:    00000000    ....    DCD    0
        0x000076d8:    30303030    0000    DCD    808464432
        0x000076dc:    30303030    0000    DCD    808464432
        0x000076e0:    30303030    0000    DCD    808464432
        0x000076e4:    30303030    0000    DCD    808464432
        0x000076e8:    30303030    0000    DCD    808464432
        0x000076ec:    30303030    0000    DCD    808464432
        0x000076f0:    30303030    0000    DCD    808464432
        0x000076f4:    30303030    0000    DCD    808464432
        0x000076f8:    30303030    0000    DCD    808464432
        0x000076fc:    30303030    0000    DCD    808464432
        0x00007700:    00000031    1...    DCD    49
        0x00007704:    00000000    ....    DCD    0
        0x00007708:    00000000    ....    DCD    0
        0x0000770c:    00000000    ....    DCD    0
        0x00007710:    00000000    ....    DCD    0
        0x00007714:    00000000    ....    DCD    0
        0x00007718:    00000000    ....    DCD    0
        0x0000771c:    00000000    ....    DCD    0
        0x00007720:    00000000    ....    DCD    0
        0x00007724:    00000000    ....    DCD    0
        0x00007728:    00000000    ....    DCD    0
        0x0000772c:    00000000    ....    DCD    0
        0x00007730:    00000000    ....    DCD    0
        0x00007734:    00000000    ....    DCD    0
        0x00007738:    00000000    ....    DCD    0
        0x0000773c:    00000000    ....    DCD    0
        0x00007740:    00000000    ....    DCD    0
        0x00007744:    00000000    ....    DCD    0
        0x00007748:    00000000    ....    DCD    0
        0x0000774c:    00000000    ....    DCD    0
        0x00007750:    00000000    ....    DCD    0
        0x00007754:    00000000    ....    DCD    0
        0x00007758:    00000000    ....    DCD    0
        0x0000775c:    00000000    ....    DCD    0
        0x00007760:    00000000    ....    DCD    0
        0x00007764:    00000000    ....    DCD    0
        0x00007768:    31656632    2fe1    DCD    828728882
        0x0000776c:    35306333    3c05    DCD    892363571
        0x00007770:    62623733    37bb    DCD    1650603827
        0x00007774:    61313163    c11a    DCD    1630613859
        0x00007778:    30616163    caa0    DCD    811688291
        0x0000777c:    39376437    7d79    DCD    959931447
        0x00007780:    34656433    3de4    DCD    879060019
        0x00007784:    35643665    e6d5    DCD    895759973
        0x00007788:    39633565    e5c9    DCD    962803045
        0x0000778c:    65656534    4eee    DCD    1701143860
        0x00007790:    00000038    8...    DCD    56
        0x00007794:    00000000    ....    DCD    0
        0x00007798:    00000000    ....    DCD    0
        0x0000779c:    00000000    ....    DCD    0
        0x000077a0:    00000000    ....    DCD    0
        0x000077a4:    00000000    ....    DCD    0
        0x000077a8:    00000000    ....    DCD    0
        0x000077ac:    00000000    ....    DCD    0
        0x000077b0:    00000000    ....    DCD    0
        0x000077b4:    00000000    ....    DCD    0
        0x000077b8:    00000000    ....    DCD    0
        0x000077bc:    00000000    ....    DCD    0
        0x000077c0:    00000000    ....    DCD    0
        0x000077c4:    00000000    ....    DCD    0
        0x000077c8:    00000000    ....    DCD    0
        0x000077cc:    00000000    ....    DCD    0
        0x000077d0:    00000000    ....    DCD    0
        0x000077d4:    00000000    ....    DCD    0
        0x000077d8:    00000000    ....    DCD    0
        0x000077dc:    00000000    ....    DCD    0
        0x000077e0:    00000000    ....    DCD    0
        0x000077e4:    00000000    ....    DCD    0
        0x000077e8:    00000000    ....    DCD    0
        0x000077ec:    00000000    ....    DCD    0
        0x000077f0:    00000000    ....    DCD    0
        0x000077f4:    00000000    ....    DCD    0
        0x000077f8:    30393832    2890    DCD    809056306
        0x000077fc:    62663037    70fb    DCD    1650864183
        0x00007800:    33643530    05d3    DCD    862205232
        0x00007804:    35666638    8ff5    DCD    895903288
        0x00007808:    31323338    8321    DCD    825373496
        0x0000780c:    38653266    f2e8    DCD    946156134
        0x00007810:    33353030    0053    DCD    859123760
        0x00007814:    33356436    6d53    DCD    859137078
        0x00007818:    64636338    8ccd    DCD    1684235064
        0x0000781c:    64336161    aa3d    DCD    1681088865
        0x00007820:    00000039    9...    DCD    57
        0x00007824:    00000000    ....    DCD    0
        0x00007828:    00000000    ....    DCD    0
        0x0000782c:    00000000    ....    DCD    0
        0x00007830:    00000000    ....    DCD    0
        0x00007834:    00000000    ....    DCD    0
        0x00007838:    00000000    ....    DCD    0
        0x0000783c:    00000000    ....    DCD    0
        0x00007840:    00000000    ....    DCD    0
        0x00007844:    00000000    ....    DCD    0
        0x00007848:    00000000    ....    DCD    0
        0x0000784c:    00000000    ....    DCD    0
        0x00007850:    00000000    ....    DCD    0
        0x00007854:    00000000    ....    DCD    0
        0x00007858:    00000000    ....    DCD    0
        0x0000785c:    00000000    ....    DCD    0
        0x00007860:    00000000    ....    DCD    0
        0x00007864:    00000000    ....    DCD    0
        0x00007868:    00000000    ....    DCD    0
        0x0000786c:    00000000    ....    DCD    0
        0x00007870:    00000000    ....    DCD    0
        0x00007874:    00000000    ....    DCD    0
        0x00007878:    00000000    ....    DCD    0
        0x0000787c:    00000000    ....    DCD    0
        0x00007880:    00000000    ....    DCD    0
        0x00007884:    00000000    ....    DCD    0
        0x00007888:    00000044    D...    DCD    68
        0x0000788c:    46464646    FFFF    DCD    1179010630
        0x00007890:    46464646    FFFF    DCD    1179010630
        0x00007894:    46464646    FFFF    DCD    1179010630
        0x00007898:    46464646    FFFF    DCD    1179010630
        0x0000789c:    46464646    FFFF    DCD    1179010630
        0x000078a0:    46464646    FFFF    DCD    1179010630
        0x000078a4:    46464646    FFFF    DCD    1179010630
        0x000078a8:    46464646    FFFF    DCD    1179010630
        0x000078ac:    30303030    0000    DCD    808464432
        0x000078b0:    30303030    0000    DCD    808464432
        0x000078b4:    30303030    0000    DCD    808464432
        0x000078b8:    30303030    0000    DCD    808464432
        0x000078bc:    30303030    0000    DCD    808464432
        0x000078c0:    31303030    0001    DCD    825241648
        0x000078c4:    00000000    ....    DCD    0
        0x000078c8:    00000000    ....    DCD    0
        0x000078cc:    00000000    ....    DCD    0
        0x000078d0:    00000000    ....    DCD    0
        0x000078d4:    00000000    ....    DCD    0
        0x000078d8:    00000000    ....    DCD    0
        0x000078dc:    00000000    ....    DCD    0
        0x000078e0:    00000000    ....    DCD    0
        0x000078e4:    00000000    ....    DCD    0
        0x000078e8:    00000000    ....    DCD    0
        0x000078ec:    00000000    ....    DCD    0
        0x000078f0:    00000000    ....    DCD    0
        0x000078f4:    00000000    ....    DCD    0
        0x000078f8:    00000000    ....    DCD    0
        0x000078fc:    00000000    ....    DCD    0
        0x00007900:    00000000    ....    DCD    0
        0x00007904:    00000000    ....    DCD    0
        0x00007908:    00000000    ....    DCD    0
        0x0000790c:    00000000    ....    DCD    0
        0x00007910:    00000000    ....    DCD    0
        0x00007914:    00000000    ....    DCD    0
        0x00007918:    00000000    ....    DCD    0
        0x0000791c:    00000000    ....    DCD    0
        0x00007920:    00000000    ....    DCD    0
        0x00007924:    00000000    ....    DCD    0
        0x00007928:    00000000    ....    DCD    0
        0x0000792c:    00000000    ....    DCD    0
        0x00007930:    00000000    ....    DCD    0
        0x00007934:    00000000    ....    DCD    0
        0x00007938:    00000000    ....    DCD    0
        0x0000793c:    00000031    1...    DCD    49
        0x00007940:    30303034    4000    DCD    808464436
        0x00007944:    30303030    0000    DCD    808464432
        0x00007948:    30303030    0000    DCD    808464432
        0x0000794c:    30303030    0000    DCD    808464432
        0x00007950:    30303030    0000    DCD    808464432
        0x00007954:    30313032    2010    DCD    808529970
        0x00007958:    45324138    8A2E    DCD    1160921400
        0x0000795c:    30434330    0CC0    DCD    809714480
        0x00007960:    46393944    D99F    DCD    1178155332
        0x00007964:    45354138    8A5E    DCD    1161118008
        0x00007968:    00000046    F...    DCD    70
        0x0000796c:    00000000    ....    DCD    0
        0x00007970:    00000000    ....    DCD    0
        0x00007974:    00000000    ....    DCD    0
        0x00007978:    00000000    ....    DCD    0
        0x0000797c:    00000000    ....    DCD    0
        0x00007980:    00000000    ....    DCD    0
        0x00007984:    00000000    ....    DCD    0
        0x00007988:    00000000    ....    DCD    0
        0x0000798c:    00000000    ....    DCD    0
        0x00007990:    00000000    ....    DCD    0
        0x00007994:    00000000    ....    DCD    0
        0x00007998:    00000000    ....    DCD    0
        0x0000799c:    00000000    ....    DCD    0
        0x000079a0:    00000000    ....    DCD    0
        0x000079a4:    00000000    ....    DCD    0
        0x000079a8:    00000000    ....    DCD    0
        0x000079ac:    00000000    ....    DCD    0
        0x000079b0:    00000000    ....    DCD    0
        0x000079b4:    00000000    ....    DCD    0
        0x000079b8:    00000000    ....    DCD    0
        0x000079bc:    00000000    ....    DCD    0
        0x000079c0:    00000000    ....    DCD    0
        0x000079c4:    00000000    ....    DCD    0
        0x000079c8:    00000000    ....    DCD    0
        0x000079cc:    00000000    ....    DCD    0
        0x000079d0:    00000000    ....    DCD    0
        0x000079d4:    00000000    ....    DCD    0
        0x000079d8:    00000000    ....    DCD    0
        0x000079dc:    00000000    ....    DCD    0
        0x000079e0:    00000000    ....    DCD    0
        0x000079e4:    00000000    ....    DCD    0
        0x000079e8:    00000000    ....    DCD    0
        0x000079ec:    00000000    ....    DCD    0
        0x000079f0:    000000a3    ....    DCD    163
        0x000079f4:    00000007    ....    DCD    7
        0x000079f8:    00000006    ....    DCD    6
        0x000079fc:    00000003    ....    DCD    3
        0x00007a00:    00000001    ....    DCD    1
        0x00007a04:    00000006    ....    DCD    6
        0x00007a08:    0000003b    ;...    DCD    59
        0x00007a0c:    30303030    0000    DCD    808464432
        0x00007a10:    30303030    0000    DCD    808464432
        0x00007a14:    30303030    0000    DCD    808464432
        0x00007a18:    30303030    0000    DCD    808464432
        0x00007a1c:    30303030    0000    DCD    808464432
        0x00007a20:    30303030    0000    DCD    808464432
        0x00007a24:    30303030    0000    DCD    808464432
        0x00007a28:    30303030    0000    DCD    808464432
        0x00007a2c:    30303030    0000    DCD    808464432
        0x00007a30:    30303030    0000    DCD    808464432
        0x00007a34:    30303030    0000    DCD    808464432
        0x00007a38:    30303030    0000    DCD    808464432
        0x00007a3c:    30303030    0000    DCD    808464432
        0x00007a40:    30303030    0000    DCD    808464432
        0x00007a44:    00303030    000.    DCD    3158064
        0x00007a48:    00000000    ....    DCD    0
        0x00007a4c:    00000000    ....    DCD    0
        0x00007a50:    00000000    ....    DCD    0
        0x00007a54:    00000000    ....    DCD    0
        0x00007a58:    00000000    ....    DCD    0
        0x00007a5c:    00000000    ....    DCD    0
        0x00007a60:    00000000    ....    DCD    0
        0x00007a64:    00000000    ....    DCD    0
        0x00007a68:    00000000    ....    DCD    0
        0x00007a6c:    00000000    ....    DCD    0
        0x00007a70:    00000000    ....    DCD    0
        0x00007a74:    00000000    ....    DCD    0
        0x00007a78:    00000000    ....    DCD    0
        0x00007a7c:    00000000    ....    DCD    0
        0x00007a80:    00000000    ....    DCD    0
        0x00007a84:    00000000    ....    DCD    0
        0x00007a88:    00000000    ....    DCD    0
        0x00007a8c:    00000000    ....    DCD    0
        0x00007a90:    00000000    ....    DCD    0
        0x00007a94:    00000000    ....    DCD    0
        0x00007a98:    00000000    ....    DCD    0
        0x00007a9c:    30303030    0000    DCD    808464432
        0x00007aa0:    30303030    0000    DCD    808464432
        0x00007aa4:    30303030    0000    DCD    808464432
        0x00007aa8:    30303030    0000    DCD    808464432
        0x00007aac:    30303030    0000    DCD    808464432
        0x00007ab0:    30303030    0000    DCD    808464432
        0x00007ab4:    30303030    0000    DCD    808464432
        0x00007ab8:    30303030    0000    DCD    808464432
        0x00007abc:    30303030    0000    DCD    808464432
        0x00007ac0:    30303030    0000    DCD    808464432
        0x00007ac4:    30303030    0000    DCD    808464432
        0x00007ac8:    30303030    0000    DCD    808464432
        0x00007acc:    30303030    0000    DCD    808464432
        0x00007ad0:    30303030    0000    DCD    808464432
        0x00007ad4:    00313030    001.    DCD    3223600
        0x00007ad8:    00000000    ....    DCD    0
        0x00007adc:    00000000    ....    DCD    0
        0x00007ae0:    00000000    ....    DCD    0
        0x00007ae4:    00000000    ....    DCD    0
        0x00007ae8:    00000000    ....    DCD    0
        0x00007aec:    00000000    ....    DCD    0
        0x00007af0:    00000000    ....    DCD    0
        0x00007af4:    00000000    ....    DCD    0
        0x00007af8:    00000000    ....    DCD    0
        0x00007afc:    00000000    ....    DCD    0
        0x00007b00:    00000000    ....    DCD    0
        0x00007b04:    00000000    ....    DCD    0
        0x00007b08:    00000000    ....    DCD    0
        0x00007b0c:    00000000    ....    DCD    0
        0x00007b10:    00000000    ....    DCD    0
        0x00007b14:    00000000    ....    DCD    0
        0x00007b18:    00000000    ....    DCD    0
        0x00007b1c:    00000000    ....    DCD    0
        0x00007b20:    00000000    ....    DCD    0
        0x00007b24:    00000000    ....    DCD    0
        0x00007b28:    00000000    ....    DCD    0
        0x00007b2c:    33323731    1723    DCD    858928945
        0x00007b30:    38616232    2ba8    DCD    945906226
        0x00007b34:    37613335    53a7    DCD    929116981
        0x00007b38:    31333765    e731    DCD    825440101
        0x00007b3c:    32316661    af12    DCD    842098273
        0x00007b40:    32326639    9f22    DCD    842163769
        0x00007b44:    31346666    ff41    DCD    825517670
        0x00007b48:    36353934    4956    DCD    909457716
        0x00007b4c:    31346133    3a41    DCD    825516339
        0x00007b50:    36326339    9c26    DCD    909271865
        0x00007b54:    30356662    bf50    DCD    808805986
        0x00007b58:    39633461    a4c9    DCD    962802785
        0x00007b5c:    65653664    d6ee    DCD    1701131876
        0x00007b60:    36646166    fad6    DCD    912548198
        0x00007b64:    00363231    126.    DCD    3551793
        0x00007b68:    00000000    ....    DCD    0
        0x00007b6c:    00000000    ....    DCD    0
        0x00007b70:    00000000    ....    DCD    0
        0x00007b74:    00000000    ....    DCD    0
        0x00007b78:    00000000    ....    DCD    0
        0x00007b7c:    00000000    ....    DCD    0
        0x00007b80:    00000000    ....    DCD    0
        0x00007b84:    00000000    ....    DCD    0
        0x00007b88:    00000000    ....    DCD    0
        0x00007b8c:    00000000    ....    DCD    0
        0x00007b90:    00000000    ....    DCD    0
        0x00007b94:    00000000    ....    DCD    0
        0x00007b98:    00000000    ....    DCD    0
        0x00007b9c:    00000000    ....    DCD    0
        0x00007ba0:    00000000    ....    DCD    0
        0x00007ba4:    00000000    ....    DCD    0
        0x00007ba8:    00000000    ....    DCD    0
        0x00007bac:    00000000    ....    DCD    0
        0x00007bb0:    00000000    ....    DCD    0
        0x00007bb4:    00000000    ....    DCD    0
        0x00007bb8:    00000000    ....    DCD    0
        0x00007bbc:    35626431    1db5    DCD    895640625
        0x00007bc0:    65643733    37de    DCD    1701066547
        0x00007bc4:    31386563    ce81    DCD    825779555
        0x00007bc8:    66376239    9b7f    DCD    1714905657
        0x00007bcc:    35663037    70f5    DCD    895889463
        0x00007bd0:    36613535    55a6    DCD    912340277
        0x00007bd4:    32346337    7c42    DCD    842294071
        0x00007bd8:    63386137    7a8c    DCD    1664639287
        0x00007bdc:    66623964    d9bf    DCD    1717713252
        0x00007be0:    65613831    18ae    DCD    1700870193
        0x00007be4:    35623962    b9b5    DCD    895629666
        0x00007be8:    63306536    6e0c    DCD    1664116022
        0x00007bec:    35303131    1105    DCD    892350769
        0x00007bf0:    65616636    6fae    DCD    1700881974
        0x00007bf4:    00336136    6a3.    DCD    3367222
        0x00007bf8:    00000000    ....    DCD    0
        0x00007bfc:    00000000    ....    DCD    0
        0x00007c00:    00000000    ....    DCD    0
        0x00007c04:    00000000    ....    DCD    0
        0x00007c08:    00000000    ....    DCD    0
        0x00007c0c:    00000000    ....    DCD    0
        0x00007c10:    00000000    ....    DCD    0
        0x00007c14:    00000000    ....    DCD    0
        0x00007c18:    00000000    ....    DCD    0
        0x00007c1c:    00000000    ....    DCD    0
        0x00007c20:    00000000    ....    DCD    0
        0x00007c24:    00000000    ....    DCD    0
        0x00007c28:    00000000    ....    DCD    0
        0x00007c2c:    00000000    ....    DCD    0
        0x00007c30:    00000000    ....    DCD    0
        0x00007c34:    00000000    ....    DCD    0
        0x00007c38:    00000000    ....    DCD    0
        0x00007c3c:    00000000    ....    DCD    0
        0x00007c40:    00000000    ....    DCD    0
        0x00007c44:    00000000    ....    DCD    0
        0x00007c48:    00000000    ....    DCD    0
        0x00007c4c:    00000044    D...    DCD    68
        0x00007c50:    46464646    FFFF    DCD    1179010630
        0x00007c54:    46464646    FFFF    DCD    1179010630
        0x00007c58:    46464646    FFFF    DCD    1179010630
        0x00007c5c:    46464646    FFFF    DCD    1179010630
        0x00007c60:    46464646    FFFF    DCD    1179010630
        0x00007c64:    46464646    FFFF    DCD    1179010630
        0x00007c68:    46464646    FFFF    DCD    1179010630
        0x00007c6c:    46464646    FFFF    DCD    1179010630
        0x00007c70:    30303030    0000    DCD    808464432
        0x00007c74:    30303030    0000    DCD    808464432
        0x00007c78:    30303030    0000    DCD    808464432
        0x00007c7c:    30303030    0000    DCD    808464432
        0x00007c80:    30303030    0000    DCD    808464432
        0x00007c84:    31303030    0001    DCD    825241648
        0x00007c88:    00000000    ....    DCD    0
        0x00007c8c:    00000000    ....    DCD    0
        0x00007c90:    00000000    ....    DCD    0
        0x00007c94:    00000000    ....    DCD    0
        0x00007c98:    00000000    ....    DCD    0
        0x00007c9c:    00000000    ....    DCD    0
        0x00007ca0:    00000000    ....    DCD    0
        0x00007ca4:    00000000    ....    DCD    0
        0x00007ca8:    00000000    ....    DCD    0
        0x00007cac:    00000000    ....    DCD    0
        0x00007cb0:    00000000    ....    DCD    0
        0x00007cb4:    00000000    ....    DCD    0
        0x00007cb8:    00000000    ....    DCD    0
        0x00007cbc:    00000000    ....    DCD    0
        0x00007cc0:    00000000    ....    DCD    0
        0x00007cc4:    00000000    ....    DCD    0
        0x00007cc8:    00000000    ....    DCD    0
        0x00007ccc:    00000000    ....    DCD    0
        0x00007cd0:    00000000    ....    DCD    0
        0x00007cd4:    00000000    ....    DCD    0
        0x00007cd8:    00000000    ....    DCD    0
        0x00007cdc:    00000000    ....    DCD    0
        0x00007ce0:    00000000    ....    DCD    0
        0x00007ce4:    00000000    ....    DCD    0
        0x00007ce8:    00000000    ....    DCD    0
        0x00007cec:    00000000    ....    DCD    0
        0x00007cf0:    00000000    ....    DCD    0
        0x00007cf4:    00000000    ....    DCD    0
        0x00007cf8:    00000000    ....    DCD    0
        0x00007cfc:    00000000    ....    DCD    0
        0x00007d00:    00000046    F...    DCD    70
        0x00007d04:    30303038    8000    DCD    808464440
        0x00007d08:    30303030    0000    DCD    808464432
        0x00007d0c:    30303030    0000    DCD    808464432
        0x00007d10:    30303030    0000    DCD    808464432
        0x00007d14:    30303030    0000    DCD    808464432
        0x00007d18:    30303030    0000    DCD    808464432
        0x00007d1c:    30303030    0000    DCD    808464432
        0x00007d20:    44393630    069D    DCD    1144600112
        0x00007d24:    39424235    5BB9    DCD    960643637
        0x00007d28:    43423531    15BC    DCD    1128412465
        0x00007d2c:    45363444    D46E    DCD    1161180228
        0x00007d30:    41314246    FB1A    DCD    1093747270
        0x00007d34:    31463544    D5F1    DCD    826684740
        0x00007d38:    42413337    73AB    DCD    1111569207
        0x00007d3c:    00004644    DF..    DCD    17988
        0x00007d40:    00000000    ....    DCD    0
        0x00007d44:    00000000    ....    DCD    0
        0x00007d48:    00000000    ....    DCD    0
        0x00007d4c:    00000000    ....    DCD    0
        0x00007d50:    00000000    ....    DCD    0
        0x00007d54:    00000000    ....    DCD    0
        0x00007d58:    00000000    ....    DCD    0
        0x00007d5c:    00000000    ....    DCD    0
        0x00007d60:    00000000    ....    DCD    0
        0x00007d64:    00000000    ....    DCD    0
        0x00007d68:    00000000    ....    DCD    0
        0x00007d6c:    00000000    ....    DCD    0
        0x00007d70:    00000000    ....    DCD    0
        0x00007d74:    00000000    ....    DCD    0
        0x00007d78:    00000000    ....    DCD    0
        0x00007d7c:    00000000    ....    DCD    0
        0x00007d80:    00000000    ....    DCD    0
        0x00007d84:    00000000    ....    DCD    0
        0x00007d88:    00000000    ....    DCD    0
        0x00007d8c:    00000000    ....    DCD    0
        0x00007d90:    00000000    ....    DCD    0
        0x00007d94:    00000000    ....    DCD    0
        0x00007d98:    00000000    ....    DCD    0
        0x00007d9c:    00000000    ....    DCD    0
        0x00007da0:    00000000    ....    DCD    0
        0x00007da4:    00000000    ....    DCD    0
        0x00007da8:    00000000    ....    DCD    0
        0x00007dac:    00000000    ....    DCD    0
        0x00007db0:    00000000    ....    DCD    0
        0x00007db4:    000000e9    ....    DCD    233
        0x00007db8:    0000004a    J...    DCD    74
        0x00007dbc:    0000004a    J...    DCD    74
        0x00007dc0:    0000004a    J...    DCD    74
        0x00007dc4:    00000001    ....    DCD    1
        0x00007dc8:    00000007    ....    DCD    7
        0x00007dcc:    00000047    G...    DCD    71
        0x00007dd0:    30303030    0000    DCD    808464432
        0x00007dd4:    30303030    0000    DCD    808464432
        0x00007dd8:    30303030    0000    DCD    808464432
        0x00007ddc:    30303030    0000    DCD    808464432
        0x00007de0:    30303030    0000    DCD    808464432
        0x00007de4:    30303030    0000    DCD    808464432
        0x00007de8:    30303030    0000    DCD    808464432
        0x00007dec:    30303030    0000    DCD    808464432
        0x00007df0:    30303030    0000    DCD    808464432
        0x00007df4:    30303030    0000    DCD    808464432
        0x00007df8:    30303030    0000    DCD    808464432
        0x00007dfc:    30303030    0000    DCD    808464432
        0x00007e00:    30303030    0000    DCD    808464432
        0x00007e04:    30303030    0000    DCD    808464432
        0x00007e08:    30303030    0000    DCD    808464432
        0x00007e0c:    30303030    0000    DCD    808464432
        0x00007e10:    30303030    0000    DCD    808464432
        0x00007e14:    00303030    000.    DCD    3158064
        0x00007e18:    00000000    ....    DCD    0
        0x00007e1c:    00000000    ....    DCD    0
        0x00007e20:    00000000    ....    DCD    0
        0x00007e24:    00000000    ....    DCD    0
        0x00007e28:    00000000    ....    DCD    0
        0x00007e2c:    00000000    ....    DCD    0
        0x00007e30:    00000000    ....    DCD    0
        0x00007e34:    00000000    ....    DCD    0
        0x00007e38:    00000000    ....    DCD    0
        0x00007e3c:    00000000    ....    DCD    0
        0x00007e40:    00000000    ....    DCD    0
        0x00007e44:    00000000    ....    DCD    0
        0x00007e48:    00000000    ....    DCD    0
        0x00007e4c:    00000000    ....    DCD    0
        0x00007e50:    00000000    ....    DCD    0
        0x00007e54:    00000000    ....    DCD    0
        0x00007e58:    00000000    ....    DCD    0
        0x00007e5c:    00000000    ....    DCD    0
        0x00007e60:    30303030    0000    DCD    808464432
        0x00007e64:    30303030    0000    DCD    808464432
        0x00007e68:    30303030    0000    DCD    808464432
        0x00007e6c:    30303030    0000    DCD    808464432
        0x00007e70:    30303030    0000    DCD    808464432
        0x00007e74:    30303030    0000    DCD    808464432
        0x00007e78:    30303030    0000    DCD    808464432
        0x00007e7c:    30303030    0000    DCD    808464432
        0x00007e80:    30303030    0000    DCD    808464432
        0x00007e84:    30303030    0000    DCD    808464432
        0x00007e88:    30303030    0000    DCD    808464432
        0x00007e8c:    30303030    0000    DCD    808464432
        0x00007e90:    30303030    0000    DCD    808464432
        0x00007e94:    30303030    0000    DCD    808464432
        0x00007e98:    30303030    0000    DCD    808464432
        0x00007e9c:    30303030    0000    DCD    808464432
        0x00007ea0:    30303030    0000    DCD    808464432
        0x00007ea4:    00313030    001.    DCD    3223600
        0x00007ea8:    00000000    ....    DCD    0
        0x00007eac:    00000000    ....    DCD    0
        0x00007eb0:    00000000    ....    DCD    0
        0x00007eb4:    00000000    ....    DCD    0
        0x00007eb8:    00000000    ....    DCD    0
        0x00007ebc:    00000000    ....    DCD    0
        0x00007ec0:    00000000    ....    DCD    0
        0x00007ec4:    00000000    ....    DCD    0
        0x00007ec8:    00000000    ....    DCD    0
        0x00007ecc:    00000000    ....    DCD    0
        0x00007ed0:    00000000    ....    DCD    0
        0x00007ed4:    00000000    ....    DCD    0
        0x00007ed8:    00000000    ....    DCD    0
        0x00007edc:    00000000    ....    DCD    0
        0x00007ee0:    00000000    ....    DCD    0
        0x00007ee4:    00000000    ....    DCD    0
        0x00007ee8:    00000000    ....    DCD    0
        0x00007eec:    00000000    ....    DCD    0
        0x00007ef0:    32333035    5032    DCD    842215477
        0x00007ef4:    37663331    13f7    DCD    929444657
        0x00007ef8:    34616338    8ca4    DCD    878797624
        0x00007efc:    33383834    4883    DCD    859322420
        0x00007f00:    33613166    f1a3    DCD    862007654
        0x00007f04:    36313862    b816    DCD    909195362
        0x00007f08:    38316632    2f18    DCD    942761522
        0x00007f0c:    35356538    8e55    DCD    892691768
        0x00007f10:    32646333    3cd2    DCD    845439795
        0x00007f14:    32663536    65f2    DCD    845559094
        0x00007f18:    35316333    3c15    DCD    892429107
        0x00007f1c:    31613736    67a1    DCD    828454710
        0x00007f20:    36373836    6876    DCD    909588534
        0x00007f24:    62333139    913b    DCD    1647522105
        0x00007f28:    61326330    0c2a    DCD    1630692144
        0x00007f2c:    35343263    c245    DCD    892613219
        0x00007f30:    32393438    8492    DCD    842609720
        0x00007f34:    00363338    836.    DCD    3552056
        0x00007f38:    00000000    ....    DCD    0
        0x00007f3c:    00000000    ....    DCD    0
        0x00007f40:    00000000    ....    DCD    0
        0x00007f44:    00000000    ....    DCD    0
        0x00007f48:    00000000    ....    DCD    0
        0x00007f4c:    00000000    ....    DCD    0
        0x00007f50:    00000000    ....    DCD    0
        0x00007f54:    00000000    ....    DCD    0
        0x00007f58:    00000000    ....    DCD    0
        0x00007f5c:    00000000    ....    DCD    0
        0x00007f60:    00000000    ....    DCD    0
        0x00007f64:    00000000    ....    DCD    0
        0x00007f68:    00000000    ....    DCD    0
        0x00007f6c:    00000000    ....    DCD    0
        0x00007f70:    00000000    ....    DCD    0
        0x00007f74:    00000000    ....    DCD    0
        0x00007f78:    00000000    ....    DCD    0
        0x00007f7c:    00000000    ....    DCD    0
        0x00007f80:    64636331    1ccd    DCD    1684235057
        0x00007f84:    30383361    a380    DCD    808989537
        0x00007f88:    39633166    f1c9    DCD    962802022
        0x00007f8c:    38313365    e318    DCD    942748517
        0x00007f90:    66303964    d90f    DCD    1714436452
        0x00007f94:    30643539    95d0    DCD    811873593
        0x00007f98:    34356537    7e54    DCD    875914551
        0x00007f9c:    65663632    26fe    DCD    1701197362
        0x00007fa0:    34653738    87e4    DCD    879048504
        0x00007fa4:    65306335    5c0e    DCD    1697669941
        0x00007fa8:    34383138    8184    DCD    876097848
        0x00007fac:    65383936    698e    DCD    1698183478
        0x00007fb0:    36393534    4596    DCD    909718836
        0x00007fb4:    34363332    2364    DCD    875967282
        0x00007fb8:    31343365    e341    DCD    825504613
        0x00007fbc:    37313631    1617    DCD    925972017
        0x00007fc0:    32646437    7dd2    DCD    845440055
        0x00007fc4:    00393532    259.    DCD    3749170
        0x00007fc8:    00000000    ....    DCD    0
        0x00007fcc:    00000000    ....    DCD    0
        0x00007fd0:    00000000    ....    DCD    0
        0x00007fd4:    00000000    ....    DCD    0
        0x00007fd8:    00000000    ....    DCD    0
        0x00007fdc:    00000000    ....    DCD    0
        0x00007fe0:    00000000    ....    DCD    0
        0x00007fe4:    00000000    ....    DCD    0
        0x00007fe8:    00000000    ....    DCD    0
        0x00007fec:    00000000    ....    DCD    0
        0x00007ff0:    00000000    ....    DCD    0
        0x00007ff4:    00000000    ....    DCD    0
        0x00007ff8:    00000000    ....    DCD    0
        0x00007ffc:    00000000    ....    DCD    0
        0x00008000:    00000000    ....    DCD    0
        0x00008004:    00000000    ....    DCD    0
        0x00008008:    00000000    ....    DCD    0
        0x0000800c:    00000000    ....    DCD    0
        0x00008010:    00000044    D...    DCD    68
        0x00008014:    46464646    FFFF    DCD    1179010630
        0x00008018:    46464646    FFFF    DCD    1179010630
        0x0000801c:    46464646    FFFF    DCD    1179010630
        0x00008020:    46464646    FFFF    DCD    1179010630
        0x00008024:    46464646    FFFF    DCD    1179010630
        0x00008028:    46464646    FFFF    DCD    1179010630
        0x0000802c:    46464646    FFFF    DCD    1179010630
        0x00008030:    46464646    FFFF    DCD    1179010630
        0x00008034:    30303030    0000    DCD    808464432
        0x00008038:    30303030    0000    DCD    808464432
        0x0000803c:    30303030    0000    DCD    808464432
        0x00008040:    30303030    0000    DCD    808464432
        0x00008044:    30303030    0000    DCD    808464432
        0x00008048:    31303030    0001    DCD    825241648
        0x0000804c:    00000000    ....    DCD    0
        0x00008050:    00000000    ....    DCD    0
        0x00008054:    00000000    ....    DCD    0
        0x00008058:    00000000    ....    DCD    0
        0x0000805c:    00000000    ....    DCD    0
        0x00008060:    00000000    ....    DCD    0
        0x00008064:    00000000    ....    DCD    0
        0x00008068:    00000000    ....    DCD    0
        0x0000806c:    00000000    ....    DCD    0
        0x00008070:    00000000    ....    DCD    0
        0x00008074:    00000000    ....    DCD    0
        0x00008078:    00000000    ....    DCD    0
        0x0000807c:    00000000    ....    DCD    0
        0x00008080:    00000000    ....    DCD    0
        0x00008084:    00000000    ....    DCD    0
        0x00008088:    00000000    ....    DCD    0
        0x0000808c:    00000000    ....    DCD    0
        0x00008090:    00000000    ....    DCD    0
        0x00008094:    00000000    ....    DCD    0
        0x00008098:    00000000    ....    DCD    0
        0x0000809c:    00000000    ....    DCD    0
        0x000080a0:    00000000    ....    DCD    0
        0x000080a4:    00000000    ....    DCD    0
        0x000080a8:    00000000    ....    DCD    0
        0x000080ac:    00000000    ....    DCD    0
        0x000080b0:    00000000    ....    DCD    0
        0x000080b4:    00000000    ....    DCD    0
        0x000080b8:    00000000    ....    DCD    0
        0x000080bc:    00000000    ....    DCD    0
        0x000080c0:    00000000    ....    DCD    0
        0x000080c4:    00000055    U...    DCD    85
        0x000080c8:    46464631    1FFF    DCD    1179010609
        0x000080cc:    46464646    FFFF    DCD    1179010630
        0x000080d0:    46464646    FFFF    DCD    1179010630
        0x000080d4:    46464646    FFFF    DCD    1179010630
        0x000080d8:    46464646    FFFF    DCD    1179010630
        0x000080dc:    46464646    FFFF    DCD    1179010630
        0x000080e0:    46464646    FFFF    DCD    1179010630
        0x000080e4:    46464646    FFFF    DCD    1179010630
        0x000080e8:    45464646    FFFE    DCD    1162233414
        0x000080ec:    32454139    9AE2    DCD    843399481
        0x000080f0:    37304445    ED07    DCD    925910085
        0x000080f4:    32373735    5772    DCD    842479413
        0x000080f8:    46443536    65DF    DCD    1178875190
        0x000080fc:    39463746    F7F9    DCD    960902982
        0x00008100:    31353434    4451    DCD    825570356
        0x00008104:    31363045    E061    DCD    825634885
        0x00008108:    33363145    E163    DCD    859189573
        0x0000810c:    00313643    C61.    DCD    3225155
        0x00008110:    00000000    ....    DCD    0
        0x00008114:    00000000    ....    DCD    0
        0x00008118:    00000000    ....    DCD    0
        0x0000811c:    00000000    ....    DCD    0
        0x00008120:    00000000    ....    DCD    0
        0x00008124:    00000000    ....    DCD    0
        0x00008128:    00000000    ....    DCD    0
        0x0000812c:    00000000    ....    DCD    0
        0x00008130:    00000000    ....    DCD    0
        0x00008134:    00000000    ....    DCD    0
        0x00008138:    00000000    ....    DCD    0
        0x0000813c:    00000000    ....    DCD    0
        0x00008140:    00000000    ....    DCD    0
        0x00008144:    00000000    ....    DCD    0
        0x00008148:    00000000    ....    DCD    0
        0x0000814c:    00000000    ....    DCD    0
        0x00008150:    00000000    ....    DCD    0
        0x00008154:    00000000    ....    DCD    0
        0x00008158:    00000000    ....    DCD    0
        0x0000815c:    00000000    ....    DCD    0
        0x00008160:    00000000    ....    DCD    0
        0x00008164:    00000000    ....    DCD    0
        0x00008168:    00000000    ....    DCD    0
        0x0000816c:    00000000    ....    DCD    0
        0x00008170:    00000000    ....    DCD    0
        0x00008174:    00000000    ....    DCD    0
        0x00008178:    0000011b    ....    DCD    283
        0x0000817c:    0000000c    ....    DCD    12
        0x00008180:    00000007    ....    DCD    7
        0x00008184:    00000005    ....    DCD    5
        0x00008188:    00000001    ....    DCD    1
        0x0000818c:    00000008    ....    DCD    8
        0x00008190:    00000067    g...    DCD    103
        0x00008194:    30303030    0000    DCD    808464432
        0x00008198:    30303030    0000    DCD    808464432
        0x0000819c:    30303030    0000    DCD    808464432
        0x000081a0:    30303030    0000    DCD    808464432
        0x000081a4:    30303030    0000    DCD    808464432
        0x000081a8:    30303030    0000    DCD    808464432
        0x000081ac:    30303030    0000    DCD    808464432
        0x000081b0:    30303030    0000    DCD    808464432
        0x000081b4:    30303030    0000    DCD    808464432
        0x000081b8:    30303030    0000    DCD    808464432
        0x000081bc:    30303030    0000    DCD    808464432
        0x000081c0:    30303030    0000    DCD    808464432
        0x000081c4:    30303030    0000    DCD    808464432
        0x000081c8:    30303030    0000    DCD    808464432
        0x000081cc:    30303030    0000    DCD    808464432
        0x000081d0:    30303030    0000    DCD    808464432
        0x000081d4:    30303030    0000    DCD    808464432
        0x000081d8:    30303030    0000    DCD    808464432
        0x000081dc:    30303030    0000    DCD    808464432
        0x000081e0:    30303030    0000    DCD    808464432
        0x000081e4:    30303030    0000    DCD    808464432
        0x000081e8:    30303030    0000    DCD    808464432
        0x000081ec:    30303030    0000    DCD    808464432
        0x000081f0:    30303030    0000    DCD    808464432
        0x000081f4:    30303030    0000    DCD    808464432
        0x000081f8:    00303030    000.    DCD    3158064
        0x000081fc:    00000000    ....    DCD    0
        0x00008200:    00000000    ....    DCD    0
        0x00008204:    00000000    ....    DCD    0
        0x00008208:    00000000    ....    DCD    0
        0x0000820c:    00000000    ....    DCD    0
        0x00008210:    00000000    ....    DCD    0
        0x00008214:    00000000    ....    DCD    0
        0x00008218:    00000000    ....    DCD    0
        0x0000821c:    00000000    ....    DCD    0
        0x00008220:    00000000    ....    DCD    0
        0x00008224:    30303030    0000    DCD    808464432
        0x00008228:    30303030    0000    DCD    808464432
        0x0000822c:    30303030    0000    DCD    808464432
        0x00008230:    30303030    0000    DCD    808464432
        0x00008234:    30303030    0000    DCD    808464432
        0x00008238:    30303030    0000    DCD    808464432
        0x0000823c:    30303030    0000    DCD    808464432
        0x00008240:    30303030    0000    DCD    808464432
        0x00008244:    30303030    0000    DCD    808464432
        0x00008248:    30303030    0000    DCD    808464432
        0x0000824c:    30303030    0000    DCD    808464432
        0x00008250:    30303030    0000    DCD    808464432
        0x00008254:    30303030    0000    DCD    808464432
        0x00008258:    30303030    0000    DCD    808464432
        0x0000825c:    30303030    0000    DCD    808464432
        0x00008260:    30303030    0000    DCD    808464432
        0x00008264:    30303030    0000    DCD    808464432
        0x00008268:    30303030    0000    DCD    808464432
        0x0000826c:    30303030    0000    DCD    808464432
        0x00008270:    30303030    0000    DCD    808464432
        0x00008274:    30303030    0000    DCD    808464432
        0x00008278:    30303030    0000    DCD    808464432
        0x0000827c:    30303030    0000    DCD    808464432
        0x00008280:    30303030    0000    DCD    808464432
        0x00008284:    30303030    0000    DCD    808464432
        0x00008288:    00313030    001.    DCD    3223600
        0x0000828c:    00000000    ....    DCD    0
        0x00008290:    00000000    ....    DCD    0
        0x00008294:    00000000    ....    DCD    0
        0x00008298:    00000000    ....    DCD    0
        0x0000829c:    00000000    ....    DCD    0
        0x000082a0:    00000000    ....    DCD    0
        0x000082a4:    00000000    ....    DCD    0
        0x000082a8:    00000000    ....    DCD    0
        0x000082ac:    00000000    ....    DCD    0
        0x000082b0:    00000000    ....    DCD    0
        0x000082b4:    66303630    060f    DCD    1714435632
        0x000082b8:    36663530    05f6    DCD    912667952
        0x000082bc:    34663835    58f4    DCD    879114293
        0x000082c0:    61316339    9c1a    DCD    1630626617
        0x000082c4:    62613364    d3ab    DCD    1650537316
        0x000082c8:    30393831    1890    DCD    809056305
        0x000082cc:    38313766    f718    DCD    942749542
        0x000082d0:    30313234    4210    DCD    808530484
        0x000082d4:    30646665    efd0    DCD    811886181
        0x000082d8:    65373839    987e    DCD    1698117689
        0x000082dc:    63373033    307c    DCD    1664561203
        0x000082e0:    32633438    84c2    DCD    845362232
        0x000082e4:    63636137    7acc    DCD    1667457335
        0x000082e8:    66386266    fb8f    DCD    1714971238
        0x000082ec:    37366639    9f67    DCD    926311993
        0x000082f0:    63326363    cc2c    DCD    1664246627
        0x000082f4:    31303634    4601    DCD    825243188
        0x000082f8:    62653938    89eb    DCD    1650800952
        0x000082fc:    61616135    5aaa    DCD    1633771829
        0x00008300:    65323661    a62e    DCD    1697789537
        0x00008304:    32323265    e222    DCD    842150501
        0x00008308:    62316265    eb1b    DCD    1647403621
        0x0000830c:    34353533    3554    DCD    875902259
        0x00008310:    65666330    0cfe    DCD    1701208880
        0x00008314:    33323039    9023    DCD    858927161
        0x00008318:    00363437    746.    DCD    3552311
        0x0000831c:    00000000    ....    DCD    0
        0x00008320:    00000000    ....    DCD    0
        0x00008324:    00000000    ....    DCD    0
        0x00008328:    00000000    ....    DCD    0
        0x0000832c:    00000000    ....    DCD    0
        0x00008330:    00000000    ....    DCD    0
        0x00008334:    00000000    ....    DCD    0
        0x00008338:    00000000    ....    DCD    0
        0x0000833c:    00000000    ....    DCD    0
        0x00008340:    00000000    ....    DCD    0
        0x00008344:    36336531    1e36    DCD    909337905
        0x00008348:    30353039    9050    DCD    808792121
        0x0000834c:    34633762    b7c4    DCD    878917474
        0x00008350:    61323465    e42a    DCD    1630680165
        0x00008354:    31616263    cba1    DCD    828465763
        0x00008358:    62636164    dacb    DCD    1650680164
        0x0000835c:    32343066    f042    DCD    842281062
        0x00008360:    33633939    99c3    DCD    862140729
        0x00008364:    37303634    4607    DCD    925906484
        0x00008368:    39663238    82f9    DCD    962998840
        0x0000836c:    61653831    18ea    DCD    1634023473
        0x00008370:    65373234    427e    DCD    1698116148
        0x00008374:    35323336    6325    DCD    892482358
        0x00008378:    65353631    165e    DCD    1697986097
        0x0000837c:    31616539    9ea1    DCD    828466489
        0x00008380:    64336530    0e3d    DCD    1681089840
        0x00008384:    36663561    a5f6    DCD    912668001
        0x00008388:    65323463    c42e    DCD    1697789027
        0x0000838c:    35356339    9c55    DCD    892691257
        0x00008390:    61353132    215a    DCD    1630875954
        0x00008394:    61633961    a9ca    DCD    1633892705
        0x00008398:    35613732    27a5    DCD    895563570
        0x0000839c:    65333638    863e    DCD    1697855032
        0x000083a0:    64383463    c48d    DCD    1681405027
        0x000083a4:    32306538    8e02    DCD    842032440
        0x000083a8:    00623638    86b.    DCD    6436408
        0x000083ac:    00000000    ....    DCD    0
        0x000083b0:    00000000    ....    DCD    0
        0x000083b4:    00000000    ....    DCD    0
        0x000083b8:    00000000    ....    DCD    0
        0x000083bc:    00000000    ....    DCD    0
        0x000083c0:    00000000    ....    DCD    0
        0x000083c4:    00000000    ....    DCD    0
        0x000083c8:    00000000    ....    DCD    0
        0x000083cc:    00000000    ....    DCD    0
        0x000083d0:    00000000    ....    DCD    0
        0x000083d4:    00000044    D...    DCD    68
        0x000083d8:    46464646    FFFF    DCD    1179010630
        0x000083dc:    46464646    FFFF    DCD    1179010630
        0x000083e0:    46464646    FFFF    DCD    1179010630
        0x000083e4:    46464646    FFFF    DCD    1179010630
        0x000083e8:    46464646    FFFF    DCD    1179010630
        0x000083ec:    46464646    FFFF    DCD    1179010630
        0x000083f0:    46464646    FFFF    DCD    1179010630
        0x000083f4:    46464646    FFFF    DCD    1179010630
        0x000083f8:    30303030    0000    DCD    808464432
        0x000083fc:    30303030    0000    DCD    808464432
        0x00008400:    30303030    0000    DCD    808464432
        0x00008404:    30303030    0000    DCD    808464432
        0x00008408:    30303030    0000    DCD    808464432
        0x0000840c:    31303030    0001    DCD    825241648
        0x00008410:    00000000    ....    DCD    0
        0x00008414:    00000000    ....    DCD    0
        0x00008418:    00000000    ....    DCD    0
        0x0000841c:    00000000    ....    DCD    0
        0x00008420:    00000000    ....    DCD    0
        0x00008424:    00000000    ....    DCD    0
        0x00008428:    00000000    ....    DCD    0
        0x0000842c:    00000000    ....    DCD    0
        0x00008430:    00000000    ....    DCD    0
        0x00008434:    00000000    ....    DCD    0
        0x00008438:    00000000    ....    DCD    0
        0x0000843c:    00000000    ....    DCD    0
        0x00008440:    00000000    ....    DCD    0
        0x00008444:    00000000    ....    DCD    0
        0x00008448:    00000000    ....    DCD    0
        0x0000844c:    00000000    ....    DCD    0
        0x00008450:    00000000    ....    DCD    0
        0x00008454:    00000000    ....    DCD    0
        0x00008458:    00000000    ....    DCD    0
        0x0000845c:    00000000    ....    DCD    0
        0x00008460:    00000000    ....    DCD    0
        0x00008464:    00000000    ....    DCD    0
        0x00008468:    00000000    ....    DCD    0
        0x0000846c:    00000000    ....    DCD    0
        0x00008470:    00000000    ....    DCD    0
        0x00008474:    00000000    ....    DCD    0
        0x00008478:    00000000    ....    DCD    0
        0x0000847c:    00000000    ....    DCD    0
        0x00008480:    00000000    ....    DCD    0
        0x00008484:    00000000    ....    DCD    0
        0x00008488:    0000007b    {...    DCD    123
        0x0000848c:    46464637    7FFF    DCD    1179010615
        0x00008490:    46464646    FFFF    DCD    1179010630
        0x00008494:    46464646    FFFF    DCD    1179010630
        0x00008498:    46464646    FFFF    DCD    1179010630
        0x0000849c:    46464646    FFFF    DCD    1179010630
        0x000084a0:    46464646    FFFF    DCD    1179010630
        0x000084a4:    46464646    FFFF    DCD    1179010630
        0x000084a8:    46464646    FFFF    DCD    1179010630
        0x000084ac:    46464646    FFFF    DCD    1179010630
        0x000084b0:    46464646    FFFF    DCD    1179010630
        0x000084b4:    46464646    FFFF    DCD    1179010630
        0x000084b8:    46464646    FFFF    DCD    1179010630
        0x000084bc:    45464646    FFFE    DCD    1162233414
        0x000084c0:    33384635    5F83    DCD    859326005
        0x000084c4:    34443242    B2D4    DCD    876884546
        0x000084c8:    30324145    EA20    DCD    808599877
        0x000084cc:    45303034    400E    DCD    1160785972
        0x000084d0:    35353443    C455    DCD    892679235
        0x000084d4:    45354437    7D5E    DCD    1161118775
        0x000084d8:    33453344    D3E3    DCD    860173124
        0x000084dc:    41433745    E7CA    DCD    1094924101
        0x000084e0:    42344235    5B4B    DCD    1110721077
        0x000084e4:    33384335    5C83    DCD    859325237
        0x000084e8:    30453842    B8E0    DCD    809842754
        0x000084ec:    46354531    1E5F    DCD    1177896241
        0x000084f0:    00004643    CF..    DCD    17987
        0x000084f4:    00000000    ....    DCD    0
        0x000084f8:    00000000    ....    DCD    0
        0x000084fc:    00000000    ....    DCD    0
        0x00008500:    00000000    ....    DCD    0
        0x00008504:    00000000    ....    DCD    0
        0x00008508:    00000000    ....    DCD    0
        0x0000850c:    00000000    ....    DCD    0
        0x00008510:    00000000    ....    DCD    0
        0x00008514:    00000000    ....    DCD    0
        0x00008518:    00000000    ....    DCD    0
        0x0000851c:    00000000    ....    DCD    0
        0x00008520:    00000000    ....    DCD    0
        0x00008524:    00000000    ....    DCD    0
        0x00008528:    00000000    ....    DCD    0
        0x0000852c:    00000000    ....    DCD    0
        0x00008530:    00000000    ....    DCD    0
        0x00008534:    00000000    ....    DCD    0
        0x00008538:    00000000    ....    DCD    0
        0x0000853c:    00000199    ....    DCD    409
        0x00008540:    00000057    W...    DCD    87
        0x00008544:    00000057    W...    DCD    87
        0x00008548:    00000057    W...    DCD    87
        0x0000854c:    00000001    ....    DCD    1
        0x00008550:    00000009    ....    DCD    9
        0x00008554:    0000008f    ....    DCD    143
        0x00008558:    30303030    0000    DCD    808464432
        0x0000855c:    30303030    0000    DCD    808464432
        0x00008560:    30303030    0000    DCD    808464432
        0x00008564:    30303030    0000    DCD    808464432
        0x00008568:    30303030    0000    DCD    808464432
        0x0000856c:    30303030    0000    DCD    808464432
        0x00008570:    30303030    0000    DCD    808464432
        0x00008574:    30303030    0000    DCD    808464432
        0x00008578:    30303030    0000    DCD    808464432
        0x0000857c:    30303030    0000    DCD    808464432
        0x00008580:    30303030    0000    DCD    808464432
        0x00008584:    30303030    0000    DCD    808464432
        0x00008588:    30303030    0000    DCD    808464432
        0x0000858c:    30303030    0000    DCD    808464432
        0x00008590:    30303030    0000    DCD    808464432
        0x00008594:    30303030    0000    DCD    808464432
        0x00008598:    30303030    0000    DCD    808464432
        0x0000859c:    30303030    0000    DCD    808464432
        0x000085a0:    30303030    0000    DCD    808464432
        0x000085a4:    30303030    0000    DCD    808464432
        0x000085a8:    30303030    0000    DCD    808464432
        0x000085ac:    30303030    0000    DCD    808464432
        0x000085b0:    30303030    0000    DCD    808464432
        0x000085b4:    30303030    0000    DCD    808464432
        0x000085b8:    30303030    0000    DCD    808464432
        0x000085bc:    30303030    0000    DCD    808464432
        0x000085c0:    30303030    0000    DCD    808464432
        0x000085c4:    30303030    0000    DCD    808464432
        0x000085c8:    30303030    0000    DCD    808464432
        0x000085cc:    30303030    0000    DCD    808464432
        0x000085d0:    30303030    0000    DCD    808464432
        0x000085d4:    30303030    0000    DCD    808464432
        0x000085d8:    30303030    0000    DCD    808464432
        0x000085dc:    30303030    0000    DCD    808464432
        0x000085e0:    30303030    0000    DCD    808464432
        0x000085e4:    00303030    000.    DCD    3158064
        0x000085e8:    30303030    0000    DCD    808464432
        0x000085ec:    30303030    0000    DCD    808464432
        0x000085f0:    30303030    0000    DCD    808464432
        0x000085f4:    30303030    0000    DCD    808464432
        0x000085f8:    30303030    0000    DCD    808464432
        0x000085fc:    30303030    0000    DCD    808464432
        0x00008600:    30303030    0000    DCD    808464432
        0x00008604:    30303030    0000    DCD    808464432
        0x00008608:    30303030    0000    DCD    808464432
        0x0000860c:    30303030    0000    DCD    808464432
        0x00008610:    30303030    0000    DCD    808464432
        0x00008614:    30303030    0000    DCD    808464432
        0x00008618:    30303030    0000    DCD    808464432
        0x0000861c:    30303030    0000    DCD    808464432
        0x00008620:    30303030    0000    DCD    808464432
        0x00008624:    30303030    0000    DCD    808464432
        0x00008628:    30303030    0000    DCD    808464432
        0x0000862c:    30303030    0000    DCD    808464432
        0x00008630:    30303030    0000    DCD    808464432
        0x00008634:    30303030    0000    DCD    808464432
        0x00008638:    30303030    0000    DCD    808464432
        0x0000863c:    30303030    0000    DCD    808464432
        0x00008640:    30303030    0000    DCD    808464432
        0x00008644:    30303030    0000    DCD    808464432
        0x00008648:    30303030    0000    DCD    808464432
        0x0000864c:    30303030    0000    DCD    808464432
        0x00008650:    30303030    0000    DCD    808464432
        0x00008654:    30303030    0000    DCD    808464432
        0x00008658:    30303030    0000    DCD    808464432
        0x0000865c:    30303030    0000    DCD    808464432
        0x00008660:    30303030    0000    DCD    808464432
        0x00008664:    30303030    0000    DCD    808464432
        0x00008668:    30303030    0000    DCD    808464432
        0x0000866c:    30303030    0000    DCD    808464432
        0x00008670:    30303030    0000    DCD    808464432
        0x00008674:    00313030    001.    DCD    3223600
        0x00008678:    62653632    26eb    DCD    1650800178
        0x0000867c:    35386137    7a85    DCD    892887351
        0x00008680:    33323939    9923    DCD    858929465
        0x00008684:    38636266    fbc8    DCD    946037350
        0x00008688:    39383132    2189    DCD    959983922
        0x0000868c:    66313336    631f    DCD    1714500406
        0x00008690:    33303138    8103    DCD    858796344
        0x00008694:    61346566    fe4a    DCD    1630823782
        0x00008698:    61633963    c9ca    DCD    1633892707
        0x0000869c:    30373932    2970    DCD    808925490
        0x000086a0:    64323130    012d    DCD    1681010992
        0x000086a4:    36346435    5d46    DCD    909403189
        0x000086a8:    38343230    0248    DCD    942944816
        0x000086ac:    30383430    0480    DCD    808989744
        0x000086b0:    31343831    1841    DCD    825505841
        0x000086b4:    34346163    ca44    DCD    875848035
        0x000086b8:    39303733    3709    DCD    959461171
        0x000086bc:    39343835    5849    DCD    959723573
        0x000086c0:    30326233    3b20    DCD    808608307
        0x000086c4:    34366535    5e64    DCD    875980085
        0x000086c8:    33616437    7da3    DCD    862020663
        0x000086cc:    62643430    04db    DCD    1650734128
        0x000086d0:    62656334    4ceb    DCD    1650811700
        0x000086d4:    62633830    08cb    DCD    1650669616
        0x000086d8:    62316462    bd1b    DCD    1647404130
        0x000086dc:    34393361    a394    DCD    876163937
        0x000086e0:    37373439    9477    DCD    926364729
        0x000086e4:    39626636    6fb9    DCD    962750006
        0x000086e8:    34623838    88b4    DCD    878852152
        0x000086ec:    34373137    7174    DCD    876032311
        0x000086f0:    38616364    dca8    DCD    945906532
        0x000086f4:    65376338    8c7e    DCD    1698128696
        0x000086f8:    35343932    2945    DCD    892614962
        0x000086fc:    61333832    283a    DCD    1630746674
        0x00008700:    38633130    01c8    DCD    946024752
        0x00008704:    00323739    972.    DCD    3290937
        0x00008708:    64393433    349d    DCD    1681470515
        0x0000870c:    37303863    c807    DCD    925907043
        0x00008710:    62663466    f4fb    DCD    1650865254
        0x00008714:    34373366    f374    DCD    876032870
        0x00008718:    65613466    f4ae    DCD    1700869222
        0x0000871c:    33656461    ade3    DCD    862282849
        0x00008720:    39616362    bca9    DCD    962683746
        0x00008724:    34313335    5314    DCD    875639605
        0x00008728:    38356464    dd58    DCD    943023204
        0x0000872c:    39636563    cec9    DCD    962815331
        0x00008730:    37303366    f307    DCD    925905766
        0x00008734:    66343561    a54f    DCD    1714697569
        0x00008738:    31366366    fc61    DCD    825647974
        0x0000873c:    30636665    efc0    DCD    811820645
        0x00008740:    38643630    06d8    DCD    946091568
        0x00008744:    39633261    a2c9    DCD    962802273
        0x00008748:    37393464    d497    DCD    926495844
        0x0000874c:    61306339    9c0a    DCD    1630561081
        0x00008750:    61343463    c44a    DCD    1630811235
        0x00008754:    34376165    ea74    DCD    876044645
        0x00008758:    62656266    fbeb    DCD    1650811494
        0x0000875c:    66396262    bb9f    DCD    1715036770
        0x00008760:    61323737    772a    DCD    1630680887
        0x00008764:    62636465    edcb    DCD    1650680933
        0x00008768:    62303236    620b    DCD    1647325750
        0x0000876c:    37613130    01a7    DCD    929116464
        0x00008770:    61376162    ba7a    DCD    1631019362
        0x00008774:    33623166    f1b3    DCD    862073190
        0x00008778:    33343032    2043    DCD    859058226
        0x0000877c:    35386330    0c85    DCD    892887856
        0x00008780:    38393139    9198    DCD    943272249
        0x00008784:    30366634    4f60    DCD    808871476
        0x00008788:    34646331    1cd4    DCD    878994225
        0x0000878c:    33343163    c143    DCD    859058531
        0x00008790:    63316665    ef1c    DCD    1664181861
        0x00008794:    00336137    7a3.    DCD    3367223
        0x00008798:    00000044    D...    DCD    68
        0x0000879c:    46464646    FFFF    DCD    1179010630
        0x000087a0:    46464646    FFFF    DCD    1179010630
        0x000087a4:    46464646    FFFF    DCD    1179010630
        0x000087a8:    46464646    FFFF    DCD    1179010630
        0x000087ac:    46464646    FFFF    DCD    1179010630
        0x000087b0:    46464646    FFFF    DCD    1179010630
        0x000087b4:    46464646    FFFF    DCD    1179010630
        0x000087b8:    46464646    FFFF    DCD    1179010630
        0x000087bc:    30303030    0000    DCD    808464432
        0x000087c0:    30303030    0000    DCD    808464432
        0x000087c4:    30303030    0000    DCD    808464432
        0x000087c8:    30303030    0000    DCD    808464432
        0x000087cc:    30303030    0000    DCD    808464432
        0x000087d0:    31303030    0001    DCD    825241648
        0x000087d4:    00000000    ....    DCD    0
        0x000087d8:    00000000    ....    DCD    0
        0x000087dc:    00000000    ....    DCD    0
        0x000087e0:    00000000    ....    DCD    0
        0x000087e4:    00000000    ....    DCD    0
        0x000087e8:    00000000    ....    DCD    0
        0x000087ec:    00000000    ....    DCD    0
        0x000087f0:    00000000    ....    DCD    0
        0x000087f4:    00000000    ....    DCD    0
        0x000087f8:    00000000    ....    DCD    0
        0x000087fc:    00000000    ....    DCD    0
        0x00008800:    00000000    ....    DCD    0
        0x00008804:    00000000    ....    DCD    0
        0x00008808:    00000000    ....    DCD    0
        0x0000880c:    00000000    ....    DCD    0
        0x00008810:    00000000    ....    DCD    0
        0x00008814:    00000000    ....    DCD    0
        0x00008818:    00000000    ....    DCD    0
        0x0000881c:    00000000    ....    DCD    0
        0x00008820:    00000000    ....    DCD    0
        0x00008824:    00000000    ....    DCD    0
        0x00008828:    00000000    ....    DCD    0
        0x0000882c:    00000000    ....    DCD    0
        0x00008830:    00000000    ....    DCD    0
        0x00008834:    00000000    ....    DCD    0
        0x00008838:    00000000    ....    DCD    0
        0x0000883c:    00000000    ....    DCD    0
        0x00008840:    00000000    ....    DCD    0
        0x00008844:    00000000    ....    DCD    0
        0x00008848:    00000000    ....    DCD    0
        0x0000884c:    000000ac    ....    DCD    172
        0x00008850:    30303032    2000    DCD    808464434
        0x00008854:    30303030    0000    DCD    808464432
        0x00008858:    30303030    0000    DCD    808464432
        0x0000885c:    30303030    0000    DCD    808464432
        0x00008860:    30303030    0000    DCD    808464432
        0x00008864:    30303030    0000    DCD    808464432
        0x00008868:    30303030    0000    DCD    808464432
        0x0000886c:    30303030    0000    DCD    808464432
        0x00008870:    30303030    0000    DCD    808464432
        0x00008874:    30303030    0000    DCD    808464432
        0x00008878:    30303030    0000    DCD    808464432
        0x0000887c:    30303030    0000    DCD    808464432
        0x00008880:    30303030    0000    DCD    808464432
        0x00008884:    30303030    0000    DCD    808464432
        0x00008888:    30303030    0000    DCD    808464432
        0x0000888c:    30303030    0000    DCD    808464432
        0x00008890:    30303030    0000    DCD    808464432
        0x00008894:    31303030    0001    DCD    825241648
        0x00008898:    35383133    3185    DCD    892875059
        0x0000889c:    46314530    0E1F    DCD    1177634096
        0x000088a0:    36413931    19A6    DCD    910244145
        0x000088a4:    42344533    3E4B    DCD    1110721843
        0x000088a8:    41313933    391A    DCD    1093744947
        0x000088ac:    39424438    8DB9    DCD    960644152
        0x000088b0:    34463731    17F4    DCD    877016881
        0x000088b4:    42383331    138B    DCD    1110979377
        0x000088b8:    44303336    630D    DCD    1144009526
        0x000088bc:    45423438    84BE    DCD    1161966648
        0x000088c0:    33364435    5D63    DCD    859194421
        0x000088c4:    31383339    9381    DCD    825766713
        0x000088c8:    44313945    E91D    DCD    1144076613
        0x000088cc:    35344245    EB45    DCD    892617285
        0x000088d0:    37454643    CFE7    DCD    927286851
        0x000088d4:    36463837    78F6    DCD    910571575
        0x000088d8:    31433733    37C1    DCD    826488627
        0x000088dc:    00313030    001.    DCD    3223600
        0x000088e0:    00000000    ....    DCD    0
        0x000088e4:    00000000    ....    DCD    0
        0x000088e8:    00000000    ....    DCD    0
        0x000088ec:    00000000    ....    DCD    0
        0x000088f0:    00000000    ....    DCD    0
        0x000088f4:    00000000    ....    DCD    0
        0x000088f8:    00000000    ....    DCD    0
        0x000088fc:    00000000    ....    DCD    0
        0x00008900:    0000023b    ;...    DCD    571
        0x00008904:    0000000a    ....    DCD    10
        0x00008908:    00000005    ....    DCD    5
        0x0000890c:    00000002    ....    DCD    2
        0x00008910:    00000001    ....    DCD    1
        0x00008914:    0000000f    ....    DCD    15
        0x00008918:    00000030    0...    DCD    48
        0x0000891c:    30303030    0000    DCD    808464432
        0x00008920:    30303030    0000    DCD    808464432
        0x00008924:    30303030    0000    DCD    808464432
        0x00008928:    30303030    0000    DCD    808464432
        0x0000892c:    30303030    0000    DCD    808464432
        0x00008930:    30303030    0000    DCD    808464432
        0x00008934:    30303030    0000    DCD    808464432
        0x00008938:    30303030    0000    DCD    808464432
        0x0000893c:    30303030    0000    DCD    808464432
        0x00008940:    30303030    0000    DCD    808464432
        0x00008944:    00000030    0...    DCD    48
        0x00008948:    00000000    ....    DCD    0
        0x0000894c:    00000000    ....    DCD    0
        0x00008950:    00000000    ....    DCD    0
        0x00008954:    00000000    ....    DCD    0
        0x00008958:    00000000    ....    DCD    0
        0x0000895c:    00000000    ....    DCD    0
        0x00008960:    00000000    ....    DCD    0
        0x00008964:    00000000    ....    DCD    0
        0x00008968:    00000000    ....    DCD    0
        0x0000896c:    00000000    ....    DCD    0
        0x00008970:    00000000    ....    DCD    0
        0x00008974:    00000000    ....    DCD    0
        0x00008978:    00000000    ....    DCD    0
        0x0000897c:    00000000    ....    DCD    0
        0x00008980:    00000000    ....    DCD    0
        0x00008984:    00000000    ....    DCD    0
        0x00008988:    00000000    ....    DCD    0
        0x0000898c:    00000000    ....    DCD    0
        0x00008990:    00000000    ....    DCD    0
        0x00008994:    00000000    ....    DCD    0
        0x00008998:    00000000    ....    DCD    0
        0x0000899c:    00000000    ....    DCD    0
        0x000089a0:    00000000    ....    DCD    0
        0x000089a4:    00000000    ....    DCD    0
        0x000089a8:    00000000    ....    DCD    0
        0x000089ac:    30303030    0000    DCD    808464432
        0x000089b0:    30303030    0000    DCD    808464432
        0x000089b4:    30303030    0000    DCD    808464432
        0x000089b8:    30303030    0000    DCD    808464432
        0x000089bc:    30303030    0000    DCD    808464432
        0x000089c0:    30303030    0000    DCD    808464432
        0x000089c4:    30303030    0000    DCD    808464432
        0x000089c8:    30303030    0000    DCD    808464432
        0x000089cc:    30303030    0000    DCD    808464432
        0x000089d0:    30303030    0000    DCD    808464432
        0x000089d4:    00000033    3...    DCD    51
        0x000089d8:    00000000    ....    DCD    0
        0x000089dc:    00000000    ....    DCD    0
        0x000089e0:    00000000    ....    DCD    0
        0x000089e4:    00000000    ....    DCD    0
        0x000089e8:    00000000    ....    DCD    0
        0x000089ec:    00000000    ....    DCD    0
        0x000089f0:    00000000    ....    DCD    0
        0x000089f4:    00000000    ....    DCD    0
        0x000089f8:    00000000    ....    DCD    0
        0x000089fc:    00000000    ....    DCD    0
        0x00008a00:    00000000    ....    DCD    0
        0x00008a04:    00000000    ....    DCD    0
        0x00008a08:    00000000    ....    DCD    0
        0x00008a0c:    00000000    ....    DCD    0
        0x00008a10:    00000000    ....    DCD    0
        0x00008a14:    00000000    ....    DCD    0
        0x00008a18:    00000000    ....    DCD    0
        0x00008a1c:    00000000    ....    DCD    0
        0x00008a20:    00000000    ....    DCD    0
        0x00008a24:    00000000    ....    DCD    0
        0x00008a28:    00000000    ....    DCD    0
        0x00008a2c:    00000000    ....    DCD    0
        0x00008a30:    00000000    ....    DCD    0
        0x00008a34:    00000000    ....    DCD    0
        0x00008a38:    00000000    ....    DCD    0
        0x00008a3c:    46344244    DB4F    DCD    1177829956
        0x00008a40:    45303146    F10E    DCD    1160786246
        0x00008a44:    37353043    C057    DCD    926232643
        0x00008a48:    45413945    E9AE    DCD    1161902405
        0x00008a4c:    30423632    26B0    DCD    809645618
        0x00008a50:    32304437    7D02    DCD    842023991
        0x00008a54:    37423038    80B7    DCD    927084600
        0x00008a58:    34333446    F434    DCD    875770950
        0x00008a5c:    35414431    1DA5    DCD    893469745
        0x00008a60:    31423144    D1B1    DCD    826421572
        0x00008a64:    30454145    EAE0    DCD    809845061
        0x00008a68:    44374336    6C7D    DCD    1144472374
        0x00008a6c:    00000000    ....    DCD    0
        0x00008a70:    00000000    ....    DCD    0
        0x00008a74:    00000000    ....    DCD    0
        0x00008a78:    00000000    ....    DCD    0
        0x00008a7c:    00000000    ....    DCD    0
        0x00008a80:    00000000    ....    DCD    0
        0x00008a84:    00000000    ....    DCD    0
        0x00008a88:    00000000    ....    DCD    0
        0x00008a8c:    00000000    ....    DCD    0
        0x00008a90:    00000000    ....    DCD    0
        0x00008a94:    00000000    ....    DCD    0
        0x00008a98:    00000000    ....    DCD    0
        0x00008a9c:    00000000    ....    DCD    0
        0x00008aa0:    00000000    ....    DCD    0
        0x00008aa4:    00000000    ....    DCD    0
        0x00008aa8:    00000000    ....    DCD    0
        0x00008aac:    00000000    ....    DCD    0
        0x00008ab0:    00000000    ....    DCD    0
        0x00008ab4:    00000000    ....    DCD    0
        0x00008ab8:    00000000    ....    DCD    0
        0x00008abc:    00000000    ....    DCD    0
        0x00008ac0:    00000000    ....    DCD    0
        0x00008ac4:    00000000    ....    DCD    0
        0x00008ac8:    00000000    ....    DCD    0
        0x00008acc:    46324239    9B2F    DCD    1177698873
        0x00008ad0:    44364632    2F6D    DCD    1144407602
        0x00008ad4:    36354339    9C56    DCD    909460281
        0x00008ad8:    37413832    28A7    DCD    927021106
        0x00008adc:    31343438    8441    DCD    825504824
        0x00008ae0:    30443336    63D0    DCD    809775926
        0x00008ae4:    45423531    15BE    DCD    1161966897
        0x00008ae8:    34333638    8634    DCD    875771448
        0x00008aec:    32383034    4082    DCD    842543156
        0x00008af0:    38384141    AA88    DCD    943210817
        0x00008af4:    45353944    D95E    DCD    1161115972
        0x00008af8:    44394632    2F9D    DCD    1144604210
        0x00008afc:    00000000    ....    DCD    0
        0x00008b00:    00000000    ....    DCD    0
        0x00008b04:    00000000    ....    DCD    0
        0x00008b08:    00000000    ....    DCD    0
        0x00008b0c:    00000000    ....    DCD    0
        0x00008b10:    00000000    ....    DCD    0
        0x00008b14:    00000000    ....    DCD    0
        0x00008b18:    00000000    ....    DCD    0
        0x00008b1c:    00000000    ....    DCD    0
        0x00008b20:    00000000    ....    DCD    0
        0x00008b24:    00000000    ....    DCD    0
        0x00008b28:    00000000    ....    DCD    0
        0x00008b2c:    00000000    ....    DCD    0
        0x00008b30:    00000000    ....    DCD    0
        0x00008b34:    00000000    ....    DCD    0
        0x00008b38:    00000000    ....    DCD    0
        0x00008b3c:    00000000    ....    DCD    0
        0x00008b40:    00000000    ....    DCD    0
        0x00008b44:    00000000    ....    DCD    0
        0x00008b48:    00000000    ....    DCD    0
        0x00008b4c:    00000000    ....    DCD    0
        0x00008b50:    00000000    ....    DCD    0
        0x00008b54:    00000000    ....    DCD    0
        0x00008b58:    00000000    ....    DCD    0
        0x00008b5c:    0000003a    :...    DCD    58
        0x00008b60:    46464646    FFFF    DCD    1179010630
        0x00008b64:    46464646    FFFF    DCD    1179010630
        0x00008b68:    46464646    FFFF    DCD    1179010630
        0x00008b6c:    46464646    FFFF    DCD    1179010630
        0x00008b70:    46464646    FFFF    DCD    1179010630
        0x00008b74:    46464646    FFFF    DCD    1179010630
        0x00008b78:    46464646    FFFF    DCD    1179010630
        0x00008b7c:    46464646    FFFF    DCD    1179010630
        0x00008b80:    46464646    FFFF    DCD    1179010630
        0x00008b84:    45464646    FFFE    DCD    1162233414
        0x00008b88:    46464646    FFFF    DCD    1179010630
        0x00008b8c:    37334545    EE37    DCD    926106949
        0x00008b90:    00000000    ....    DCD    0
        0x00008b94:    00000000    ....    DCD    0
        0x00008b98:    00000000    ....    DCD    0
        0x00008b9c:    00000000    ....    DCD    0
        0x00008ba0:    00000000    ....    DCD    0
        0x00008ba4:    00000000    ....    DCD    0
        0x00008ba8:    00000000    ....    DCD    0
        0x00008bac:    00000000    ....    DCD    0
        0x00008bb0:    00000000    ....    DCD    0
        0x00008bb4:    00000000    ....    DCD    0
        0x00008bb8:    00000000    ....    DCD    0
        0x00008bbc:    00000000    ....    DCD    0
        0x00008bc0:    00000000    ....    DCD    0
        0x00008bc4:    00000000    ....    DCD    0
        0x00008bc8:    00000000    ....    DCD    0
        0x00008bcc:    00000000    ....    DCD    0
        0x00008bd0:    00000000    ....    DCD    0
        0x00008bd4:    00000000    ....    DCD    0
        0x00008bd8:    00000000    ....    DCD    0
        0x00008bdc:    00000000    ....    DCD    0
        0x00008be0:    00000000    ....    DCD    0
        0x00008be4:    00000000    ....    DCD    0
        0x00008be8:    00000000    ....    DCD    0
        0x00008bec:    00000000    ....    DCD    0
        0x00008bf0:    00000000    ....    DCD    0
        0x00008bf4:    00000000    ....    DCD    0
        0x00008bf8:    00000000    ....    DCD    0
        0x00008bfc:    00000000    ....    DCD    0
        0x00008c00:    00000000    ....    DCD    0
        0x00008c04:    00000000    ....    DCD    0
        0x00008c08:    00000000    ....    DCD    0
        0x00008c0c:    00000000    ....    DCD    0
        0x00008c10:    0000003a    :...    DCD    58
        0x00008c14:    46464646    FFFF    DCD    1179010630
        0x00008c18:    46464646    FFFF    DCD    1179010630
        0x00008c1c:    46464646    FFFF    DCD    1179010630
        0x00008c20:    46464646    FFFF    DCD    1179010630
        0x00008c24:    46464646    FFFF    DCD    1179010630
        0x00008c28:    45464646    FFFE    DCD    1162233414
        0x00008c2c:    32463632    26F2    DCD    843462194
        0x00008c30:    37314346    FC17    DCD    925975366
        0x00008c34:    39364630    0F69    DCD    959858224
        0x00008c38:    41363634    466A    DCD    1094071860
        0x00008c3c:    45443437    74DE    DCD    1162097719
        0x00008c40:    44384446    FD8D    DCD    1144538182
        0x00008c44:    00000000    ....    DCD    0
        0x00008c48:    00000000    ....    DCD    0
        0x00008c4c:    00000000    ....    DCD    0
        0x00008c50:    00000000    ....    DCD    0
        0x00008c54:    00000000    ....    DCD    0
        0x00008c58:    00000000    ....    DCD    0
        0x00008c5c:    00000000    ....    DCD    0
        0x00008c60:    00000000    ....    DCD    0
        0x00008c64:    00000000    ....    DCD    0
        0x00008c68:    00000000    ....    DCD    0
        0x00008c6c:    00000000    ....    DCD    0
        0x00008c70:    00000000    ....    DCD    0
        0x00008c74:    00000000    ....    DCD    0
        0x00008c78:    00000000    ....    DCD    0
        0x00008c7c:    00000000    ....    DCD    0
        0x00008c80:    00000000    ....    DCD    0
        0x00008c84:    00000000    ....    DCD    0
        0x00008c88:    00000000    ....    DCD    0
        0x00008c8c:    00000000    ....    DCD    0
        0x00008c90:    00000000    ....    DCD    0
        0x00008c94:    00000000    ....    DCD    0
        0x00008c98:    00000000    ....    DCD    0
        0x00008c9c:    00000000    ....    DCD    0
        0x00008ca0:    00000000    ....    DCD    0
        0x00008ca4:    00000000    ....    DCD    0
        0x00008ca8:    00000000    ....    DCD    0
        0x00008cac:    00000000    ....    DCD    0
        0x00008cb0:    00000000    ....    DCD    0
        0x00008cb4:    00000000    ....    DCD    0
        0x00008cb8:    00000000    ....    DCD    0
        0x00008cbc:    00000000    ....    DCD    0
        0x00008cc0:    00000000    ....    DCD    0
        0x00008cc4:    000000c0    ....    DCD    192
        0x00008cc8:    00000007    ....    DCD    7
        0x00008ccc:    00000002    ....    DCD    2
        0x00008cd0:    00000001    ....    DCD    1
        0x00008cd4:    00000000    ....    DCD    0
        0x00008cd8:    00000010    ....    DCD    16
        0x00008cdc:    00000038    8...    DCD    56
        0x00008ce0:    30303030    0000    DCD    808464432
        0x00008ce4:    30303030    0000    DCD    808464432
        0x00008ce8:    30303030    0000    DCD    808464432
        0x00008cec:    30303030    0000    DCD    808464432
        0x00008cf0:    30303030    0000    DCD    808464432
        0x00008cf4:    30303030    0000    DCD    808464432
        0x00008cf8:    30303030    0000    DCD    808464432
        0x00008cfc:    30303030    0000    DCD    808464432
        0x00008d00:    30303030    0000    DCD    808464432
        0x00008d04:    30303030    0000    DCD    808464432
        0x00008d08:    30303030    0000    DCD    808464432
        0x00008d0c:    30303030    0000    DCD    808464432
        0x00008d10:    30303030    0000    DCD    808464432
        0x00008d14:    30303030    0000    DCD    808464432
        0x00008d18:    00000000    ....    DCD    0
        0x00008d1c:    00000000    ....    DCD    0
        0x00008d20:    00000000    ....    DCD    0
        0x00008d24:    00000000    ....    DCD    0
        0x00008d28:    00000000    ....    DCD    0
        0x00008d2c:    00000000    ....    DCD    0
        0x00008d30:    00000000    ....    DCD    0
        0x00008d34:    00000000    ....    DCD    0
        0x00008d38:    00000000    ....    DCD    0
        0x00008d3c:    00000000    ....    DCD    0
        0x00008d40:    00000000    ....    DCD    0
        0x00008d44:    00000000    ....    DCD    0
        0x00008d48:    00000000    ....    DCD    0
        0x00008d4c:    00000000    ....    DCD    0
        0x00008d50:    00000000    ....    DCD    0
        0x00008d54:    00000000    ....    DCD    0
        0x00008d58:    00000000    ....    DCD    0
        0x00008d5c:    00000000    ....    DCD    0
        0x00008d60:    00000000    ....    DCD    0
        0x00008d64:    00000000    ....    DCD    0
        0x00008d68:    00000000    ....    DCD    0
        0x00008d6c:    00000000    ....    DCD    0
        0x00008d70:    30303030    0000    DCD    808464432
        0x00008d74:    30303030    0000    DCD    808464432
        0x00008d78:    30303030    0000    DCD    808464432
        0x00008d7c:    30303030    0000    DCD    808464432
        0x00008d80:    30303030    0000    DCD    808464432
        0x00008d84:    30303030    0000    DCD    808464432
        0x00008d88:    30303030    0000    DCD    808464432
        0x00008d8c:    30303030    0000    DCD    808464432
        0x00008d90:    30303030    0000    DCD    808464432
        0x00008d94:    30303030    0000    DCD    808464432
        0x00008d98:    30303030    0000    DCD    808464432
        0x00008d9c:    30303030    0000    DCD    808464432
        0x00008da0:    30303030    0000    DCD    808464432
        0x00008da4:    35303030    0005    DCD    892350512
        0x00008da8:    00000000    ....    DCD    0
        0x00008dac:    00000000    ....    DCD    0
        0x00008db0:    00000000    ....    DCD    0
        0x00008db4:    00000000    ....    DCD    0
        0x00008db8:    00000000    ....    DCD    0
        0x00008dbc:    00000000    ....    DCD    0
        0x00008dc0:    00000000    ....    DCD    0
        0x00008dc4:    00000000    ....    DCD    0
        0x00008dc8:    00000000    ....    DCD    0
        0x00008dcc:    00000000    ....    DCD    0
        0x00008dd0:    00000000    ....    DCD    0
        0x00008dd4:    00000000    ....    DCD    0
        0x00008dd8:    00000000    ....    DCD    0
        0x00008ddc:    00000000    ....    DCD    0
        0x00008de0:    00000000    ....    DCD    0
        0x00008de4:    00000000    ....    DCD    0
        0x00008de8:    00000000    ....    DCD    0
        0x00008dec:    00000000    ....    DCD    0
        0x00008df0:    00000000    ....    DCD    0
        0x00008df4:    00000000    ....    DCD    0
        0x00008df8:    00000000    ....    DCD    0
        0x00008dfc:    00000000    ....    DCD    0
        0x00008e00:    35343141    A145    DCD    892612929
        0x00008e04:    33334235    5B33    DCD    858997301
        0x00008e08:    30464434    4DF0    DCD    809911348
        0x00008e0c:    46443939    99DF    DCD    1178876217
        0x00008e10:    43463033    30FC    DCD    1128673331
        0x00008e14:    31413832    28A1    DCD    826357810
        0x00008e18:    34413936    69A4    DCD    876689718
        0x00008e1c:    39453736    67E9    DCD    960837430
        0x00008e20:    30373445    E470    DCD    808924229
        0x00008e24:    39413537    75A9    DCD    960574775
        0x00008e28:    45374630    0F7E    DCD    1161250352
        0x00008e2c:    45303536    650E    DCD    1160787254
        0x00008e30:    37423642    B6B7    DCD    927086146
        0x00008e34:    43353441    A45C    DCD    1127560257
        0x00008e38:    00000000    ....    DCD    0
        0x00008e3c:    00000000    ....    DCD    0
        0x00008e40:    00000000    ....    DCD    0
        0x00008e44:    00000000    ....    DCD    0
        0x00008e48:    00000000    ....    DCD    0
        0x00008e4c:    00000000    ....    DCD    0
        0x00008e50:    00000000    ....    DCD    0
        0x00008e54:    00000000    ....    DCD    0
        0x00008e58:    00000000    ....    DCD    0
        0x00008e5c:    00000000    ....    DCD    0
        0x00008e60:    00000000    ....    DCD    0
        0x00008e64:    00000000    ....    DCD    0
        0x00008e68:    00000000    ....    DCD    0
        0x00008e6c:    00000000    ....    DCD    0
        0x00008e70:    00000000    ....    DCD    0
        0x00008e74:    00000000    ....    DCD    0
        0x00008e78:    00000000    ....    DCD    0
        0x00008e7c:    00000000    ....    DCD    0
        0x00008e80:    00000000    ....    DCD    0
        0x00008e84:    00000000    ....    DCD    0
        0x00008e88:    00000000    ....    DCD    0
        0x00008e8c:    00000000    ....    DCD    0
        0x00008e90:    38304537    7E08    DCD    942687543
        0x00008e94:    44454639    9FED    DCD    1145390649
        0x00008e98:    41424637    7FBA    DCD    1094862391
        0x00008e9c:    32343433    3442    DCD    842282035
        0x00008ea0:    41433238    82CA    DCD    1094922808
        0x00008ea4:    36444246    FBD6    DCD    910443078
        0x00008ea8:    33453746    F7E3    DCD    860174150
        0x00008eac:    37463931    19F7    DCD    927349041
        0x00008eb0:    30423043    C0B0    DCD    809644099
        0x00008eb4:    39354442    BD59    DCD    959792194
        0x00008eb8:    41433245    E2CA    DCD    1094922821
        0x00008ebc:    42444234    4BDB    DCD    1111769652
        0x00008ec0:    44363535    556D    DCD    1144403253
        0x00008ec4:    35413136    61A5    DCD    893464886
        0x00008ec8:    00000000    ....    DCD    0
        0x00008ecc:    00000000    ....    DCD    0
        0x00008ed0:    00000000    ....    DCD    0
        0x00008ed4:    00000000    ....    DCD    0
        0x00008ed8:    00000000    ....    DCD    0
        0x00008edc:    00000000    ....    DCD    0
        0x00008ee0:    00000000    ....    DCD    0
        0x00008ee4:    00000000    ....    DCD    0
        0x00008ee8:    00000000    ....    DCD    0
        0x00008eec:    00000000    ....    DCD    0
        0x00008ef0:    00000000    ....    DCD    0
        0x00008ef4:    00000000    ....    DCD    0
        0x00008ef8:    00000000    ....    DCD    0
        0x00008efc:    00000000    ....    DCD    0
        0x00008f00:    00000000    ....    DCD    0
        0x00008f04:    00000000    ....    DCD    0
        0x00008f08:    00000000    ....    DCD    0
        0x00008f0c:    00000000    ....    DCD    0
        0x00008f10:    00000000    ....    DCD    0
        0x00008f14:    00000000    ....    DCD    0
        0x00008f18:    00000000    ....    DCD    0
        0x00008f1c:    00000000    ....    DCD    0
        0x00008f20:    00000046    F...    DCD    70
        0x00008f24:    46464646    FFFF    DCD    1179010630
        0x00008f28:    46464646    FFFF    DCD    1179010630
        0x00008f2c:    46464646    FFFF    DCD    1179010630
        0x00008f30:    46464646    FFFF    DCD    1179010630
        0x00008f34:    46464646    FFFF    DCD    1179010630
        0x00008f38:    46464646    FFFF    DCD    1179010630
        0x00008f3c:    46464646    FFFF    DCD    1179010630
        0x00008f40:    46464646    FFFF    DCD    1179010630
        0x00008f44:    46464646    FFFF    DCD    1179010630
        0x00008f48:    46464646    FFFF    DCD    1179010630
        0x00008f4c:    46464646    FFFF    DCD    1179010630
        0x00008f50:    45464646    FFFE    DCD    1162233414
        0x00008f54:    46464646    FFFF    DCD    1179010630
        0x00008f58:    44363545    E56D    DCD    1144403269
        0x00008f5c:    00000000    ....    DCD    0
        0x00008f60:    00000000    ....    DCD    0
        0x00008f64:    00000000    ....    DCD    0
        0x00008f68:    00000000    ....    DCD    0
        0x00008f6c:    00000000    ....    DCD    0
        0x00008f70:    00000000    ....    DCD    0
        0x00008f74:    00000000    ....    DCD    0
        0x00008f78:    00000000    ....    DCD    0
        0x00008f7c:    00000000    ....    DCD    0
        0x00008f80:    00000000    ....    DCD    0
        0x00008f84:    00000000    ....    DCD    0
        0x00008f88:    00000000    ....    DCD    0
        0x00008f8c:    00000000    ....    DCD    0
        0x00008f90:    00000000    ....    DCD    0
        0x00008f94:    00000000    ....    DCD    0
        0x00008f98:    00000000    ....    DCD    0
        0x00008f9c:    00000000    ....    DCD    0
        0x00008fa0:    00000000    ....    DCD    0
        0x00008fa4:    00000000    ....    DCD    0
        0x00008fa8:    00000000    ....    DCD    0
        0x00008fac:    00000000    ....    DCD    0
        0x00008fb0:    00000000    ....    DCD    0
        0x00008fb4:    00000000    ....    DCD    0
        0x00008fb8:    00000000    ....    DCD    0
        0x00008fbc:    00000000    ....    DCD    0
        0x00008fc0:    00000000    ....    DCD    0
        0x00008fc4:    00000000    ....    DCD    0
        0x00008fc8:    00000000    ....    DCD    0
        0x00008fcc:    00000000    ....    DCD    0
        0x00008fd0:    00000000    ....    DCD    0
        0x00008fd4:    00000046    F...    DCD    70
        0x00008fd8:    30303030    0000    DCD    808464432
        0x00008fdc:    30303030    0000    DCD    808464432
        0x00008fe0:    30303030    0000    DCD    808464432
        0x00008fe4:    30303030    0000    DCD    808464432
        0x00008fe8:    30303030    0000    DCD    808464432
        0x00008fec:    30303030    0000    DCD    808464432
        0x00008ff0:    31303030    0001    DCD    825241648
        0x00008ff4:    38454344    DCE8    DCD    944063300
        0x00008ff8:    43453244    D2EC    DCD    1128608324
        0x00008ffc:    34383136    6184    DCD    876097846
        0x00009000:    30464143    CAF0    DCD    809910595
        0x00009004:    31373941    A971    DCD    825702721
        0x00009008:    46393637    769F    DCD    1178154551
        0x0000900c:    37463142    B1F7    DCD    927347010
        0x00009010:    00000000    ....    DCD    0
        0x00009014:    00000000    ....    DCD    0
        0x00009018:    00000000    ....    DCD    0
        0x0000901c:    00000000    ....    DCD    0
        0x00009020:    00000000    ....    DCD    0
        0x00009024:    00000000    ....    DCD    0
        0x00009028:    00000000    ....    DCD    0
        0x0000902c:    00000000    ....    DCD    0
        0x00009030:    00000000    ....    DCD    0
        0x00009034:    00000000    ....    DCD    0
        0x00009038:    00000000    ....    DCD    0
        0x0000903c:    00000000    ....    DCD    0
        0x00009040:    00000000    ....    DCD    0
        0x00009044:    00000000    ....    DCD    0
        0x00009048:    00000000    ....    DCD    0
        0x0000904c:    00000000    ....    DCD    0
        0x00009050:    00000000    ....    DCD    0
        0x00009054:    00000000    ....    DCD    0
        0x00009058:    00000000    ....    DCD    0
        0x0000905c:    00000000    ....    DCD    0
        0x00009060:    00000000    ....    DCD    0
        0x00009064:    00000000    ....    DCD    0
        0x00009068:    00000000    ....    DCD    0
        0x0000906c:    00000000    ....    DCD    0
        0x00009070:    00000000    ....    DCD    0
        0x00009074:    00000000    ....    DCD    0
        0x00009078:    00000000    ....    DCD    0
        0x0000907c:    00000000    ....    DCD    0
        0x00009080:    00000000    ....    DCD    0
        0x00009084:    00000000    ....    DCD    0
        0x00009088:    000000e0    ....    DCD    224
        0x0000908c:    00000007    ....    DCD    7
        0x00009090:    00000002    ....    DCD    2
        0x00009094:    00000001    ....    DCD    1
        0x00009098:    00000000    ....    DCD    0
        0x0000909c:    00000011    ....    DCD    17
        0x000090a0:    00000040    @...    DCD    64
        0x000090a4:    30303030    0000    DCD    808464432
        0x000090a8:    30303030    0000    DCD    808464432
        0x000090ac:    30303030    0000    DCD    808464432
        0x000090b0:    30303030    0000    DCD    808464432
        0x000090b4:    30303030    0000    DCD    808464432
        0x000090b8:    30303030    0000    DCD    808464432
        0x000090bc:    30303030    0000    DCD    808464432
        0x000090c0:    30303030    0000    DCD    808464432
        0x000090c4:    30303030    0000    DCD    808464432
        0x000090c8:    30303030    0000    DCD    808464432
        0x000090cc:    30303030    0000    DCD    808464432
        0x000090d0:    30303030    0000    DCD    808464432
        0x000090d4:    30303030    0000    DCD    808464432
        0x000090d8:    30303030    0000    DCD    808464432
        0x000090dc:    30303030    0000    DCD    808464432
        0x000090e0:    30303030    0000    DCD    808464432
        0x000090e4:    00000000    ....    DCD    0
        0x000090e8:    00000000    ....    DCD    0
        0x000090ec:    00000000    ....    DCD    0
        0x000090f0:    00000000    ....    DCD    0
        0x000090f4:    00000000    ....    DCD    0
        0x000090f8:    00000000    ....    DCD    0
        0x000090fc:    00000000    ....    DCD    0
        0x00009100:    00000000    ....    DCD    0
        0x00009104:    00000000    ....    DCD    0
        0x00009108:    00000000    ....    DCD    0
        0x0000910c:    00000000    ....    DCD    0
        0x00009110:    00000000    ....    DCD    0
        0x00009114:    00000000    ....    DCD    0
        0x00009118:    00000000    ....    DCD    0
        0x0000911c:    00000000    ....    DCD    0
        0x00009120:    00000000    ....    DCD    0
        0x00009124:    00000000    ....    DCD    0
        0x00009128:    00000000    ....    DCD    0
        0x0000912c:    00000000    ....    DCD    0
        0x00009130:    00000000    ....    DCD    0
        0x00009134:    30303030    0000    DCD    808464432
        0x00009138:    30303030    0000    DCD    808464432
        0x0000913c:    30303030    0000    DCD    808464432
        0x00009140:    30303030    0000    DCD    808464432
        0x00009144:    30303030    0000    DCD    808464432
        0x00009148:    30303030    0000    DCD    808464432
        0x0000914c:    30303030    0000    DCD    808464432
        0x00009150:    30303030    0000    DCD    808464432
        0x00009154:    30303030    0000    DCD    808464432
        0x00009158:    30303030    0000    DCD    808464432
        0x0000915c:    30303030    0000    DCD    808464432
        0x00009160:    30303030    0000    DCD    808464432
        0x00009164:    30303030    0000    DCD    808464432
        0x00009168:    30303030    0000    DCD    808464432
        0x0000916c:    30303030    0000    DCD    808464432
        0x00009170:    37303030    0007    DCD    925904944
        0x00009174:    00000000    ....    DCD    0
        0x00009178:    00000000    ....    DCD    0
        0x0000917c:    00000000    ....    DCD    0
        0x00009180:    00000000    ....    DCD    0
        0x00009184:    00000000    ....    DCD    0
        0x00009188:    00000000    ....    DCD    0
        0x0000918c:    00000000    ....    DCD    0
        0x00009190:    00000000    ....    DCD    0
        0x00009194:    00000000    ....    DCD    0
        0x00009198:    00000000    ....    DCD    0
        0x0000919c:    00000000    ....    DCD    0
        0x000091a0:    00000000    ....    DCD    0
        0x000091a4:    00000000    ....    DCD    0
        0x000091a8:    00000000    ....    DCD    0
        0x000091ac:    00000000    ....    DCD    0
        0x000091b0:    00000000    ....    DCD    0
        0x000091b4:    00000000    ....    DCD    0
        0x000091b8:    00000000    ....    DCD    0
        0x000091bc:    00000000    ....    DCD    0
        0x000091c0:    00000000    ....    DCD    0
        0x000091c4:    45423937    79BE    DCD    1161967927
        0x000091c8:    45373636    667E    DCD    1161246262
        0x000091cc:    43443946    F9DC    DCD    1128544582
        0x000091d0:    43414242    BBAC    DCD    1128350274
        0x000091d4:    30413535    55A0    DCD    809579829
        0x000091d8:    35393236    6295    DCD    892940854
        0x000091dc:    37384543    CE87    DCD    926434627
        0x000091e0:    37304230    0B07    DCD    925909552
        0x000091e4:    42393230    029B    DCD    1111044656
        0x000091e8:    42444346    FCDB    DCD    1111769926
        0x000091ec:    45434432    2DCE    DCD    1162036274
        0x000091f0:    39443832    28D9    DCD    960772146
        0x000091f4:    32463935    59F2    DCD    843462965
        0x000091f8:    42353138    815B    DCD    1110782264
        0x000091fc:    38463631    16F8    DCD    944125489
        0x00009200:    38393731    1798    DCD    943273777
        0x00009204:    00000000    ....    DCD    0
        0x00009208:    00000000    ....    DCD    0
        0x0000920c:    00000000    ....    DCD    0
        0x00009210:    00000000    ....    DCD    0
        0x00009214:    00000000    ....    DCD    0
        0x00009218:    00000000    ....    DCD    0
        0x0000921c:    00000000    ....    DCD    0
        0x00009220:    00000000    ....    DCD    0
        0x00009224:    00000000    ....    DCD    0
        0x00009228:    00000000    ....    DCD    0
        0x0000922c:    00000000    ....    DCD    0
        0x00009230:    00000000    ....    DCD    0
        0x00009234:    00000000    ....    DCD    0
        0x00009238:    00000000    ....    DCD    0
        0x0000923c:    00000000    ....    DCD    0
        0x00009240:    00000000    ....    DCD    0
        0x00009244:    00000000    ....    DCD    0
        0x00009248:    00000000    ....    DCD    0
        0x0000924c:    00000000    ....    DCD    0
        0x00009250:    00000000    ....    DCD    0
        0x00009254:    41333834    483A    DCD    1093875764
        0x00009258:    37374144    DA77    DCD    926368068
        0x0000925c:    33413632    26A3    DCD    859911730
        0x00009260:    35363443    C465    DCD    892744771
        0x00009264:    34414435    5DA4    DCD    876692533
        0x00009268:    43464246    FBFC    DCD    1128677958
        0x0000926c:    31314530    0E11    DCD    825312560
        0x00009270:    38413830    08A8    DCD    943798320
        0x00009274:    37314446    FD17    DCD    925975622
        0x00009278:    38343442    B448    DCD    942945346
        0x0000927c:    35383641    A685    DCD    892876353
        0x00009280:    39313435    5419    DCD    959525941
        0x00009284:    37344339    9C47    DCD    926171961
        0x00009288:    46383044    D08F    DCD    1178087492
        0x0000928c:    30314246    FB10    DCD    808534598
        0x00009290:    38423444    D4B8    DCD    943862852
        0x00009294:    00000000    ....    DCD    0
        0x00009298:    00000000    ....    DCD    0
        0x0000929c:    00000000    ....    DCD    0
        0x000092a0:    00000000    ....    DCD    0
        0x000092a4:    00000000    ....    DCD    0
        0x000092a8:    00000000    ....    DCD    0
        0x000092ac:    00000000    ....    DCD    0
        0x000092b0:    00000000    ....    DCD    0
        0x000092b4:    00000000    ....    DCD    0
        0x000092b8:    00000000    ....    DCD    0
        0x000092bc:    00000000    ....    DCD    0
        0x000092c0:    00000000    ....    DCD    0
        0x000092c4:    00000000    ....    DCD    0
        0x000092c8:    00000000    ....    DCD    0
        0x000092cc:    00000000    ....    DCD    0
        0x000092d0:    00000000    ....    DCD    0
        0x000092d4:    00000000    ....    DCD    0
        0x000092d8:    00000000    ....    DCD    0
        0x000092dc:    00000000    ....    DCD    0
        0x000092e0:    00000000    ....    DCD    0
        0x000092e4:    0000004e    N...    DCD    78
        0x000092e8:    46464646    FFFF    DCD    1179010630
        0x000092ec:    46464646    FFFF    DCD    1179010630
        0x000092f0:    46464646    FFFF    DCD    1179010630
        0x000092f4:    46464646    FFFF    DCD    1179010630
        0x000092f8:    46464646    FFFF    DCD    1179010630
        0x000092fc:    46464646    FFFF    DCD    1179010630
        0x00009300:    46464646    FFFF    DCD    1179010630
        0x00009304:    46464646    FFFF    DCD    1179010630
        0x00009308:    46464646    FFFF    DCD    1179010630
        0x0000930c:    46464646    FFFF    DCD    1179010630
        0x00009310:    46464646    FFFF    DCD    1179010630
        0x00009314:    46464646    FFFF    DCD    1179010630
        0x00009318:    46464646    FFFF    DCD    1179010630
        0x0000931c:    45464646    FFFE    DCD    1162233414
        0x00009320:    46464646    FFFF    DCD    1179010630
        0x00009324:    46324346    FC2F    DCD    1177699142
        0x00009328:    00000000    ....    DCD    0
        0x0000932c:    00000000    ....    DCD    0
        0x00009330:    00000000    ....    DCD    0
        0x00009334:    00000000    ....    DCD    0
        0x00009338:    00000000    ....    DCD    0
        0x0000933c:    00000000    ....    DCD    0
        0x00009340:    00000000    ....    DCD    0
        0x00009344:    00000000    ....    DCD    0
        0x00009348:    00000000    ....    DCD    0
        0x0000934c:    00000000    ....    DCD    0
        0x00009350:    00000000    ....    DCD    0
        0x00009354:    00000000    ....    DCD    0
        0x00009358:    00000000    ....    DCD    0
        0x0000935c:    00000000    ....    DCD    0
        0x00009360:    00000000    ....    DCD    0
        0x00009364:    00000000    ....    DCD    0
        0x00009368:    00000000    ....    DCD    0
        0x0000936c:    00000000    ....    DCD    0
        0x00009370:    00000000    ....    DCD    0
        0x00009374:    00000000    ....    DCD    0
        0x00009378:    00000000    ....    DCD    0
        0x0000937c:    00000000    ....    DCD    0
        0x00009380:    00000000    ....    DCD    0
        0x00009384:    00000000    ....    DCD    0
        0x00009388:    00000000    ....    DCD    0
        0x0000938c:    00000000    ....    DCD    0
        0x00009390:    00000000    ....    DCD    0
        0x00009394:    00000000    ....    DCD    0
        0x00009398:    0000004e    N...    DCD    78
        0x0000939c:    46464646    FFFF    DCD    1179010630
        0x000093a0:    46464646    FFFF    DCD    1179010630
        0x000093a4:    46464646    FFFF    DCD    1179010630
        0x000093a8:    46464646    FFFF    DCD    1179010630
        0x000093ac:    46464646    FFFF    DCD    1179010630
        0x000093b0:    46464646    FFFF    DCD    1179010630
        0x000093b4:    46464646    FFFF    DCD    1179010630
        0x000093b8:    45464646    FFFE    DCD    1162233414
        0x000093bc:    45414142    BAAE    DCD    1161904450
        0x000093c0:    36454344    DCE6    DCD    910508868
        0x000093c4:    38344641    AF48    DCD    942949953
        0x000093c8:    42333041    A03B    DCD    1110650945
        0x000093cc:    32444642    BFD2    DCD    843335234
        0x000093d0:    43384535    5E8C    DCD    1127761205
        0x000093d4:    36333044    D036    DCD    909324356
        0x000093d8:    31343134    4141    DCD    825504052
        0x000093dc:    00000000    ....    DCD    0
        0x000093e0:    00000000    ....    DCD    0
        0x000093e4:    00000000    ....    DCD    0
        0x000093e8:    00000000    ....    DCD    0
        0x000093ec:    00000000    ....    DCD    0
        0x000093f0:    00000000    ....    DCD    0
        0x000093f4:    00000000    ....    DCD    0
        0x000093f8:    00000000    ....    DCD    0
        0x000093fc:    00000000    ....    DCD    0
        0x00009400:    00000000    ....    DCD    0
        0x00009404:    00000000    ....    DCD    0
        0x00009408:    00000000    ....    DCD    0
        0x0000940c:    00000000    ....    DCD    0
        0x00009410:    00000000    ....    DCD    0
        0x00009414:    00000000    ....    DCD    0
        0x00009418:    00000000    ....    DCD    0
        0x0000941c:    00000000    ....    DCD    0
        0x00009420:    00000000    ....    DCD    0
        0x00009424:    00000000    ....    DCD    0
        0x00009428:    00000000    ....    DCD    0
        0x0000942c:    00000000    ....    DCD    0
        0x00009430:    00000000    ....    DCD    0
        0x00009434:    00000000    ....    DCD    0
        0x00009438:    00000000    ....    DCD    0
        0x0000943c:    00000000    ....    DCD    0
        0x00009440:    00000000    ....    DCD    0
        0x00009444:    00000000    ....    DCD    0
        0x00009448:    00000000    ....    DCD    0
        0x0000944c:    00000100    ....    DCD    256
        0x00009450:    00000007    ....    DCD    7
        0x00009454:    00000002    ....    DCD    2
        0x00009458:    00000001    ....    DCD    1
        0x0000945c:    00000000    ....    DCD    0
        0x00009460:    00000012    ....    DCD    18
        0x00009464:    00000040    @...    DCD    64
        0x00009468:    41354437    7D5A    DCD    1094009911
        0x0000946c:    35373930    0975    DCD    892811568
        0x00009470:    43324346    FC2C    DCD    1127367494
        0x00009474:    37353033    3057    DCD    926232627
        0x00009478:    36464545    EEF6    DCD    910574917
        0x0000947c:    30333537    7530    DCD    808662327
        0x00009480:    41373134    417A    DCD    1094136116
        0x00009484:    37454646    FFE7    DCD    927286854
        0x00009488:    30384246    FB80    DCD    808993350
        0x0000948c:    31433535    55C1    DCD    826488117
        0x00009490:    43443632    26DC    DCD    1128543794
        0x00009494:    43364335    5C6C    DCD    1127629621
        0x00009498:    41343945    E94A    DCD    1093941573
        0x0000949c:    34344234    4B44    DCD    875840052
        0x000094a0:    30333346    F330    DCD    808661830
        0x000094a4:    39443542    B5D9    DCD    960771394
        0x000094a8:    00000000    ....    DCD    0
        0x000094ac:    00000000    ....    DCD    0
        0x000094b0:    00000000    ....    DCD    0
        0x000094b4:    00000000    ....    DCD    0
        0x000094b8:    00000000    ....    DCD    0
        0x000094bc:    00000000    ....    DCD    0
        0x000094c0:    00000000    ....    DCD    0
        0x000094c4:    00000000    ....    DCD    0
        0x000094c8:    00000000    ....    DCD    0
        0x000094cc:    00000000    ....    DCD    0
        0x000094d0:    00000000    ....    DCD    0
        0x000094d4:    00000000    ....    DCD    0
        0x000094d8:    00000000    ....    DCD    0
        0x000094dc:    00000000    ....    DCD    0
        0x000094e0:    00000000    ....    DCD    0
        0x000094e4:    00000000    ....    DCD    0
        0x000094e8:    00000000    ....    DCD    0
        0x000094ec:    00000000    ....    DCD    0
        0x000094f0:    00000000    ....    DCD    0
        0x000094f4:    00000000    ....    DCD    0
        0x000094f8:    43443632    26DC    DCD    1128543794
        0x000094fc:    43364335    5C6C    DCD    1127629621
        0x00009500:    41343945    E94A    DCD    1093941573
        0x00009504:    34344234    4B44    DCD    875840052
        0x00009508:    30333346    F330    DCD    808661830
        0x0000950c:    39443542    B5D9    DCD    960771394
        0x00009510:    37444242    BBD7    DCD    927220290
        0x00009514:    46424337    7CBF    DCD    1178747703
        0x00009518:    34383539    9584    DCD    876098873
        0x0000951c:    39323631    1629    DCD    959591985
        0x00009520:    37464335    5CF7    DCD    927351605
        0x00009524:    45433145    E1CE    DCD    1162031429
        0x00009528:    43434236    6BCC    DCD    1128481334
        0x0000952c:    38314344    DC18    DCD    942752580
        0x00009530:    43384646    FF8C    DCD    1127761478
        0x00009534:    36423730    07B6    DCD    910309168
        0x00009538:    00000000    ....    DCD    0
        0x0000953c:    00000000    ....    DCD    0
        0x00009540:    00000000    ....    DCD    0
        0x00009544:    00000000    ....    DCD    0
        0x00009548:    00000000    ....    DCD    0
        0x0000954c:    00000000    ....    DCD    0
        0x00009550:    00000000    ....    DCD    0
        0x00009554:    00000000    ....    DCD    0
        0x00009558:    00000000    ....    DCD    0
        0x0000955c:    00000000    ....    DCD    0
        0x00009560:    00000000    ....    DCD    0
        0x00009564:    00000000    ....    DCD    0
        0x00009568:    00000000    ....    DCD    0
        0x0000956c:    00000000    ....    DCD    0
        0x00009570:    00000000    ....    DCD    0
        0x00009574:    00000000    ....    DCD    0
        0x00009578:    00000000    ....    DCD    0
        0x0000957c:    00000000    ....    DCD    0
        0x00009580:    00000000    ....    DCD    0
        0x00009584:    00000000    ....    DCD    0
        0x00009588:    32444238    8BD2    DCD    843334200
        0x0000958c:    39424541    AEB9    DCD    960644417
        0x00009590:    45374243    CB7E    DCD    1161249347
        0x00009594:    42433735    57CB    DCD    1111701301
        0x00009598:    42344332    2C4B    DCD    1110721330
        0x0000959c:    46323834    482F    DCD    1177696308
        0x000095a0:    31384346    FC81    DCD    825770822
        0x000095a4:    46413742    B7AF    DCD    1178679106
        0x000095a8:    45443942    B9DE    DCD    1162099010
        0x000095ac:    31453732    27E1    DCD    826619698
        0x000095b0:    44423345    E3BD    DCD    1145189189
        0x000095b4:    32433332    23C2    DCD    843264818
        0x000095b8:    34344133    3A44    DCD    875839795
        0x000095bc:    44423335    53BD    DCD    1145189173
        0x000095c0:    45434139    9ACE    DCD    1162035513
        0x000095c4:    32363233    3262    DCD    842412595
        0x000095c8:    00000000    ....    DCD    0
        0x000095cc:    00000000    ....    DCD    0
        0x000095d0:    00000000    ....    DCD    0
        0x000095d4:    00000000    ....    DCD    0
        0x000095d8:    00000000    ....    DCD    0
        0x000095dc:    00000000    ....    DCD    0
        0x000095e0:    00000000    ....    DCD    0
        0x000095e4:    00000000    ....    DCD    0
        0x000095e8:    00000000    ....    DCD    0
        0x000095ec:    00000000    ....    DCD    0
        0x000095f0:    00000000    ....    DCD    0
        0x000095f4:    00000000    ....    DCD    0
        0x000095f8:    00000000    ....    DCD    0
        0x000095fc:    00000000    ....    DCD    0
        0x00009600:    00000000    ....    DCD    0
        0x00009604:    00000000    ....    DCD    0
        0x00009608:    00000000    ....    DCD    0
        0x0000960c:    00000000    ....    DCD    0
        0x00009610:    00000000    ....    DCD    0
        0x00009614:    00000000    ....    DCD    0
        0x00009618:    45373435    547E    DCD    1161245749
        0x0000961c:    35333846    F835    DCD    892549190
        0x00009620:    41443343    C3DA    DCD    1094988611
        0x00009624:    44463443    C4FD    DCD    1145451587
        0x00009628:    38463739    97F8    DCD    944125753
        0x0000962c:    41313634    461A    DCD    1093744180
        0x00009630:    31363431    1461    DCD    825635889
        0x00009634:    39434431    1DC9    DCD    960709681
        0x00009638:    37373243    C277    DCD    926364227
        0x0000963c:    33313534    4513    DCD    858862900
        0x00009640:    44454432    2DED    DCD    1145390130
        0x00009644:    34354538    8E54    DCD    875906360
        0x00009648:    44314335    5C1D    DCD    1144079157
        0x0000964c:    37433435    54C7    DCD    927151157
        0x00009650:    34304632    2F04    DCD    875578930
        0x00009654:    37393936    6997    DCD    926497078
        0x00009658:    00000000    ....    DCD    0
        0x0000965c:    00000000    ....    DCD    0
        0x00009660:    00000000    ....    DCD    0
        0x00009664:    00000000    ....    DCD    0
        0x00009668:    00000000    ....    DCD    0
        0x0000966c:    00000000    ....    DCD    0
        0x00009670:    00000000    ....    DCD    0
        0x00009674:    00000000    ....    DCD    0
        0x00009678:    00000000    ....    DCD    0
        0x0000967c:    00000000    ....    DCD    0
        0x00009680:    00000000    ....    DCD    0
        0x00009684:    00000000    ....    DCD    0
        0x00009688:    00000000    ....    DCD    0
        0x0000968c:    00000000    ....    DCD    0
        0x00009690:    00000000    ....    DCD    0
        0x00009694:    00000000    ....    DCD    0
        0x00009698:    00000000    ....    DCD    0
        0x0000969c:    00000000    ....    DCD    0
        0x000096a0:    00000000    ....    DCD    0
        0x000096a4:    00000000    ....    DCD    0
        0x000096a8:    0000004e    N...    DCD    78
        0x000096ac:    42463941    A9FB    DCD    1111898433
        0x000096b0:    42443735    57DB    DCD    1111766837
        0x000096b4:    45453141    A1EE    DCD    1162162497
        0x000096b8:    43423941    A9BC    DCD    1128413505
        0x000096bc:    36364533    3E66    DCD    909526323
        0x000096c0:    30394130    0A90    DCD    809058608
        0x000096c4:    33384439    9D83    DCD    859325497
        0x000096c8:    32374438    8D72    DCD    842482744
        0x000096cc:    42334536    6E3B    DCD    1110656310
        0x000096d0:    33323646    F623    DCD    858928710
        0x000096d4:    36323544    D526    DCD    909260100
        0x000096d8:    38323032    2028    DCD    942813234
        0x000096dc:    33313032    2013    DCD    858861618
        0x000096e0:    44313834    481D    DCD    1144076340
        0x000096e4:    45364631    1F6E    DCD    1161184817
        0x000096e8:    37373335    5377    DCD    926364469
        0x000096ec:    00000000    ....    DCD    0
        0x000096f0:    00000000    ....    DCD    0
        0x000096f4:    00000000    ....    DCD    0
        0x000096f8:    00000000    ....    DCD    0
        0x000096fc:    00000000    ....    DCD    0
        0x00009700:    00000000    ....    DCD    0
        0x00009704:    00000000    ....    DCD    0
        0x00009708:    00000000    ....    DCD    0
        0x0000970c:    00000000    ....    DCD    0
        0x00009710:    00000000    ....    DCD    0
        0x00009714:    00000000    ....    DCD    0
        0x00009718:    00000000    ....    DCD    0
        0x0000971c:    00000000    ....    DCD    0
        0x00009720:    00000000    ....    DCD    0
        0x00009724:    00000000    ....    DCD    0
        0x00009728:    00000000    ....    DCD    0
        0x0000972c:    00000000    ....    DCD    0
        0x00009730:    00000000    ....    DCD    0
        0x00009734:    00000000    ....    DCD    0
        0x00009738:    00000000    ....    DCD    0
        0x0000973c:    00000000    ....    DCD    0
        0x00009740:    00000000    ....    DCD    0
        0x00009744:    00000000    ....    DCD    0
        0x00009748:    00000000    ....    DCD    0
        0x0000974c:    00000000    ....    DCD    0
        0x00009750:    00000000    ....    DCD    0
        0x00009754:    00000000    ....    DCD    0
        0x00009758:    00000000    ....    DCD    0
        0x0000975c:    0000004e    N...    DCD    78
        0x00009760:    42463941    A9FB    DCD    1111898433
        0x00009764:    42443735    57DB    DCD    1111766837
        0x00009768:    45453141    A1EE    DCD    1162162497
        0x0000976c:    43423941    A9BC    DCD    1128413505
        0x00009770:    36364533    3E66    DCD    909526323
        0x00009774:    30394130    0A90    DCD    809058608
        0x00009778:    33384439    9D83    DCD    859325497
        0x0000977c:    31374438    8D71    DCD    825705528
        0x00009780:    39334338    8C39    DCD    959660856
        0x00009784:    33414137    7AA3    DCD    859914551
        0x00009788:    31363542    B561    DCD    825636162
        0x0000978c:    37463641    A6F7    DCD    927348289
        0x00009790:    45313039    901E    DCD    1160851513
        0x00009794:    32384530    0E82    DCD    842548528
        0x00009798:    38343739    9748    DCD    942946105
        0x0000979c:    37413635    56A7    DCD    927020597
        0x000097a0:    00000000    ....    DCD    0
        0x000097a4:    00000000    ....    DCD    0
        0x000097a8:    00000000    ....    DCD    0
        0x000097ac:    00000000    ....    DCD    0
        0x000097b0:    00000000    ....    DCD    0
        0x000097b4:    00000000    ....    DCD    0
        0x000097b8:    00000000    ....    DCD    0
        0x000097bc:    00000000    ....    DCD    0
        0x000097c0:    00000000    ....    DCD    0
        0x000097c4:    00000000    ....    DCD    0
        0x000097c8:    00000000    ....    DCD    0
        0x000097cc:    00000000    ....    DCD    0
        0x000097d0:    00000000    ....    DCD    0
        0x000097d4:    00000000    ....    DCD    0
        0x000097d8:    00000000    ....    DCD    0
        0x000097dc:    00000000    ....    DCD    0
        0x000097e0:    00000000    ....    DCD    0
        0x000097e4:    00000000    ....    DCD    0
        0x000097e8:    00000000    ....    DCD    0
        0x000097ec:    00000000    ....    DCD    0
        0x000097f0:    00000000    ....    DCD    0
        0x000097f4:    00000000    ....    DCD    0
        0x000097f8:    00000000    ....    DCD    0
        0x000097fc:    00000000    ....    DCD    0
        0x00009800:    00000000    ....    DCD    0
        0x00009804:    00000000    ....    DCD    0
        0x00009808:    00000000    ....    DCD    0
        0x0000980c:    00000000    ....    DCD    0
        0x00009810:    00000100    ....    DCD    256
        0x00009814:    00000007    ....    DCD    7
        0x00009818:    00000002    ....    DCD    2
        0x0000981c:    00000001    ....    DCD    1
        0x00009820:    00000000    ....    DCD    0
        0x00009824:    00000013    ....    DCD    19
        0x00009828:    00000060    `...    DCD    96
        0x0000982c:    33434237    7BC3    DCD    860045879
        0x00009830:    36433238    82C6    DCD    910373432
        0x00009834:    43384433    3D8C    DCD    1127760947
        0x00009838:    43303531    150C    DCD    1127232817
        0x0000983c:    32374333    3C72    DCD    842482483
        0x00009840:    41303830    080A    DCD    1093679152
        0x00009844:    35304543    CE05    DCD    892355907
        0x00009848:    30414641    AFA0    DCD    809584193
        0x0000984c:    45423243    C2BE    DCD    1161966147
        0x00009850:    45383241    A28E    DCD    1161310785
        0x00009854:    32424634    4FB2    DCD    843204148
        0x00009858:    37383732    2787    DCD    926431026
        0x0000985c:    31393331    1391    DCD    825832241
        0x00009860:    46453536    65EF    DCD    1178940726
        0x00009864:    31394142    BA91    DCD    825835842
        0x00009868:    46303946    F90F    DCD    1177565510
        0x0000986c:    35414138    8AA5    DCD    893468984
        0x00009870:    41343138    814A    DCD    1093939512
        0x00009874:    41333035    503A    DCD    1093873717
        0x00009878:    42453444    D4EB    DCD    1111831620
        0x0000987c:    38413430    04A8    DCD    943797296
        0x00009880:    44443743    C7DD    DCD    1145321283
        0x00009884:    45433232    22CE    DCD    1162031666
        0x00009888:    36323832    2826    DCD    909260850
        0x0000988c:    00000000    ....    DCD    0
        0x00009890:    00000000    ....    DCD    0
        0x00009894:    00000000    ....    DCD    0
        0x00009898:    00000000    ....    DCD    0
        0x0000989c:    00000000    ....    DCD    0
        0x000098a0:    00000000    ....    DCD    0
        0x000098a4:    00000000    ....    DCD    0
        0x000098a8:    00000000    ....    DCD    0
        0x000098ac:    00000000    ....    DCD    0
        0x000098b0:    00000000    ....    DCD    0
        0x000098b4:    00000000    ....    DCD    0
        0x000098b8:    00000000    ....    DCD    0
        0x000098bc:    38413430    04A8    DCD    943797296
        0x000098c0:    44443743    C7DD    DCD    1145321283
        0x000098c4:    45433232    22CE    DCD    1162031666
        0x000098c8:    36323832    2826    DCD    909260850
        0x000098cc:    39334238    8B39    DCD    959660600
        0x000098d0:    34353542    B554    DCD    875902274
        0x000098d4:    30463631    16F0    DCD    809907761
        0x000098d8:    43373434    447C    DCD    1127691316
        0x000098dc:    37424632    2FB7    DCD    927090226
        0x000098e0:    31454437    7DE1    DCD    826623031
        0x000098e4:    43443730    07DC    DCD    1128544048
        0x000098e8:    36413244    D2A6    DCD    910242372
        0x000098ec:    38384532    2E88    DCD    943211826
        0x000098f0:    35414530    0EA5    DCD    893470000
        0x000098f4:    42454533    3EEB    DCD    1111835955
        0x000098f8:    35443236    62D5    DCD    893661750
        0x000098fc:    34424337    7CB4    DCD    876757815
        0x00009900:    32303933    3902    DCD    842021171
        0x00009904:    42443539    95DB    DCD    1111766329
        0x00009908:    34393943    C994    DCD    876165443
        0x0000990c:    37424133    3AB7    DCD    927088947
        0x00009910:    36393638    8696    DCD    909719096
        0x00009914:    30354146    FA50    DCD    808796486
        0x00009918:    31314334    4C11    DCD    825312052
        0x0000991c:    00000000    ....    DCD    0
        0x00009920:    00000000    ....    DCD    0
        0x00009924:    00000000    ....    DCD    0
        0x00009928:    00000000    ....    DCD    0
        0x0000992c:    00000000    ....    DCD    0
        0x00009930:    00000000    ....    DCD    0
        0x00009934:    00000000    ....    DCD    0
        0x00009938:    00000000    ....    DCD    0
        0x0000993c:    00000000    ....    DCD    0
        0x00009940:    00000000    ....    DCD    0
        0x00009944:    00000000    ....    DCD    0
        0x00009948:    00000000    ....    DCD    0
        0x0000994c:    43314431    1D1C    DCD    1127302193
        0x00009950:    30463436    64F0    DCD    809907254
        0x00009954:    46433836    68CF    DCD    1178810422
        0x00009958:    46463534    45FF    DCD    1179006260
        0x0000995c:    36413241    A2A6    DCD    910242369
        0x00009960:    31384133    3A81    DCD    825770291
        0x00009964:    31433742    B7C1    DCD    826488642
        0x00009968:    42364633    3F6B    DCD    1110853171
        0x0000996c:    37343838    8847    DCD    926169144
        0x00009970:    37453341    A3E7    DCD    927281985
        0x00009974:    31464537    7EF1    DCD    826688823
        0x00009978:    33454634    4FE3    DCD    860177972
        0x0000997c:    46374244    DB7F    DCD    1178026564
        0x00009980:    45464143    CAFE    DCD    1162232131
        0x00009984:    44424330    0CBD    DCD    1145193264
        0x00009988:    38453031    10E8    DCD    944058417
        0x0000998c:    36323845    E826    DCD    909260869
        0x00009990:    34333045    E034    DCD    875769925
        0x00009994:    36443633    36D6    DCD    910439987
        0x00009998:    41413634    46AA    DCD    1094792756
        0x0000999c:    37384645    EF87    DCD    926434885
        0x000099a0:    32453242    B2E2    DCD    843395650
        0x000099a4:    34443734    47D4    DCD    876885812
        0x000099a8:    45314641    AF1E    DCD    1160857153
        0x000099ac:    00000000    ....    DCD    0
        0x000099b0:    00000000    ....    DCD    0
        0x000099b4:    00000000    ....    DCD    0
        0x000099b8:    00000000    ....    DCD    0
        0x000099bc:    00000000    ....    DCD    0
        0x000099c0:    00000000    ....    DCD    0
        0x000099c4:    00000000    ....    DCD    0
        0x000099c8:    00000000    ....    DCD    0
        0x000099cc:    00000000    ....    DCD    0
        0x000099d0:    00000000    ....    DCD    0
        0x000099d4:    00000000    ....    DCD    0
        0x000099d8:    00000000    ....    DCD    0
        0x000099dc:    45424138    8ABE    DCD    1161969976
        0x000099e0:    35374431    1D75    DCD    892814385
        0x000099e4:    39463032    20F9    DCD    960901170
        0x000099e8:    34413243    C2A4    DCD    876687939
        0x000099ec:    31424335    5CB1    DCD    826426165
        0x000099f0:    45384245    EB8E    DCD    1161314885
        0x000099f4:    46433539    95CF    DCD    1178809657
        0x000099f8:    32353544    D552    DCD    842347844
        0x000099fc:    37423236    62B7    DCD    927085110
        0x00009a00:    39324230    0B29    DCD    959595056
        0x00009a04:    43454546    FEEC    DCD    1128613190
        0x00009a08:    34363835    5864    DCD    875968565
        0x00009a0c:    43393145    E19C    DCD    1127821637
        0x00009a10:    46343530    054F    DCD    1177826608
        0x00009a14:    31393946    F991    DCD    825833798
        0x00009a18:    38323932    2928    DCD    942815538
        0x00009a1c:    36344530    0E46    DCD    909395248
        0x00009a20:    31323634    4621    DCD    825374260
        0x00009a24:    31393737    7791    DCD    825833271
        0x00009a28:    31313138    8111    DCD    825307448
        0x00009a2c:    32383234    4282    DCD    842543668
        0x00009a30:    31343330    0341    DCD    825504560
        0x00009a34:    43333632    263C    DCD    1127429682
        0x00009a38:    35313335    5315    DCD    892416821
        0x00009a3c:    00000000    ....    DCD    0
        0x00009a40:    00000000    ....    DCD    0
        0x00009a44:    00000000    ....    DCD    0
        0x00009a48:    00000000    ....    DCD    0
        0x00009a4c:    00000000    ....    DCD    0
        0x00009a50:    00000000    ....    DCD    0
        0x00009a54:    00000000    ....    DCD    0
        0x00009a58:    00000000    ....    DCD    0
        0x00009a5c:    00000000    ....    DCD    0
        0x00009a60:    00000000    ....    DCD    0
        0x00009a64:    00000000    ....    DCD    0
        0x00009a68:    00000000    ....    DCD    0
        0x00009a6c:    00000074    t...    DCD    116
        0x00009a70:    39424338    8CB9    DCD    960643896
        0x00009a74:    32384531    1E82    DCD    842548529
        0x00009a78:    38333341    A338    DCD    942879553
        0x00009a7c:    38324436    6D28    DCD    942818358
        0x00009a80:    44354630    0F5D    DCD    1144342064
        0x00009a84:    45374636    6F7E    DCD    1161250358
        0x00009a88:    36453035    50E6    DCD    910503989
        0x00009a8c:    46443134    41DF    DCD    1178874164
        0x00009a90:    46323531    152F    DCD    1177695537
        0x00009a94:    39303137    7109    DCD    959459639
        0x00009a98:    34354445    ED54    DCD    875906117
        0x00009a9c:    34423635    56B4    DCD    876754485
        0x00009aa0:    31423231    12B1    DCD    826421809
        0x00009aa4:    39314144    DA19    DCD    959529284
        0x00009aa8:    37424637    7FB7    DCD    927090231
        0x00009aac:    33323131    1123    DCD    858927409
        0x00009ab0:    33444341    ACD3    DCD    860111681
        0x00009ab4:    39323741    A729    DCD    959592257
        0x00009ab8:    44313039    901D    DCD    1144074297
        0x00009abc:    31374131    1A71    DCD    825704753
        0x00009ac0:    37343738    8747    DCD    926168888
        0x00009ac4:    33313030    0013    DCD    858861616
        0x00009ac8:    37303133    3107    DCD    925905203
        0x00009acc:    33354345    EC53    DCD    859128645
        0x00009ad0:    00000000    ....    DCD    0
        0x00009ad4:    00000000    ....    DCD    0
        0x00009ad8:    00000000    ....    DCD    0
        0x00009adc:    00000000    ....    DCD    0
        0x00009ae0:    00000000    ....    DCD    0
        0x00009ae4:    00000000    ....    DCD    0
        0x00009ae8:    00000000    ....    DCD    0
        0x00009aec:    00000000    ....    DCD    0
        0x00009af0:    00000000    ....    DCD    0
        0x00009af4:    00000000    ....    DCD    0
        0x00009af8:    00000000    ....    DCD    0
        0x00009afc:    00000000    ....    DCD    0
        0x00009b00:    00000000    ....    DCD    0
        0x00009b04:    00000000    ....    DCD    0
        0x00009b08:    00000000    ....    DCD    0
        0x00009b0c:    00000000    ....    DCD    0
        0x00009b10:    00000000    ....    DCD    0
        0x00009b14:    00000000    ....    DCD    0
        0x00009b18:    00000000    ....    DCD    0
        0x00009b1c:    00000000    ....    DCD    0
        0x00009b20:    00000074    t...    DCD    116
        0x00009b24:    39424338    8CB9    DCD    960643896
        0x00009b28:    32384531    1E82    DCD    842548529
        0x00009b2c:    38333341    A338    DCD    942879553
        0x00009b30:    38324436    6D28    DCD    942818358
        0x00009b34:    44354630    0F5D    DCD    1144342064
        0x00009b38:    45374636    6F7E    DCD    1161250358
        0x00009b3c:    36453035    50E6    DCD    910503989
        0x00009b40:    46443134    41DF    DCD    1178874164
        0x00009b44:    46323531    152F    DCD    1177695537
        0x00009b48:    39303137    7109    DCD    959459639
        0x00009b4c:    34354445    ED54    DCD    875906117
        0x00009b50:    33423635    56B3    DCD    859977269
        0x00009b54:    36314631    1F16    DCD    909198897
        0x00009b58:    43364536    6E6C    DCD    1127630134
        0x00009b5c:    34304341    AC04    DCD    875578177
        0x00009b60:    37413532    25A7    DCD    927020338
        0x00009b64:    41334643    CF3A    DCD    1093879363
        0x00009b68:    46413642    B6AF    DCD    1178678850
        0x00009b6c:    46374236    6B7F    DCD    1178026550
        0x00009b70:    30313343    C310    DCD    808530755
        0x00009b74:    38384233    3B88    DCD    943211059
        0x00009b78:    32303233    3202    DCD    842019379
        0x00009b7c:    34303945    E904    DCD    875575621
        0x00009b80:    35363536    6565    DCD    892745014
        0x00009b84:    00000000    ....    DCD    0
        0x00009b88:    00000000    ....    DCD    0
        0x00009b8c:    00000000    ....    DCD    0
        0x00009b90:    00000000    ....    DCD    0
        0x00009b94:    00000000    ....    DCD    0
        0x00009b98:    00000000    ....    DCD    0
        0x00009b9c:    00000000    ....    DCD    0
        0x00009ba0:    00000000    ....    DCD    0
        0x00009ba4:    00000000    ....    DCD    0
        0x00009ba8:    00000000    ....    DCD    0
        0x00009bac:    00000000    ....    DCD    0
        0x00009bb0:    00000000    ....    DCD    0
        0x00009bb4:    00000000    ....    DCD    0
        0x00009bb8:    00000000    ....    DCD    0
        0x00009bbc:    00000000    ....    DCD    0
        0x00009bc0:    00000000    ....    DCD    0
        0x00009bc4:    00000000    ....    DCD    0
        0x00009bc8:    00000000    ....    DCD    0
        0x00009bcc:    00000000    ....    DCD    0
        0x00009bd0:    00000000    ....    DCD    0
        0x00009bd4:    00000180    ....    DCD    384
        0x00009bd8:    00000007    ....    DCD    7
        0x00009bdc:    00000002    ....    DCD    2
        0x00009be0:    00000001    ....    DCD    1
        0x00009be4:    00000000    ....    DCD    0
        0x00009be8:    00000014    ....    DCD    20
        0x00009bec:    00000080    ....    DCD    128
        0x00009bf0:    30333837    7830    DCD    808663095
        0x00009bf4:    31333341    A331    DCD    825439041
        0x00009bf8:    30364238    8B60    DCD    808862264
        0x00009bfc:    39384233    3B89    DCD    959988275
        0x00009c00:    32333245    E232    DCD    842216005
        0x00009c04:    35343137    7145    DCD    892612919
        0x00009c08:    33324341    AC23    DCD    858932033
        0x00009c0c:    35434334    4CC5    DCD    893600564
        0x00009c10:    42433439    94CB    DCD    1111700537
        0x00009c14:    44384444    DD8D    DCD    1144538180
        0x00009c18:    39464433    3DF9    DCD    960906291
        0x00009c1c:    30313631    1610    DCD    808531505
        0x00009c20:    34333841    A834    DCD    875771969
        0x00009c24:    41433134    41CA    DCD    1094922548
        0x00009c28:    38394145    EA98    DCD    943276357
        0x00009c2c:    43423336    63BC    DCD    1128411958
        0x00009c30:    44454432    2DED    DCD    1145390130
        0x00009c34:    41354435    5D5A    DCD    1094009909
        0x00009c38:    35323841    A825    DCD    892483649
        0x00009c3c:    31414133    3AA1    DCD    826360115
        0x00009c40:    45324130    0A2E    DCD    1160921392
        0x00009c44:    39433146    F1C9    DCD    960704838
        0x00009c48:    41394238    8B9A    DCD    1094271544
        0x00009c4c:    35423843    C8B5    DCD    893532227
        0x00009c50:    31314637    7F11    DCD    825312823
        0x00009c54:    37413731    17A7    DCD    927020849
        0x00009c58:    32464232    2BF2    DCD    843465266
        0x00009c5c:    39423743    C7B9    DCD    960640835
        0x00009c60:    31433745    E7C1    DCD    826488645
        0x00009c64:    44344341    AC4D    DCD    1144275777
        0x00009c68:    43463737    77FC    DCD    1128675127
        0x00009c6c:    41433439    94CA    DCD    1094923321
        0x00009c70:    00000000    ....    DCD    0
        0x00009c74:    00000000    ....    DCD    0
        0x00009c78:    00000000    ....    DCD    0
        0x00009c7c:    00000000    ....    DCD    0
        0x00009c80:    39464433    3DF9    DCD    960906291
        0x00009c84:    30313631    1610    DCD    808531505
        0x00009c88:    34333841    A834    DCD    875771969
        0x00009c8c:    41433134    41CA    DCD    1094922548
        0x00009c90:    38394145    EA98    DCD    943276357
        0x00009c94:    43423336    63BC    DCD    1128411958
        0x00009c98:    44454432    2DED    DCD    1145390130
        0x00009c9c:    41354435    5D5A    DCD    1094009909
        0x00009ca0:    35323841    A825    DCD    892483649
        0x00009ca4:    31414133    3AA1    DCD    826360115
        0x00009ca8:    45324130    0A2E    DCD    1160921392
        0x00009cac:    39433146    F1C9    DCD    960704838
        0x00009cb0:    41394238    8B9A    DCD    1094271544
        0x00009cb4:    35423843    C8B5    DCD    893532227
        0x00009cb8:    31314637    7F11    DCD    825312823
        0x00009cbc:    37413731    17A7    DCD    927020849
        0x00009cc0:    32464232    2BF2    DCD    843465266
        0x00009cc4:    39423743    C7B9    DCD    960640835
        0x00009cc8:    31433745    E7C1    DCD    826488645
        0x00009ccc:    44344341    AC4D    DCD    1144275777
        0x00009cd0:    43463737    77FC    DCD    1128675127
        0x00009cd4:    41433439    94CA    DCD    1094923321
        0x00009cd8:    38304344    DC08    DCD    942687044
        0x00009cdc:    37364533    3E67    DCD    926303539
        0x00009ce0:    30343839    9840    DCD    808728633
        0x00009ce4:    37423035    50B7    DCD    927084597
        0x00009ce8:    41424535    5EBA    DCD    1094862133
        0x00009cec:    44443545    E5DD    DCD    1145320773
        0x00009cf0:    39303832    2809    DCD    959461426
        0x00009cf4:    33364442    BD63    DCD    859194434
        0x00009cf8:    36313038    8016    DCD    909193272
        0x00009cfc:    33323746    F723    DCD    858928966
        0x00009d00:    00000000    ....    DCD    0
        0x00009d04:    00000000    ....    DCD    0
        0x00009d08:    00000000    ....    DCD    0
        0x00009d0c:    00000000    ....    DCD    0
        0x00009d10:    45413138    81AE    DCD    1161900344
        0x00009d14:    44423445    E4BD    DCD    1145189445
        0x00009d18:    45323844    D82E    DCD    1160919108
        0x00009d1c:    34363944    D964    DCD    875968836
        0x00009d20:    31324135    5A21    DCD    825377077
        0x00009d24:    45323233    322E    DCD    1160917555
        0x00009d28:    43344339    9C4C    DCD    1127498553
        0x00009d2c:    33394136    6A93    DCD    859390262
        0x00009d30:    44453538    85ED    DCD    1145386296
        0x00009d34:    30374639    9F70    DCD    808928825
        0x00009d38:    39443542    B5D9    DCD    960771394
        0x00009d3c:    31433631    16C1    DCD    826488369
        0x00009d40:    42333442    B43B    DCD    1110651970
        0x00009d44:    45453236    62EE    DCD    1162162742
        0x00009d48:    30443446    F4D0    DCD    809776198
        0x00009d4c:    45383930    098E    DCD    1161312560
        0x00009d50:    42334646    FF3B    DCD    1110656582
        0x00009d54:    38374631    1F78    DCD    943146545
        0x00009d58:    30443245    E2D0    DCD    809775685
        0x00009d5c:    44383444    D48D    DCD    1144534084
        0x00009d60:    31443035    50D1    DCD    826552373
        0x00009d64:    42373836    687B    DCD    1110915126
        0x00009d68:    39423339    93B9    DCD    960639801
        0x00009d6c:    46354437    7D5F    DCD    1177895991
        0x00009d70:    44364337    7C6D    DCD    1144406839
        0x00009d74:    37343035    5047    DCD    926167093
        0x00009d78:    41363034    406A    DCD    1094070324
        0x00009d7c:    38364535    5E68    DCD    943080757
        0x00009d80:    35334238    8B35    DCD    892551736
        0x00009d84:    39303232    2209    DCD    959459890
        0x00009d88:    39424342    BCB9    DCD    960643906
        0x00009d8c:    32323846    F822    DCD    842152006
        0x00009d90:    00000000    ....    DCD    0
        0x00009d94:    00000000    ....    DCD    0
        0x00009d98:    00000000    ....    DCD    0
        0x00009d9c:    00000000    ....    DCD    0
        0x00009da0:    45444437    7DDE    DCD    1162101815
        0x00009da4:    44353833    385D    DCD    1144338483
        0x00009da8:    33363635    5663    DCD    859190837
        0x00009dac:    43453233    32EC    DCD    1128608307
        0x00009db0:    41453043    C0EA    DCD    1095053379
        0x00009db4:    39414642    BFA9    DCD    960579138
        0x00009db8:    38374643    CF78    DCD    943146563
        0x00009dbc:    44463232    22FD    DCD    1145451058
        0x00009dc0:    39303246    F209    DCD    959459910
        0x00009dc4:    30303746    F700    DCD    808466246
        0x00009dc8:    35413432    24A5    DCD    893465650
        0x00009dcc:    41314237    7B1A    DCD    1093747255
        0x00009dd0:    30303041    A000    DCD    808464449
        0x00009dd4:    42353543    C55B    DCD    1110783299
        0x00009dd8:    46313838    881F    DCD    1177630776
        0x00009ddc:    31313138    8111    DCD    825307448
        0x00009de0:    43443242    B2DC    DCD    1128542786
        0x00009de4:    39344544    DE49    DCD    959726916
        0x00009de8:    46354134    4A5F    DCD    1177895220
        0x00009dec:    45353834    485E    DCD    1161115700
        0x00009df0:    41434235    5BCA    DCD    1094926901
        0x00009df4:    38444234    4BD8    DCD    943997492
        0x00009df8:    37324138    8A27    DCD    926040376
        0x00009dfc:    45413336    63AE    DCD    1161900854
        0x00009e00:    41433144    D1CA    DCD    1094922564
        0x00009e04:    46324232    2B2F    DCD    1177698866
        0x00009e08:    30463841    A8F0    DCD    809908289
        0x00009e0c:    36303435    5406    DCD    909128757
        0x00009e10:    44433837    78CD    DCD    1145255991
        0x00009e14:    46304531    1E0F    DCD    1177568561
        0x00009e18:    38444133    3AD8    DCD    943997235
        0x00009e1c:    32393830    0892    DCD    842610736
        0x00009e20:    00000000    ....    DCD    0
        0x00009e24:    00000000    ....    DCD    0
        0x00009e28:    00000000    ....    DCD    0
        0x00009e2c:    00000000    ....    DCD    0
        0x00009e30:    0000009c    ....    DCD    156
        0x00009e34:    44444141    AADD    DCD    1145323841
        0x00009e38:    38424439    9DB8    DCD    943866937
        0x00009e3c:    39454244    DBE9    DCD    960840260
        0x00009e40:    42383443    C48B    DCD    1110979651
        0x00009e44:    34444633    3FD4    DCD    876889651
        0x00009e48:    45413645    E6AE    DCD    1161901637
        0x00009e4c:    39433333    33C9    DCD    960705331
        0x00009e50:    37304346    FC07    DCD    925909830
        0x00009e54:    30334243    CB30    DCD    808665667
        0x00009e58:    33424438    8DB3    DCD    859980856
        0x00009e5c:    39433342    B3C9    DCD    960705346
        0x00009e60:    45303244    D20E    DCD    1160786500
        0x00009e64:    33363644    D663    DCD    859190852
        0x00009e68:    41434339    9CCA    DCD    1094927161
        0x00009e6c:    33333037    7033    DCD    858992695
        0x00009e70:    31373830    0871    DCD    825702448
        0x00009e74:    44344437    7D4D    DCD    1144276023
        0x00009e78:    30304239    9B00    DCD    808469049
        0x00009e7c:    36434239    9BC6    DCD    910377529
        0x00009e80:    32343836    6842    DCD    842283062
        0x00009e84:    44434541    AECD    DCD    1145259329
        0x00009e88:    41323141    A12A    DCD    1093808449
        0x00009e8c:    33413645    E6A3    DCD    859911749
        0x00009e90:    36453038    80E6    DCD    910503992
        0x00009e94:    31383832    2881    DCD    825767986
        0x00009e98:    46324646    FF2F    DCD    1177699910
        0x00009e9c:    32384432    2D82    DCD    842548274
        0x00009ea0:    35383643    C685    DCD    892876355
        0x00009ea4:    41413832    28AA    DCD    1094793266
        0x00009ea8:    36353036    6056    DCD    909455414
        0x00009eac:    41333835    583A    DCD    1093875765
        0x00009eb0:    33463834    48F3    DCD    860239924
        0x00009eb4:    00000000    ....    DCD    0
        0x00009eb8:    00000000    ....    DCD    0
        0x00009ebc:    00000000    ....    DCD    0
        0x00009ec0:    00000000    ....    DCD    0
        0x00009ec4:    00000000    ....    DCD    0
        0x00009ec8:    00000000    ....    DCD    0
        0x00009ecc:    00000000    ....    DCD    0
        0x00009ed0:    00000000    ....    DCD    0
        0x00009ed4:    00000000    ....    DCD    0
        0x00009ed8:    00000000    ....    DCD    0
        0x00009edc:    00000000    ....    DCD    0
        0x00009ee0:    00000000    ....    DCD    0
        0x00009ee4:    0000009c    ....    DCD    156
        0x00009ee8:    44444141    AADD    DCD    1145323841
        0x00009eec:    38424439    9DB8    DCD    943866937
        0x00009ef0:    39454244    DBE9    DCD    960840260
        0x00009ef4:    42383443    C48B    DCD    1110979651
        0x00009ef8:    34444633    3FD4    DCD    876889651
        0x00009efc:    45413645    E6AE    DCD    1161901637
        0x00009f00:    39433333    33C9    DCD    960705331
        0x00009f04:    37304346    FC07    DCD    925909830
        0x00009f08:    30334243    CB30    DCD    808665667
        0x00009f0c:    33424438    8DB3    DCD    859980856
        0x00009f10:    39433342    B3C9    DCD    960705346
        0x00009f14:    45303244    D20E    DCD    1160786500
        0x00009f18:    33363644    D663    DCD    859190852
        0x00009f1c:    41434339    9CCA    DCD    1094927161
        0x00009f20:    33333037    7033    DCD    858992695
        0x00009f24:    30373830    0870    DCD    808925232
        0x00009f28:    45333535    553E    DCD    1160983861
        0x00009f2c:    31344335    5C41    DCD    825508661
        0x00009f30:    39414334    4CA9    DCD    960578356
        0x00009f34:    39313632    2619    DCD    959526450
        0x00009f38:    36383134    4186    DCD    909652276
        0x00009f3c:    39313136    6119    DCD    959525174
        0x00009f40:    43414637    7FAC    DCD    1128351287
        0x00009f44:    37343031    1047    DCD    926167089
        0x00009f48:    31424431    1DB1    DCD    826426417
        0x00009f4c:    31383344    D381    DCD    825766724
        0x00009f50:    44353830    085D    DCD    1144338480
        0x00009f54:    44444144    DADD    DCD    1145323844
        0x00009f58:    37383542    B587    DCD    926430530
        0x00009f5c:    32383639    9682    DCD    842544697
        0x00009f60:    39414339    9CA9    DCD    960578361
        0x00009f64:    39363030    0069    DCD    959852592
        0x00009f68:    00000000    ....    DCD    0
        0x00009f6c:    00000000    ....    DCD    0
        0x00009f70:    00000000    ....    DCD    0
        0x00009f74:    00000000    ....    DCD    0
        0x00009f78:    00000000    ....    DCD    0
        0x00009f7c:    00000000    ....    DCD    0
        0x00009f80:    00000000    ....    DCD    0
        0x00009f84:    00000000    ....    DCD    0
        0x00009f88:    00000000    ....    DCD    0
        0x00009f8c:    00000000    ....    DCD    0
        0x00009f90:    00000000    ....    DCD    0
        0x00009f94:    00000000    ....    DCD    0
        0x00009f98:    00000200    ....    DCD    512
        0x00009f9c:    00000007    ....    DCD    7
        0x00009fa0:    00000002    ....    DCD    2
        0x00009fa4:    00000001    ....    DCD    1
        0x00009fa8:    00000000    ....    DCD    0
        0x00009fac:    00000015    ....    DCD    21
        0x00009fb0:    00000040    @...    DCD    64
        0x00009fb4:    30303030    0000    DCD    808464432
        0x00009fb8:    30303030    0000    DCD    808464432
        0x00009fbc:    30303030    0000    DCD    808464432
        0x00009fc0:    30303030    0000    DCD    808464432
        0x00009fc4:    30303030    0000    DCD    808464432
        0x00009fc8:    30303030    0000    DCD    808464432
        0x00009fcc:    30303030    0000    DCD    808464432
        0x00009fd0:    30303030    0000    DCD    808464432
        0x00009fd4:    30303030    0000    DCD    808464432
        0x00009fd8:    30303030    0000    DCD    808464432
        0x00009fdc:    30303030    0000    DCD    808464432
        0x00009fe0:    30303030    0000    DCD    808464432
        0x00009fe4:    30303030    0000    DCD    808464432
        0x00009fe8:    30303030    0000    DCD    808464432
        0x00009fec:    37303030    0007    DCD    925904944
        0x00009ff0:    36304436    6D06    DCD    909132854
        0x00009ff4:    00000000    ....    DCD    0
        0x00009ff8:    00000000    ....    DCD    0
        0x00009ffc:    00000000    ....    DCD    0
        0x0000a000:    00000000    ....    DCD    0
        0x0000a004:    00000000    ....    DCD    0
        0x0000a008:    00000000    ....    DCD    0
        0x0000a00c:    00000000    ....    DCD    0
        0x0000a010:    00000000    ....    DCD    0
        0x0000a014:    00000000    ....    DCD    0
        0x0000a018:    00000000    ....    DCD    0
        0x0000a01c:    00000000    ....    DCD    0
        0x0000a020:    00000000    ....    DCD    0
        0x0000a024:    00000000    ....    DCD    0
        0x0000a028:    00000000    ....    DCD    0
        0x0000a02c:    00000000    ....    DCD    0
        0x0000a030:    00000000    ....    DCD    0
        0x0000a034:    00000000    ....    DCD    0
        0x0000a038:    00000000    ....    DCD    0
        0x0000a03c:    00000000    ....    DCD    0
        0x0000a040:    00000000    ....    DCD    0
        0x0000a044:    30303030    0000    DCD    808464432
        0x0000a048:    30303030    0000    DCD    808464432
        0x0000a04c:    30303030    0000    DCD    808464432
        0x0000a050:    30303030    0000    DCD    808464432
        0x0000a054:    30303030    0000    DCD    808464432
        0x0000a058:    30303030    0000    DCD    808464432
        0x0000a05c:    30303030    0000    DCD    808464432
        0x0000a060:    30303030    0000    DCD    808464432
        0x0000a064:    30303030    0000    DCD    808464432
        0x0000a068:    30303030    0000    DCD    808464432
        0x0000a06c:    30303030    0000    DCD    808464432
        0x0000a070:    30303030    0000    DCD    808464432
        0x0000a074:    30303030    0000    DCD    808464432
        0x0000a078:    30303030    0000    DCD    808464432
        0x0000a07c:    30303030    0000    DCD    808464432
        0x0000a080:    31303030    0001    DCD    825241648
        0x0000a084:    00000000    ....    DCD    0
        0x0000a088:    00000000    ....    DCD    0
        0x0000a08c:    00000000    ....    DCD    0
        0x0000a090:    00000000    ....    DCD    0
        0x0000a094:    00000000    ....    DCD    0
        0x0000a098:    00000000    ....    DCD    0
        0x0000a09c:    00000000    ....    DCD    0
        0x0000a0a0:    00000000    ....    DCD    0
        0x0000a0a4:    00000000    ....    DCD    0
        0x0000a0a8:    00000000    ....    DCD    0
        0x0000a0ac:    00000000    ....    DCD    0
        0x0000a0b0:    00000000    ....    DCD    0
        0x0000a0b4:    00000000    ....    DCD    0
        0x0000a0b8:    00000000    ....    DCD    0
        0x0000a0bc:    00000000    ....    DCD    0
        0x0000a0c0:    00000000    ....    DCD    0
        0x0000a0c4:    00000000    ....    DCD    0
        0x0000a0c8:    00000000    ....    DCD    0
        0x0000a0cc:    00000000    ....    DCD    0
        0x0000a0d0:    00000000    ....    DCD    0
        0x0000a0d4:    30303030    0000    DCD    808464432
        0x0000a0d8:    30303030    0000    DCD    808464432
        0x0000a0dc:    30303030    0000    DCD    808464432
        0x0000a0e0:    30303030    0000    DCD    808464432
        0x0000a0e4:    30303030    0000    DCD    808464432
        0x0000a0e8:    30303030    0000    DCD    808464432
        0x0000a0ec:    30303030    0000    DCD    808464432
        0x0000a0f0:    30303030    0000    DCD    808464432
        0x0000a0f4:    30303030    0000    DCD    808464432
        0x0000a0f8:    30303030    0000    DCD    808464432
        0x0000a0fc:    30303030    0000    DCD    808464432
        0x0000a100:    30303030    0000    DCD    808464432
        0x0000a104:    30303030    0000    DCD    808464432
        0x0000a108:    30303030    0000    DCD    808464432
        0x0000a10c:    30303030    0000    DCD    808464432
        0x0000a110:    39303030    0009    DCD    959459376
        0x0000a114:    00000000    ....    DCD    0
        0x0000a118:    00000000    ....    DCD    0
        0x0000a11c:    00000000    ....    DCD    0
        0x0000a120:    00000000    ....    DCD    0
        0x0000a124:    00000000    ....    DCD    0
        0x0000a128:    00000000    ....    DCD    0
        0x0000a12c:    00000000    ....    DCD    0
        0x0000a130:    00000000    ....    DCD    0
        0x0000a134:    00000000    ....    DCD    0
        0x0000a138:    00000000    ....    DCD    0
        0x0000a13c:    00000000    ....    DCD    0
        0x0000a140:    00000000    ....    DCD    0
        0x0000a144:    00000000    ....    DCD    0
        0x0000a148:    00000000    ....    DCD    0
        0x0000a14c:    00000000    ....    DCD    0
        0x0000a150:    00000000    ....    DCD    0
        0x0000a154:    00000000    ....    DCD    0
        0x0000a158:    00000000    ....    DCD    0
        0x0000a15c:    00000000    ....    DCD    0
        0x0000a160:    00000000    ....    DCD    0
        0x0000a164:    65613032    20ae    DCD    1700868146
        0x0000a168:    31613931    19a1    DCD    828455217
        0x0000a16c:    30613862    b8a0    DCD    811677794
        0x0000a170:    34623638    86b4    DCD    878851640
        0x0000a174:    65313065    e01e    DCD    1697722469
        0x0000a178:    63326464    dd2c    DCD    1664246884
        0x0000a17c:    38343737    7748    DCD    942946103
        0x0000a180:    63343164    d14c    DCD    1664364900
        0x0000a184:    64333239    923d    DCD    1681076793
        0x0000a188:    65376434    4d7e    DCD    1698128948
        0x0000a18c:    63376436    6d7c    DCD    1664574518
        0x0000a190:    32623136    61b2    DCD    845295926
        0x0000a194:    39653932    29e9    DCD    962935090
        0x0000a198:    32613563    c5a2    DCD    845231459
        0x0000a19c:    65636537    7ece    DCD    1701012791
        0x0000a1a0:    39643364    d3d9    DCD    962868068
        0x0000a1a4:    00000000    ....    DCD    0
        0x0000a1a8:    00000000    ....    DCD    0
        0x0000a1ac:    00000000    ....    DCD    0
        0x0000a1b0:    00000000    ....    DCD    0
        0x0000a1b4:    00000000    ....    DCD    0
        0x0000a1b8:    00000000    ....    DCD    0
        0x0000a1bc:    00000000    ....    DCD    0
        0x0000a1c0:    00000000    ....    DCD    0
        0x0000a1c4:    00000000    ....    DCD    0
        0x0000a1c8:    00000000    ....    DCD    0
        0x0000a1cc:    00000000    ....    DCD    0
        0x0000a1d0:    00000000    ....    DCD    0
        0x0000a1d4:    00000000    ....    DCD    0
        0x0000a1d8:    00000000    ....    DCD    0
        0x0000a1dc:    00000000    ....    DCD    0
        0x0000a1e0:    00000000    ....    DCD    0
        0x0000a1e4:    00000000    ....    DCD    0
        0x0000a1e8:    00000000    ....    DCD    0
        0x0000a1ec:    00000000    ....    DCD    0
        0x0000a1f0:    00000000    ....    DCD    0
        0x0000a1f4:    0000004e    N...    DCD    78
        0x0000a1f8:    66666637    7fff    DCD    1717986871
        0x0000a1fc:    66666666    ffff    DCD    1717986918
        0x0000a200:    66666666    ffff    DCD    1717986918
        0x0000a204:    66666666    ffff    DCD    1717986918
        0x0000a208:    66666666    ffff    DCD    1717986918
        0x0000a20c:    66666666    ffff    DCD    1717986918
        0x0000a210:    66666666    ffff    DCD    1717986918
        0x0000a214:    66666666    ffff    DCD    1717986918
        0x0000a218:    66666666    ffff    DCD    1717986918
        0x0000a21c:    66666666    ffff    DCD    1717986918
        0x0000a220:    66666666    ffff    DCD    1717986918
        0x0000a224:    66666666    ffff    DCD    1717986918
        0x0000a228:    66666666    ffff    DCD    1717986918
        0x0000a22c:    66666666    ffff    DCD    1717986918
        0x0000a230:    66666666    ffff    DCD    1717986918
        0x0000a234:    64656666    ffed    DCD    1684366950
        0x0000a238:    00000000    ....    DCD    0
        0x0000a23c:    00000000    ....    DCD    0
        0x0000a240:    00000000    ....    DCD    0
        0x0000a244:    00000000    ....    DCD    0
        0x0000a248:    00000000    ....    DCD    0
        0x0000a24c:    00000000    ....    DCD    0
        0x0000a250:    00000000    ....    DCD    0
        0x0000a254:    00000000    ....    DCD    0
        0x0000a258:    00000000    ....    DCD    0
        0x0000a25c:    00000000    ....    DCD    0
        0x0000a260:    00000000    ....    DCD    0
        0x0000a264:    00000000    ....    DCD    0
        0x0000a268:    00000000    ....    DCD    0
        0x0000a26c:    00000000    ....    DCD    0
        0x0000a270:    00000000    ....    DCD    0
        0x0000a274:    00000000    ....    DCD    0
        0x0000a278:    00000000    ....    DCD    0
        0x0000a27c:    00000000    ....    DCD    0
        0x0000a280:    00000000    ....    DCD    0
        0x0000a284:    00000000    ....    DCD    0
        0x0000a288:    00000000    ....    DCD    0
        0x0000a28c:    00000000    ....    DCD    0
        0x0000a290:    00000000    ....    DCD    0
        0x0000a294:    00000000    ....    DCD    0
        0x0000a298:    00000000    ....    DCD    0
        0x0000a29c:    00000000    ....    DCD    0
        0x0000a2a0:    00000000    ....    DCD    0
        0x0000a2a4:    00000000    ....    DCD    0
        0x0000a2a8:    0000004e    N...    DCD    78
        0x0000a2ac:    30303031    1000    DCD    808464433
        0x0000a2b0:    30303030    0000    DCD    808464432
        0x0000a2b4:    30303030    0000    DCD    808464432
        0x0000a2b8:    30303030    0000    DCD    808464432
        0x0000a2bc:    30303030    0000    DCD    808464432
        0x0000a2c0:    30303030    0000    DCD    808464432
        0x0000a2c4:    30303030    0000    DCD    808464432
        0x0000a2c8:    30303030    0000    DCD    808464432
        0x0000a2cc:    65643431    14de    DCD    1701065777
        0x0000a2d0:    65643966    f9de    DCD    1701067110
        0x0000a2d4:    37663261    a2f7    DCD    929444449
        0x0000a2d8:    36646339    9cd6    DCD    912548665
        0x0000a2dc:    32313835    5812    DCD    842086453
        0x0000a2e0:    61313336    631a    DCD    1630614326
        0x0000a2e4:    35666335    5cf5    DCD    895902517
        0x0000a2e8:    64653364    d3ed    DCD    1684353892
        0x0000a2ec:    00000000    ....    DCD    0
        0x0000a2f0:    00000000    ....    DCD    0
        0x0000a2f4:    00000000    ....    DCD    0
        0x0000a2f8:    00000000    ....    DCD    0
        0x0000a2fc:    00000000    ....    DCD    0
        0x0000a300:    00000000    ....    DCD    0
        0x0000a304:    00000000    ....    DCD    0
        0x0000a308:    00000000    ....    DCD    0
        0x0000a30c:    00000000    ....    DCD    0
        0x0000a310:    00000000    ....    DCD    0
        0x0000a314:    00000000    ....    DCD    0
        0x0000a318:    00000000    ....    DCD    0
        0x0000a31c:    00000000    ....    DCD    0
        0x0000a320:    00000000    ....    DCD    0
        0x0000a324:    00000000    ....    DCD    0
        0x0000a328:    00000000    ....    DCD    0
        0x0000a32c:    00000000    ....    DCD    0
        0x0000a330:    00000000    ....    DCD    0
        0x0000a334:    00000000    ....    DCD    0
        0x0000a338:    00000000    ....    DCD    0
        0x0000a33c:    00000000    ....    DCD    0
        0x0000a340:    00000000    ....    DCD    0
        0x0000a344:    00000000    ....    DCD    0
        0x0000a348:    00000000    ....    DCD    0
        0x0000a34c:    00000000    ....    DCD    0
        0x0000a350:    00000000    ....    DCD    0
        0x0000a354:    00000000    ....    DCD    0
        0x0000a358:    00000000    ....    DCD    0
        0x0000a35c:    000000ff    ....    DCD    255
        0x0000a360:    0000000a    ....    DCD    10
        0x0000a364:    00000005    ....    DCD    5
        0x0000a368:    00000002    ....    DCD    2
        0x0000a36c:    00000000    ....    DCD    0
        0x0000a370:    00000016    ....    DCD    22
        0x0000a374:    00000040    @...    DCD    64
        0x0000a378:    46464646    FFFF    DCD    1179010630
        0x0000a37c:    45464646    FFFE    DCD    1162233414
        0x0000a380:    46464646    FFFF    DCD    1179010630
        0x0000a384:    46464646    FFFF    DCD    1179010630
        0x0000a388:    46464646    FFFF    DCD    1179010630
        0x0000a38c:    46464646    FFFF    DCD    1179010630
        0x0000a390:    46464646    FFFF    DCD    1179010630
        0x0000a394:    46464646    FFFF    DCD    1179010630
        0x0000a398:    46464646    FFFF    DCD    1179010630
        0x0000a39c:    46464646    FFFF    DCD    1179010630
        0x0000a3a0:    30303030    0000    DCD    808464432
        0x0000a3a4:    30303030    0000    DCD    808464432
        0x0000a3a8:    46464646    FFFF    DCD    1179010630
        0x0000a3ac:    46464646    FFFF    DCD    1179010630
        0x0000a3b0:    46464646    FFFF    DCD    1179010630
        0x0000a3b4:    43464646    FFFC    DCD    1128678982
        0x0000a3b8:    00000000    ....    DCD    0
        0x0000a3bc:    00000000    ....    DCD    0
        0x0000a3c0:    00000000    ....    DCD    0
        0x0000a3c4:    00000000    ....    DCD    0
        0x0000a3c8:    00000000    ....    DCD    0
        0x0000a3cc:    00000000    ....    DCD    0
        0x0000a3d0:    00000000    ....    DCD    0
        0x0000a3d4:    00000000    ....    DCD    0
        0x0000a3d8:    00000000    ....    DCD    0
        0x0000a3dc:    00000000    ....    DCD    0
        0x0000a3e0:    00000000    ....    DCD    0
        0x0000a3e4:    00000000    ....    DCD    0
        0x0000a3e8:    00000000    ....    DCD    0
        0x0000a3ec:    00000000    ....    DCD    0
        0x0000a3f0:    00000000    ....    DCD    0
        0x0000a3f4:    00000000    ....    DCD    0
        0x0000a3f8:    00000000    ....    DCD    0
        0x0000a3fc:    00000000    ....    DCD    0
        0x0000a400:    00000000    ....    DCD    0
        0x0000a404:    00000000    ....    DCD    0
        0x0000a408:    39453832    28E9    DCD    960837682
        0x0000a40c:    45394146    FA9E    DCD    1161380166
        0x0000a410:    46394439    9D9F    DCD    1178158137
        0x0000a414:    34334535    5E34    DCD    875775285
        0x0000a418:    41354434    4D5A    DCD    1094009908
        0x0000a41c:    42344539    9E4B    DCD    1110721849
        0x0000a420:    35364643    CF65    DCD    892749379
        0x0000a424:    37413930    09A7    DCD    927021360
        0x0000a428:    37393346    F397    DCD    926495558
        0x0000a42c:    35463938    89F5    DCD    893794616
        0x0000a430:    42413531    15AB    DCD    1111569713
        0x0000a434:    32394638    8F92    DCD    842614328
        0x0000a438:    43424444    DDBC    DCD    1128416324
        0x0000a43c:    31344442    BD41    DCD    825508930
        0x0000a440:    34394434    4D94    DCD    876168244
        0x0000a444:    33394530    0E93    DCD    859391280
        0x0000a448:    00000000    ....    DCD    0
        0x0000a44c:    00000000    ....    DCD    0
        0x0000a450:    00000000    ....    DCD    0
        0x0000a454:    00000000    ....    DCD    0
        0x0000a458:    00000000    ....    DCD    0
        0x0000a45c:    00000000    ....    DCD    0
        0x0000a460:    00000000    ....    DCD    0
        0x0000a464:    00000000    ....    DCD    0
        0x0000a468:    00000000    ....    DCD    0
        0x0000a46c:    00000000    ....    DCD    0
        0x0000a470:    00000000    ....    DCD    0
        0x0000a474:    00000000    ....    DCD    0
        0x0000a478:    00000000    ....    DCD    0
        0x0000a47c:    00000000    ....    DCD    0
        0x0000a480:    00000000    ....    DCD    0
        0x0000a484:    00000000    ....    DCD    0
        0x0000a488:    00000000    ....    DCD    0
        0x0000a48c:    00000000    ....    DCD    0
        0x0000a490:    00000000    ....    DCD    0
        0x0000a494:    00000000    ....    DCD    0
        0x0000a498:    34433233    32C4    DCD    876818995
        0x0000a49c:    43324541    AE2C    DCD    1127368001
        0x0000a4a0:    39314631    1F19    DCD    959530545
        0x0000a4a4:    39313138    8119    DCD    959525176
        0x0000a4a8:    39394635    5F99    DCD    960054837
        0x0000a4ac:    36343430    0446    DCD    909390896
        0x0000a4b0:    39334136    6A39    DCD    959660342
        0x0000a4b4:    34393943    C994    DCD    876165443
        0x0000a4b8:    33454638    8FE3    DCD    860177976
        0x0000a4bc:    46424230    0BBF    DCD    1178747440
        0x0000a4c0:    36363246    F266    DCD    909521478
        0x0000a4c4:    31454230    0BE1    DCD    826622512
        0x0000a4c8:    41353137    715A    DCD    1094005047
        0x0000a4cc:    39383534    4589    DCD    959984948
        0x0000a4d0:    43343333    334C    DCD    1127494451
        0x0000a4d4:    37433437    74C7    DCD    927151159
        0x0000a4d8:    00000000    ....    DCD    0
        0x0000a4dc:    00000000    ....    DCD    0
        0x0000a4e0:    00000000    ....    DCD    0
        0x0000a4e4:    00000000    ....    DCD    0
        0x0000a4e8:    00000000    ....    DCD    0
        0x0000a4ec:    00000000    ....    DCD    0
        0x0000a4f0:    00000000    ....    DCD    0
        0x0000a4f4:    00000000    ....    DCD    0
        0x0000a4f8:    00000000    ....    DCD    0
        0x0000a4fc:    00000000    ....    DCD    0
        0x0000a500:    00000000    ....    DCD    0
        0x0000a504:    00000000    ....    DCD    0
        0x0000a508:    00000000    ....    DCD    0
        0x0000a50c:    00000000    ....    DCD    0
        0x0000a510:    00000000    ....    DCD    0
        0x0000a514:    00000000    ....    DCD    0
        0x0000a518:    00000000    ....    DCD    0
        0x0000a51c:    00000000    ....    DCD    0
        0x0000a520:    00000000    ....    DCD    0
        0x0000a524:    00000000    ....    DCD    0
        0x0000a528:    37334342    BC37    DCD    926106434
        0x0000a52c:    32413633    36A2    DCD    843134515
        0x0000a530:    36463446    F4F6    DCD    910570566
        0x0000a534:    43393737    779C    DCD    1127823159
        0x0000a538:    44423935    59BD    DCD    1145190709
        0x0000a53c:    33454543    CEE3    DCD    860177731
        0x0000a540:    39364236    6B69    DCD    959857206
        0x0000a544:    33353132    2153    DCD    859124018
        0x0000a548:    39413044    D0A9    DCD    960573508
        0x0000a54c:    43373738    877C    DCD    1127692088
        0x0000a550:    41323643    C62A    DCD    1093809731
        0x0000a554:    30343734    4740    DCD    808728372
        0x0000a558:    46443230    02DF    DCD    1178874416
        0x0000a55c:    35453233    32E5    DCD    893727283
        0x0000a560:    39333132    2139    DCD    959656242
        0x0000a564:    30413046    F0A0    DCD    809578566
        0x0000a568:    00000000    ....    DCD    0
        0x0000a56c:    00000000    ....    DCD    0
        0x0000a570:    00000000    ....    DCD    0
        0x0000a574:    00000000    ....    DCD    0
        0x0000a578:    00000000    ....    DCD    0
        0x0000a57c:    00000000    ....    DCD    0
        0x0000a580:    00000000    ....    DCD    0
        0x0000a584:    00000000    ....    DCD    0
        0x0000a588:    00000000    ....    DCD    0
        0x0000a58c:    00000000    ....    DCD    0
        0x0000a590:    00000000    ....    DCD    0
        0x0000a594:    00000000    ....    DCD    0
        0x0000a598:    00000000    ....    DCD    0
        0x0000a59c:    00000000    ....    DCD    0
        0x0000a5a0:    00000000    ....    DCD    0
        0x0000a5a4:    00000000    ....    DCD    0
        0x0000a5a8:    00000000    ....    DCD    0
        0x0000a5ac:    00000000    ....    DCD    0
        0x0000a5b0:    00000000    ....    DCD    0
        0x0000a5b4:    00000000    ....    DCD    0
        0x0000a5b8:    0000004e    N...    DCD    78
        0x0000a5bc:    46464646    FFFF    DCD    1179010630
        0x0000a5c0:    45464646    FFFE    DCD    1162233414
        0x0000a5c4:    46464646    FFFF    DCD    1179010630
        0x0000a5c8:    46464646    FFFF    DCD    1179010630
        0x0000a5cc:    46464646    FFFF    DCD    1179010630
        0x0000a5d0:    46464646    FFFF    DCD    1179010630
        0x0000a5d4:    46464646    FFFF    DCD    1179010630
        0x0000a5d8:    46464646    FFFF    DCD    1179010630
        0x0000a5dc:    46464646    FFFF    DCD    1179010630
        0x0000a5e0:    46464646    FFFF    DCD    1179010630
        0x0000a5e4:    30303030    0000    DCD    808464432
        0x0000a5e8:    30303030    0000    DCD    808464432
        0x0000a5ec:    46464646    FFFF    DCD    1179010630
        0x0000a5f0:    46464646    FFFF    DCD    1179010630
        0x0000a5f4:    46464646    FFFF    DCD    1179010630
        0x0000a5f8:    46464646    FFFF    DCD    1179010630
        0x0000a5fc:    00000000    ....    DCD    0
        0x0000a600:    00000000    ....    DCD    0
        0x0000a604:    00000000    ....    DCD    0
        0x0000a608:    00000000    ....    DCD    0
        0x0000a60c:    00000000    ....    DCD    0
        0x0000a610:    00000000    ....    DCD    0
        0x0000a614:    00000000    ....    DCD    0
        0x0000a618:    00000000    ....    DCD    0
        0x0000a61c:    00000000    ....    DCD    0
        0x0000a620:    00000000    ....    DCD    0
        0x0000a624:    00000000    ....    DCD    0
        0x0000a628:    00000000    ....    DCD    0
        0x0000a62c:    00000000    ....    DCD    0
        0x0000a630:    00000000    ....    DCD    0
        0x0000a634:    00000000    ....    DCD    0
        0x0000a638:    00000000    ....    DCD    0
        0x0000a63c:    00000000    ....    DCD    0
        0x0000a640:    00000000    ....    DCD    0
        0x0000a644:    00000000    ....    DCD    0
        0x0000a648:    00000000    ....    DCD    0
        0x0000a64c:    00000000    ....    DCD    0
        0x0000a650:    00000000    ....    DCD    0
        0x0000a654:    00000000    ....    DCD    0
        0x0000a658:    00000000    ....    DCD    0
        0x0000a65c:    00000000    ....    DCD    0
        0x0000a660:    00000000    ....    DCD    0
        0x0000a664:    00000000    ....    DCD    0
        0x0000a668:    00000000    ....    DCD    0
        0x0000a66c:    0000004e    N...    DCD    78
        0x0000a670:    46464646    FFFF    DCD    1179010630
        0x0000a674:    45464646    FFFE    DCD    1162233414
        0x0000a678:    46464646    FFFF    DCD    1179010630
        0x0000a67c:    46464646    FFFF    DCD    1179010630
        0x0000a680:    46464646    FFFF    DCD    1179010630
        0x0000a684:    46464646    FFFF    DCD    1179010630
        0x0000a688:    46464646    FFFF    DCD    1179010630
        0x0000a68c:    46464646    FFFF    DCD    1179010630
        0x0000a690:    33303237    7203    DCD    858796599
        0x0000a694:    42364644    DF6B    DCD    1110853188
        0x0000a698:    36433132    21C6    DCD    910373170
        0x0000a69c:    42323530    052B    DCD    1110586672
        0x0000a6a0:    42423335    53BB    DCD    1111634741
        0x0000a6a4:    39303446    F409    DCD    959460422
        0x0000a6a8:    35443933    39D5    DCD    893663539
        0x0000a6ac:    33323134    4123    DCD    858927412
        0x0000a6b0:    00000000    ....    DCD    0
        0x0000a6b4:    00000000    ....    DCD    0
        0x0000a6b8:    00000000    ....    DCD    0
        0x0000a6bc:    00000000    ....    DCD    0
        0x0000a6c0:    00000000    ....    DCD    0
        0x0000a6c4:    00000000    ....    DCD    0
        0x0000a6c8:    00000000    ....    DCD    0
        0x0000a6cc:    00000000    ....    DCD    0
        0x0000a6d0:    00000000    ....    DCD    0
        0x0000a6d4:    00000000    ....    DCD    0
        0x0000a6d8:    00000000    ....    DCD    0
        0x0000a6dc:    00000000    ....    DCD    0
        0x0000a6e0:    00000000    ....    DCD    0
        0x0000a6e4:    00000000    ....    DCD    0
        0x0000a6e8:    00000000    ....    DCD    0
        0x0000a6ec:    00000000    ....    DCD    0
        0x0000a6f0:    00000000    ....    DCD    0
        0x0000a6f4:    00000000    ....    DCD    0
        0x0000a6f8:    00000000    ....    DCD    0
        0x0000a6fc:    00000000    ....    DCD    0
        0x0000a700:    00000000    ....    DCD    0
        0x0000a704:    00000000    ....    DCD    0
        0x0000a708:    00000000    ....    DCD    0
        0x0000a70c:    00000000    ....    DCD    0
        0x0000a710:    00000000    ....    DCD    0
        0x0000a714:    00000000    ....    DCD    0
        0x0000a718:    00000000    ....    DCD    0
        0x0000a71c:    00000000    ....    DCD    0
        0x0000a720:    00000100    ....    DCD    256
        0x0000a724:    0000000a    ....    DCD    10
        0x0000a728:    00000005    ....    DCD    5
        0x0000a72c:    00000002    ....    DCD    2
        0x0000a730:    00000000    ....    DCD    0
    constants
        0x0000a734:    705e1a01    ..^p    DCD    1885215233
        0x0000a738:    5579211f    .!yU    DCD    1434001695
        0x0000a73c:    26350c0e    ..5&    DCD    641010702
        0x0000a740:    535d4f3f    ?O]S    DCD    1398624063
        0x0000a744:    66164852    RH.f    DCD    1712736338
        0x0000a748:    74215879    yX!t    DCD    1948342393
        0x0000a74c:    16090601    ....    DCD    369690113
        0x0000a750:    0c02140e    ....    DCD    201462798
        0x0000a754:    0f17130d    ....    DCD    253170445
        0x0000a758:    08151804    ....    DCD    135600132
        0x0000a75c:    12030510    ....    DCD    302187792
        0x0000a760:    0a070b11    ....    DCD    168233745
        0x0000a764:    1b1c3e01    .>..    DCD    454835713
        0x0000a768:    37062c24    $,.7    DCD    923151396
        0x0000a76c:    2b0a0314    ...+    DCD    722076436
        0x0000a770:    2d292719    .')-    DCD    757671705
        0x0000a774:    1208150f    ....    DCD    302519567
        0x0000a778:    0e383d02    .=8.    DCD    238566658
        0x0000a77c:    00b71b00    ....    DCD    12000000
        0x0000a780:    00008000    ....    DCD    32768
        0x0000a784:    00000000    ....    DCD    0
        0x0000a788:    00007d00    .}..    DCD    32000
        0x0000a78c:    00000000    ....    DCD    0
        0x0000a790:    02dc6c00    .l..    DCD    48000000
        0x0000a794:    003d0900    ..=.    DCD    4000000
        0x0000a798:    00b71b00    ....    DCD    12000000
        0x0000a79c:    00b71b00    ....    DCD    12000000
        0x0000a7a0:    00000000    ....    DCD    0
        0x0000a7a4:    00008000    ....    DCD    32768
        0x0000a7a8:    00b71b00    ....    DCD    12000000
        0x0000a7ac:    00000000    ....    DCD    0
        0x0000a7b0:    00000000    ....    DCD    0
        0x0000a7b4:    00000000    ....    DCD    0
        0x0000a7b8:    00000000    ....    DCD    0
        0x0000a7bc:    00b71b00    ....    DCD    12000000
        0x0000a7c0:    00000000    ....    DCD    0
        0x0000a7c4:    00008000    ....    DCD    32768
        0x0000a7c8:    00b71b00    ....    DCD    12000000
        0x0000a7cc:    00000000    ....    DCD    0
        0x0000a7d0:    00000000    ....    DCD    0
        0x0000a7d4:    00000000    ....    DCD    0
        0x0000a7d8:    00000000    ....    DCD    0
        0x0000a7dc:    00b71b00    ....    DCD    12000000
        0x0000a7e0:    00000000    ....    DCD    0
        0x0000a7e4:    00008000    ....    DCD    32768
        0x0000a7e8:    00b71b00    ....    DCD    12000000
        0x0000a7ec:    00000000    ....    DCD    0
        0x0000a7f0:    00000000    ....    DCD    0
        0x0000a7f4:    00000000    ....    DCD    0
        0x0000a7f8:    00000000    ....    DCD    0
    msg
        0x0000a7fc:    38316265    eb18    DCD    942760549
        0x0000a800:    37303538    8507    DCD    925906232
        0x0000a804:    31646261    abd1    DCD    828662369
        0x0000a808:    38396262    bb98    DCD    943284834
        0x0000a80c:    65313338    831e    DCD    1697723192
        0x0000a810:    30383438    8480    DCD    808989752
        0x0000a814:    39623439    94b9    DCD    962737209
        0x0000a818:    31383034    4081    DCD    825765940
        0x0000a81c:    36646333    3cd6    DCD    912548659
        0x0000a820:    33663864    d8f3    DCD    862337124
        0x0000a824:    32636438    8dc2    DCD    845374520
        0x0000a828:    66373535    557f    DCD    1714894133
        0x0000a82c:    33383662    b683    DCD    859321954
        0x0000a830:    31666336    6cf1    DCD    828793654
        0x0000a834:    39373530    0579    DCD    959919408
        0x0000a838:    34626164    dab4    DCD    878862692
        0x0000a83c:    36383937    7986    DCD    909654327
        0x0000a840:    33666135    5af3    DCD    862347573
        0x0000a844:    61373031    107a    DCD    1631006769
        0x0000a848:    30303034    4000    DCD    808464436
        0x0000a84c:    61613338    83aa    DCD    1633760056
        0x0000a850:    37613633    36a7    DCD    929117747
        0x0000a854:    43434500    .ECC    DCD    1128482048
        0x0000a858:    67697320     sig    DCD    1734964000
        0x0000a85c:    7574616e    natu    DCD    1970561390
        0x0000a860:    76206572    re v    DCD    1981834610
        0x0000a864:    66697265    erif    DCD    1718186597
        0x0000a868:    74616369    icat    DCD    1952539497
        0x0000a86c:    206e6f69    ion     DCD    544108393
        0x0000a870:    6c696166    fail    DCD    1818845542
        0x0000a874:    21216465    ed!!    DCD    555836517
        0x0000a878:    4345000a    ..EC    DCD    1128595466
        0x0000a87c:    69732043    C si    DCD    1769152579
        0x0000a880:    74616e67    gnat    DCD    1952542311
        0x0000a884:    20657275    ure     DCD    543519349
        0x0000a888:    656e6567    gene    DCD    1701733735
        0x0000a88c:    69746172    rati    DCD    1769234802
        0x0000a890:    66206e6f    on f    DCD    1713401455
        0x0000a894:    656c6961    aile    DCD    1701603681
        0x0000a898:    0a212164    d!!.    DCD    169943396
        0x0000a89c:    43434500    .ECC    DCD    1128482048
        0x0000a8a0:    79656b20     key    DCD    2036689696
        0x0000a8a4:    6e656720     gen    DCD    1852139296
        0x0000a8a8:    74617265    erat    DCD    1952543333
        0x0000a8ac:    206e6f69    ion     DCD    544108393
        0x0000a8b0:    6c696166    fail    DCD    1818845542
        0x0000a8b4:    21216465    ed!!    DCD    555836517
        0x0000a8b8:    6f44000a    ..Do    DCD    1866727434
        0x0000a8bc:    0a21656e    ne!.    DCD    169960814
        0x0000a8c0:    69614600    .Fai    DCD    1767982592
        0x0000a8c4:    6f74206c    l to    DCD    1869881452
        0x0000a8c8:    69727720     wri    DCD    1769109280
        0x0000a8cc:    6b206574    te k    DCD    1797285236
        0x0000a8d0:    74207965    ey t    DCD    1948285285
        0x0000a8d4:    654b206f    o Ke    DCD    1699422319
        0x0000a8d8:    74532079    y St    DCD    1951604857
        0x0000a8dc:    2165726f    ore!    DCD    560296559
        0x0000a8e0:    4345000a    ..EC    DCD    1128595466
        0x0000a8e4:    69642043    C di    DCD    1768169539
        0x0000a8e8:    61746967    gita    DCD    1635019111
        0x0000a8ec:    6973206c    l si    DCD    1769152620
        0x0000a8f0:    74616e67    gnat    DCD    1952542311
        0x0000a8f4:    20657275    ure     DCD    543519349
        0x0000a8f8:    69726576    veri    DCD    1769104758
        0x0000a8fc:    61636966    fica    DCD    1633904998
        0x0000a900:    6e6f6974    tion    DCD    1852795252
        0x0000a904:    2e4b4f20     OK.    DCD    776687392
        0x0000a908:    7543000a    ..Cu    DCD    1967325194
        0x0000a90c:    6e657272    rren    DCD    1852142194
        0x0000a910:    72702074    t pr    DCD    1919950964
        0x0000a914:    74617669    ivat    DCD    1952544361
        0x0000a918:    656b2065    e ke    DCD    1701519461
        0x0000a91c:    73692079    y is    DCD    1936269433
        0x0000a920:    746f6e20     not    DCD    1953459744
        0x0000a924:    6c617620     val    DCD    1818326560
        0x0000a928:    202e6469    id.     DCD    539911273
        0x0000a92c:    20756f59    You     DCD    544567129
        0x0000a930:    756f6873    shou    DCD    1970235507
        0x0000a934:    7320646c    ld s    DCD    1931502700
        0x0000a938:    61207465    et a    DCD    1629516901
        0x0000a93c:    77656e20     new    DCD    2003136032
        0x0000a940:    656e6f20     one    DCD    1701736224
        0x0000a944:    46000a2e    ...F    DCD    1174407726
        0x0000a948:    206c6961    ail     DCD    543975777
        0x0000a94c:    77206f74    to w    DCD    1998614388
        0x0000a950:    65746972    rite    DCD    1702127986
        0x0000a954:    74206b20     k t    DCD    1948281632
        0x0000a958:    534b206f    o KS    DCD    1397432431
        0x0000a95c:    41525320     SRA    DCD    1095914272
        0x0000a960:    69000a4d    M..i    DCD    1761610317
        0x0000a964:    654b3233    32Ke    DCD    1699426867
        0x0000a968:    78644979    yIdx    DCD    2019838329
        0x0000a96c:    3d20645f    _d =    DCD    1025533023
        0x0000a970:    2c642520     %d,    DCD    744760608
        0x0000a974:    6d657220     rem    DCD    1835364896
        0x0000a978:    206e6961    ain     DCD    544106849
        0x0000a97c:    657a6973    size    DCD    1702521203
        0x0000a980:    25203d20     = %    DCD    622869792
        0x0000a984:    69000a64    d..i    DCD    1761610340
        0x0000a988:    654b3233    32Ke    DCD    1699426867
        0x0000a98c:    78644979    yIdx    DCD    2019838329
        0x0000a990:    3d206b5f    _k =    DCD    1025534815
        0x0000a994:    2c642520     %d,    DCD    744760608
        0x0000a998:    6d657220     rem    DCD    1835364896
        0x0000a99c:    206e6961    ain     DCD    544106849
        0x0000a9a0:    657a6973    size    DCD    1702521203
        0x0000a9a4:    25203d20     = %    DCD    622869792
        0x0000a9a8:    69000a64    d..i    DCD    1761610340
        0x0000a9ac:    654b3233    32Ke    DCD    1699426867
        0x0000a9b0:    78644979    yIdx    DCD    2019838329
        0x0000a9b4:    2078515f    _Qx     DCD    544756063
        0x0000a9b8:    6425203d    = %d    DCD    1680154685
        0x0000a9bc:    6572202c    , re    DCD    1701978156
        0x0000a9c0:    6e69616d    main    DCD    1852399981
        0x0000a9c4:    7a697320     siz    DCD    2053731104
        0x0000a9c8:    203d2065    e =     DCD    540876901
        0x0000a9cc:    000a6425    %d..    DCD    680997
        0x0000a9d0:    4b323369    i32K    DCD    1261581161
        0x0000a9d4:    64497965    eyId    DCD    1682536805
        0x0000a9d8:    79515f78    x_Qy    DCD    2035375992
        0x0000a9dc:    25203d20     = %    DCD    622869792
        0x0000a9e0:    72202c64    d, r    DCD    1914711140
        0x0000a9e4:    69616d65    emai    DCD    1767992677
        0x0000a9e8:    6973206e    n si    DCD    1769152622
        0x0000a9ec:    3d20657a    ze =    DCD    1025533306
        0x0000a9f0:    0a642520     %d.    DCD    174335264
        0x0000a9f4:    4e525000    .PRN    DCD    1314017280
        0x0000a9f8:    43452047    G EC    DCD    1128603719
        0x0000a9fc:    20415344    DSA     DCD    541152068
        0x0000aa00:    74696e49    Init    DCD    1953066569
        0x0000aa04:    66206c61    al f    DCD    1713400929
        0x0000aa08:    656c6961    aile    DCD    1701603681
        0x0000aa0c:    20000a64    d..     DCD    536873572
        0x0000aa10:    20205220     R      DCD    538989088
        0x0000aa14:    7325203d    = %s    DCD    1931812925
        0x0000aa18:    2020000a    ..      DCD    538968074
        0x0000aa1c:    3d202053    S  =    DCD    1025515603
        0x0000aa20:    0a732520     %s.    DCD    175318304
        0x0000aa24:    64202000    .  d    DCD    1679826944
        0x0000aa28:    203d2020      =     DCD    540876832
        0x0000aa2c:    000a7325    %s..    DCD    684837
        0x0000aa30:    68736148    Hash    DCD    1752392008
        0x0000aa34:    25203d20     = %    DCD    622869792
        0x0000aa38:    20000a73    s..     DCD    536873587
        0x0000aa3c:    20785120     Qx     DCD    544756000
        0x0000aa40:    7325203d    = %s    DCD    1931812925
        0x0000aa44:    2020000a    ..      DCD    538968074
        0x0000aa48:    3d207951    Qy =    DCD    1025538385
        0x0000aa4c:    0a732520     %s.    DCD    175318304
        0x0000aa50:    616c4500    .Ela    DCD    1634485504
        0x0000aa54:    64657370    psed    DCD    1684370288
        0x0000aa58:    6d697420     tim    DCD    1835627552
        0x0000aa5c:    25203a65    e: %    DCD    622869093
        0x0000aa60:    64252e64    d.%d    DCD    1680158308
        0x0000aa64:    0a736d20     ms.    DCD    175336736
        0x0000aa68:    55504300    .CPU    DCD    1431323392
        0x0000aa6c:    25204020     @ %    DCD    622870560
        0x0000aa70:    0a7a4864    dHz.    DCD    175786084
        0x0000aa74:    70786500    .exp    DCD    1886938368
        0x0000aa78:    65746365    ecte    DCD    1702126437
        0x0000aa7c:    61482064    d Ha    DCD    1632116836
        0x0000aa80:    3d206873    sh =    DCD    1025534067
        0x0000aa84:    30300020     .00    DCD    808452128
        0x0000aa88:    30303030    0000    DCD    808464432
        0x0000aa8c:    30303030    0000    DCD    808464432
        0x0000aa90:    30303030    0000    DCD    808464432
        0x0000aa94:    30303030    0000    DCD    808464432
        0x0000aa98:    30303030    0000    DCD    808464432
        0x0000aa9c:    30303030    0000    DCD    808464432
        0x0000aaa0:    30303030    0000    DCD    808464432
        0x0000aaa4:    30303030    0000    DCD    808464432
        0x0000aaa8:    30303030    0000    DCD    808464432
        0x0000aaac:    30303030    0000    DCD    808464432
        0x0000aab0:    30303030    0000    DCD    808464432
        0x0000aab4:    30303030    0000    DCD    808464432
        0x0000aab8:    30303030    0000    DCD    808464432
        0x0000aabc:    30303030    0000    DCD    808464432
        0x0000aac0:    30303030    0000    DCD    808464432
        0x0000aac4:    30003030    00.0    DCD    805318704
        0x0000aac8:    66633335    53cf    DCD    1717777205
        0x0000aacc:    61306165    ea0a    DCD    1630560613
        0x0000aad0:    35336239    9b35    DCD    892559929
        0x0000aad4:    36396266    fb96    DCD    909730406
        0x0000aad8:    62613830    08ab    DCD    1650538544
        0x0000aadc:    35613732    27a5    DCD    895563570
        0x0000aae0:    33346435    5d43    DCD    859071541
        0x0000aae4:    38653239    92e8    DCD    946156089
        0x0000aae8:    31626139    9ab1    DCD    828531001
        0x0000aaec:    35356133    3a55    DCD    892690739
        0x0000aaf0:    39316536    6e19    DCD    959538486
        0x0000aaf4:    66316662    bf1f    DCD    1714513506
        0x0000aaf8:    66653330    03ef    DCD    1717908272
        0x0000aafc:    62653339    93eb    DCD    1650799417
        0x0000ab00:    66363763    c76f    DCD    1714829155
        0x0000ab04:    00333566    f53.    DCD    3356006
        0x0000ab08:    78323025    %02x    DCD    2016555045
        0x0000ab0c:    32302500    .%02    DCD    842016000
        0x0000ab10:    00786868    hhx.    DCD    7891048
        0x0000ab14:    64726148    Hard    DCD    1685217608
        0x0000ab18:    6c756146    Faul    DCD    1819631942
        0x0000ab1c:    6e412074    t An    DCD    1849761908
        0x0000ab20:    73796c61    alys    DCD    1937337441
        0x0000ab24:    0a3a7369    is:.    DCD    171602793
        0x0000ab28:    78305b00    .[0x    DCD    2016434944
        0x0000ab2c:    78383025    %08x    DCD    2016948261
        0x0000ab30:    7830205d    ] 0x    DCD    2016419933
        0x0000ab34:    78343025    %04x    DCD    2016686117
        0x0000ab38:    20732520     %s     DCD    544417056
        0x0000ab3c:    78257830    0x%x    DCD    2015721520
        0x0000ab40:    78305b20     [0x    DCD    2016434976
        0x0000ab44:    0a5d7825    %x].    DCD    173897765
        0x0000ab48:    65784500    .Exe    DCD    1702380800
        0x0000ab4c:    65747563    cute    DCD    1702131043
        0x0000ab50:    504b4220     BKP    DCD    1347109408
        0x0000ab54:    69772054    T wi    DCD    1769414740
        0x0000ab58:    756f6874    thou    DCD    1970235508
        0x0000ab5c:    43492074    t IC    DCD    1128865908
        0x0000ab60:    6f632045    E co    DCD    1868767301
        0x0000ab64:    63656e6e    nnec    DCD    1667591790
        0x0000ab68:    0a646574    ted.    DCD    174351732
        0x0000ab6c:    6e6f4e00    .Non    DCD    1852788224
        0x0000ab70:    6365732d    -sec    DCD    1667593005
        0x0000ab74:    20657275    ure     DCD    543519349
        0x0000ab78:    20555043    CPU     DCD    542462019
        0x0000ab7c:    20797274    try     DCD    544830068
        0x0000ab80:    66206f74    to f    DCD    1713401716
        0x0000ab84:    68637465    etch    DCD    1751348325
        0x0000ab88:    63657320     sec    DCD    1667592992
        0x0000ab8c:    20657275    ure     DCD    543519349
        0x0000ab90:    65646f63    code    DCD    1701080931
        0x0000ab94:    6e55000a    ..Un    DCD    1851064330
        0x0000ab98:    65707865    expe    DCD    1701869669
        0x0000ab9c:    64657463    cted    DCD    1684370531
        0x0000aba0:    736e6920     ins    DCD    1936615712
        0x0000aba4:    63757274    truc    DCD    1668641396
        0x0000aba8:    6e6f6974    tion    DCD    1852795252
        0x0000abac:    6143000a    ..Ca    DCD    1631780874
        0x0000abb0:    64657375    used    DCD    1684370293
        0x0000abb4:    20796220     by     DCD    544825888
        0x0000abb8:    000a7325    %s..    DCD    684837
        0x0000abbc:    74736e49    Inst    DCD    1953721929
        0x0000abc0:    74637572    ruct    DCD    1952675186
        0x0000abc4:    206e6f69    ion     DCD    544108393
        0x0000abc8:    65646f63    code    DCD    1701080931
        0x0000abcc:    25203d20     = %    DCD    622869792
        0x0000abd0:    4c000a78    x..L    DCD    1275071096
        0x0000abd4:    2f485244    DRH/    DCD    793268804
        0x0000abd8:    48525453    STRH    DCD    1213355091
        0x0000abdc:    3d747220     rt=    DCD    1031041568
        0x0000abe0:    72207825    %x r    DCD    1914730533
        0x0000abe4:    78253d6e    n=%x    DCD    2015706478
        0x0000abe8:    6d6d6920     imm    DCD    1835886880
        0x0000abec:    78253d35    5=%x    DCD    2015706421
        0x0000abf0:    444c000a    ..LD    DCD    1145831434
        0x0000abf4:    54532f52    R/ST    DCD    1414737746
        0x0000abf8:    74722052    R rt    DCD    1953636434
        0x0000abfc:    2078253d    =%x     DCD    544744765
        0x0000ac00:    253d6e72    rn=%    DCD    624782962
        0x0000ac04:    6d692078    x im    DCD    1835606136
        0x0000ac08:    253d356d    m5=%    DCD    624768365
        0x0000ac0c:    4c000a78    x..L    DCD    1275071096
        0x0000ac10:    2f485244    DRH/    DCD    793268804
        0x0000ac14:    48525453    STRH    DCD    1213355091
        0x0000ac18:    3d747220     rt=    DCD    1031041568
        0x0000ac1c:    69207825    %x i    DCD    1763735589
        0x0000ac20:    3d386d6d    mm8=    DCD    1027108205
        0x0000ac24:    000a7825    %x..    DCD    686117
        0x0000ac28:    2f52444c    LDR/    DCD    793920588
        0x0000ac2c:    20525453    STR     DCD    542266451
        0x0000ac30:    253d7472    rt=%    DCD    624784498
        0x0000ac34:    6d722078    x rm    DCD    1836195960
        0x0000ac38:    2078253d    =%x     DCD    544744765
        0x0000ac3c:    253d6e72    rn=%    DCD    624782962
        0x0000ac40:    48000a78    x..H    DCD    1207962232
        0x0000ac44:    46647261    ardF    DCD    1180988001
        0x0000ac48:    746c7561    ault    DCD    1953264993
        0x0000ac4c:    30204020     @ 0    DCD    807419936
        0x0000ac50:    38302578    x%08    DCD    942679416
        0x0000ac54:    25000a78    x..%    DCD    620759672
        0x0000ac58:    78302873    s(0x    DCD    2016422003
        0x0000ac5c:    78383025    %08x    DCD    2016948261
        0x0000ac60:    69562029    ) Vi    DCD    1767252009
        0x0000ac64:    74616c6f    olat    DCD    1952541807
        0x0000ac68:    216e6f69    ion!    DCD    560885609
        0x0000ac6c:    44500020     .PD    DCD    1146093600
        0x0000ac70:    0030414d    MA0.    DCD    3162445
        0x0000ac74:    30425041    APB0    DCD    809652289
        0x0000ac78:    48445300    .SDH    DCD    1212437248
        0x0000ac7c:    52530030    0.SR    DCD    1381171248
        0x0000ac80:    00304d41    AM0.    DCD    3165505
        0x0000ac84:    414d4450    PDMA    DCD    1095582800
        0x0000ac88:    50410031    1.AP    DCD    1346437169
        0x0000ac8c:    53003142    B1.S    DCD    1392521538
        0x0000ac90:    314d4152    RAM1    DCD    827146578
        0x0000ac94:    434d4600    .FMC    DCD    1129137664
        0x0000ac98:    43524300    .CRC    DCD    1129464576
        0x0000ac9c:    42535500    .USB    DCD    1112757504
        0x0000aca0:    4c460048    H.FL    DCD    1279656008
        0x0000aca4:    00485341    ASH.    DCD    4739905
        0x0000aca8:    00494245    EBI.    DCD    4801093
        0x0000acac:    524f4953    SIOR    DCD    1380927827
        0x0000acb0:    47004d41    AM.G    DCD    1191202113
        0x0000acb4:    004f4950    PIO.    DCD    5196112
        0x0000acb8:    0052444c    LDR.    DCD    5391436
        0x0000acbc:    00525453    STR.    DCD    5395539
        0x0000acc0:    5300534b    KS.S    DCD    1392530251
        0x0000acc4:    43005359    YS.C    DCD    1124094809
        0x0000acc8:    00545052    RPT.    DCD    5525586
        0x0000accc:    00554353    SCU.    DCD    5587795
        0x0000acd0:    00555043    CPU.    DCD    5591107
        0x0000acd4:    54505243    CRPT    DCD    1414550083
        0x0000acd8:    4343455f    _ECC    DCD    1128482143
        0x0000acdc:    494f505f    _POI    DCD    1229934687
        0x0000ace0:    585f544e    NT_X    DCD    1482642510
        0x0000ace4:    52430031    1.CR    DCD    1380122673
        0x0000ace8:    455f5450    PT_E    DCD    1163875408
        0x0000acec:    505f4343    CC_P    DCD    1348420419
        0x0000acf0:    544e494f    OINT    DCD    1414416719
        0x0000acf4:    0031595f    _Y1.    DCD    3234143
        0x0000acf8:    54505243    CRPT    DCD    1414550083
        0x0000acfc:    4343455f    _ECC    DCD    1128482143
        0x0000ad00:    5255435f    _CUR    DCD    1381319519
        0x0000ad04:    415f4556    VE_A    DCD    1096762710
        0x0000ad08:    50524300    .CRP    DCD    1347568384
        0x0000ad0c:    43455f54    T_EC    DCD    1128619860
        0x0000ad10:    55435f43    C_CU    DCD    1430478659
        0x0000ad14:    5f455652    RVE_    DCD    1598379602
        0x0000ad18:    52430042    B.CR    DCD    1380122690
        0x0000ad1c:    455f5450    PT_E    DCD    1163875408
        0x0000ad20:    435f4343    CC_C    DCD    1130316611
        0x0000ad24:    45565255    URVE    DCD    1163285077
        0x0000ad28:    00004e5f    _N..    DCD    20063
    Region$$Table$$Base
        0x0000ad2c:    0000ad4c    L...    DCD    44364
        0x0000ad30:    20000000    ...     DCD    536870912
        0x0000ad34:    00000020     ...    DCD    32
        0x0000ad38:    000046ae    .F..    DCD    18094
        0x0000ad3c:    0000ad6c    l...    DCD    44396
        0x0000ad40:    20000020     ..     DCD    536870944
        0x0000ad44:    00001cc8    ....    DCD    7368
        0x0000ad48:    000046be    .F..    DCD    18110
    Region$$Table$$Limit

** Section #2 'ER_RW' (SHT_PROGBITS) [SHF_ALLOC + SHF_WRITE]
    Size   : 32 bytes (alignment 4)
    Address: 0x20000000


** Section #3 'ER_ZI' (SHT_NOBITS) [SHF_ALLOC + SHF_WRITE]
    Size   : 7368 bytes (alignment 8)
    Address: 0x20000020


** Section #4 '.debug_abbrev' (SHT_PROGBITS)
    Size   : 3535 bytes


** Section #5 '.debug_frame' (SHT_PROGBITS)
    Size   : 5804 bytes


** Section #6 '.debug_info' (SHT_PROGBITS)
    Size   : 33942 bytes


** Section #7 '.debug_line' (SHT_PROGBITS)
    Size   : 30207 bytes


** Section #8 '.debug_ranges' (SHT_PROGBITS)
    Size   : 1384 bytes


** Section #9 '.debug_str' (SHT_PROGBITS)
    Size   : 17177 bytes


** Section #10 '.symtab' (SHT_SYMTAB)
    Size   : 11920 bytes (alignment 4)
    String table #11 '.strtab'
    Last local symbol no. 508


** Section #11 '.strtab' (SHT_STRTAB)
    Size   : 8292 bytes


** Section #12 '.note' (SHT_NOTE)
    Size   : 28 bytes (alignment 4)


** Section #13 '.comment' (SHT_PROGBITS)
    Size   : 1356 bytes


** Section #14 '.shstrtab' (SHT_STRTAB)
    Size   : 136 bytes


